
MonoMusicPlayerelf:     file format elf32-avr

Sections:
Idx Name          Size      VMA       LMA       File off  Algn
  0 .text         00006012  00000000  00000000  00000074  2**1
                  CONTENTS, ALLOC, LOAD, READONLY, CODE
  1 .data         00000168  00800060  00006012  00006086  2**0
                  CONTENTS, ALLOC, LOAD, DATA
  2 .bss          00000663  008001c8  0000617a  000061ee  2**0
                  ALLOC
  3 .debug_aranges 00000020  00000000  00000000  000061ee  2**0
                  CONTENTS, READONLY, DEBUGGING
  4 .debug_pubnames 0000018b  00000000  00000000  0000620e  2**0
                  CONTENTS, READONLY, DEBUGGING
  5 .debug_info   00000b48  00000000  00000000  00006399  2**0
                  CONTENTS, READONLY, DEBUGGING
  6 .debug_abbrev 00000242  00000000  00000000  00006ee1  2**0
                  CONTENTS, READONLY, DEBUGGING
  7 .debug_line   0000144f  00000000  00000000  00007123  2**0
                  CONTENTS, READONLY, DEBUGGING
  8 .debug_frame  00000160  00000000  00000000  00008574  2**2
                  CONTENTS, READONLY, DEBUGGING
  9 .debug_str    000002fa  00000000  00000000  000086d4  2**0
                  CONTENTS, READONLY, DEBUGGING
Disassembly of section .text:

00000000 <__vectors>:
       0:	0c 94 2a 00 	jmp	0x54	; 0x54 <__ctors_end>
       4:	0c 94 3b 09 	jmp	0x1276	; 0x1276 <__vector_1>
       8:	0c 94 47 00 	jmp	0x8e	; 0x8e <__bad_interrupt>
       c:	0c 94 47 00 	jmp	0x8e	; 0x8e <__bad_interrupt>
      10:	0c 94 47 00 	jmp	0x8e	; 0x8e <__bad_interrupt>
      14:	0c 94 47 00 	jmp	0x8e	; 0x8e <__bad_interrupt>
      18:	0c 94 47 00 	jmp	0x8e	; 0x8e <__bad_interrupt>
      1c:	0c 94 47 00 	jmp	0x8e	; 0x8e <__bad_interrupt>
      20:	0c 94 47 00 	jmp	0x8e	; 0x8e <__bad_interrupt>
      24:	0c 94 47 00 	jmp	0x8e	; 0x8e <__bad_interrupt>
      28:	0c 94 47 00 	jmp	0x8e	; 0x8e <__bad_interrupt>
      2c:	0c 94 49 00 	jmp	0x92	; 0x92 <__vector_11>
      30:	0c 94 47 00 	jmp	0x8e	; 0x8e <__bad_interrupt>
      34:	0c 94 47 00 	jmp	0x8e	; 0x8e <__bad_interrupt>
      38:	0c 94 47 00 	jmp	0x8e	; 0x8e <__bad_interrupt>
      3c:	0c 94 47 00 	jmp	0x8e	; 0x8e <__bad_interrupt>
      40:	0c 94 47 00 	jmp	0x8e	; 0x8e <__bad_interrupt>
      44:	0c 94 47 00 	jmp	0x8e	; 0x8e <__bad_interrupt>
      48:	0c 94 47 00 	jmp	0x8e	; 0x8e <__bad_interrupt>
      4c:	0c 94 47 00 	jmp	0x8e	; 0x8e <__bad_interrupt>
      50:	0c 94 47 00 	jmp	0x8e	; 0x8e <__bad_interrupt>

00000054 <__ctors_end>:
      54:	11 24       	eor	r1, r1
      56:	1f be       	out	0x3f, r1	; 63
      58:	cf e5       	ldi	r28, 0x5F	; 95
      5a:	d8 e0       	ldi	r29, 0x08	; 8
      5c:	de bf       	out	0x3e, r29	; 62
      5e:	cd bf       	out	0x3d, r28	; 61

00000060 <__do_copy_data>:
      60:	11 e0       	ldi	r17, 0x01	; 1
      62:	a0 e6       	ldi	r26, 0x60	; 96
      64:	b0 e0       	ldi	r27, 0x00	; 0
      66:	e2 e1       	ldi	r30, 0x12	; 18
      68:	f0 e6       	ldi	r31, 0x60	; 96
      6a:	02 c0       	rjmp	.+4      	; 0x70 <.do_copy_data_start>

0000006c <.do_copy_data_loop>:
      6c:	05 90       	lpm	r0, Z+
      6e:	0d 92       	st	X+, r0

00000070 <.do_copy_data_start>:
      70:	a8 3c       	cpi	r26, 0xC8	; 200
      72:	b1 07       	cpc	r27, r17
      74:	d9 f7       	brne	.-10     	; 0x6c <.do_copy_data_loop>

00000076 <__do_clear_bss>:
      76:	18 e0       	ldi	r17, 0x08	; 8
      78:	a8 ec       	ldi	r26, 0xC8	; 200
      7a:	b1 e0       	ldi	r27, 0x01	; 1
      7c:	01 c0       	rjmp	.+2      	; 0x80 <.do_clear_bss_start>

0000007e <.do_clear_bss_loop>:
      7e:	1d 92       	st	X+, r1

00000080 <.do_clear_bss_start>:
      80:	ab 32       	cpi	r26, 0x2B	; 43
      82:	b1 07       	cpc	r27, r17
      84:	e1 f7       	brne	.-8      	; 0x7e <.do_clear_bss_loop>
      86:	0e 94 4a 0b 	call	0x1694	; 0x1694 <main>
      8a:	0c 94 07 30 	jmp	0x600e	; 0x600e <_exit>

0000008e <__bad_interrupt>:
      8e:	0c 94 00 00 	jmp	0	; 0x0 <__vectors>

00000092 <__vector_11>:
	}MyMelodyBox[8];

//*********************************************************************************************
				
SIGNAL(SIG_OVERFLOW0)
	{			
      92:	1f 92       	push	r1
      94:	0f 92       	push	r0
      96:	0f b6       	in	r0, 0x3f	; 63
      98:	0f 92       	push	r0
      9a:	11 24       	eor	r1, r1
      9c:	2f 93       	push	r18
      9e:	3f 93       	push	r19
      a0:	8f 93       	push	r24
      a2:	9f 93       	push	r25
      a4:	af 93       	push	r26
      a6:	bf 93       	push	r27
      a8:	ef 93       	push	r30
      aa:	ff 93       	push	r31
      ac:	df 93       	push	r29
      ae:	cf 93       	push	r28
      b0:	cd b7       	in	r28, 0x3d	; 61
      b2:	de b7       	in	r29, 0x3e	; 62
		if(!Parametr.PlayerLoopCounter)
      b4:	80 91 ce 01 	lds	r24, 0x01CE
      b8:	98 2f       	mov	r25, r24
      ba:	92 95       	swap	r25
      bc:	9f 70       	andi	r25, 0x0F	; 15
      be:	80 91 cf 01 	lds	r24, 0x01CF
      c2:	81 70       	andi	r24, 0x01	; 1
      c4:	82 95       	swap	r24
      c6:	80 7f       	andi	r24, 0xF0	; 240
      c8:	89 2b       	or	r24, r25
      ca:	88 23       	and	r24, r24
      cc:	d1 f5       	brne	.+116    	; 0x142 <__vector_11+0xb0>
			{
				PORT ^= 1<<PORT_PIN	;		// generacja przebiegu
      ce:	a2 e3       	ldi	r26, 0x32	; 50
      d0:	b0 e0       	ldi	r27, 0x00	; 0
      d2:	e2 e3       	ldi	r30, 0x32	; 50
      d4:	f0 e0       	ldi	r31, 0x00	; 0
      d6:	90 81       	ld	r25, Z
      d8:	88 e0       	ldi	r24, 0x08	; 8
      da:	89 27       	eor	r24, r25
      dc:	8c 93       	st	X, r24
				TCNT0 = 255 - Parametr.PlayerCounter; // prostakatnego
      de:	e2 e5       	ldi	r30, 0x52	; 82
      e0:	f0 e0       	ldi	r31, 0x00	; 0
      e2:	80 91 cf 01 	lds	r24, 0x01CF
      e6:	98 2f       	mov	r25, r24
      e8:	96 95       	lsr	r25
      ea:	80 91 d0 01 	lds	r24, 0x01D0
      ee:	81 70       	andi	r24, 0x01	; 1
      f0:	87 95       	ror	r24
      f2:	88 27       	eor	r24, r24
      f4:	87 95       	ror	r24
      f6:	89 2b       	or	r24, r25
      f8:	28 2f       	mov	r18, r24
      fa:	80 91 d0 01 	lds	r24, 0x01D0
      fe:	98 2f       	mov	r25, r24
     100:	96 95       	lsr	r25
     102:	80 91 d1 01 	lds	r24, 0x01D1
     106:	81 70       	andi	r24, 0x01	; 1
     108:	87 95       	ror	r24
     10a:	88 27       	eor	r24, r24
     10c:	87 95       	ror	r24
     10e:	89 2b       	or	r24, r25
     110:	38 2f       	mov	r19, r24
     112:	82 2f       	mov	r24, r18
     114:	80 95       	com	r24
     116:	80 83       	st	Z, r24
				Parametr.temp_player_loop_counter = Parametr.PlayerLoopCounter;
     118:	80 91 ce 01 	lds	r24, 0x01CE
     11c:	98 2f       	mov	r25, r24
     11e:	92 95       	swap	r25
     120:	9f 70       	andi	r25, 0x0F	; 15
     122:	80 91 cf 01 	lds	r24, 0x01CF
     126:	81 70       	andi	r24, 0x01	; 1
     128:	82 95       	swap	r24
     12a:	80 7f       	andi	r24, 0xF0	; 240
     12c:	89 2b       	or	r24, r25
     12e:	8f 71       	andi	r24, 0x1F	; 31
     130:	98 2f       	mov	r25, r24
     132:	99 0f       	add	r25, r25
     134:	80 91 d1 01 	lds	r24, 0x01D1
     138:	81 7c       	andi	r24, 0xC1	; 193
     13a:	89 2b       	or	r24, r25
     13c:	80 93 d1 01 	sts	0x01D1, r24
     140:	12 c0       	rjmp	.+36     	; 0x166 <__vector_11+0xd4>
			}								

		else
			{
				--Parametr.temp_player_loop_counter;
     142:	80 91 d1 01 	lds	r24, 0x01D1
     146:	86 95       	lsr	r24
     148:	8f 71       	andi	r24, 0x1F	; 31
     14a:	81 5e       	subi	r24, 0xE1	; 225
     14c:	8f 71       	andi	r24, 0x1F	; 31
     14e:	8f 71       	andi	r24, 0x1F	; 31
     150:	98 2f       	mov	r25, r24
     152:	99 0f       	add	r25, r25
     154:	80 91 d1 01 	lds	r24, 0x01D1
     158:	81 7c       	andi	r24, 0xC1	; 193
     15a:	89 2b       	or	r24, r25
     15c:	80 93 d1 01 	sts	0x01D1, r24
				TCNT0 = 0;
     160:	e2 e5       	ldi	r30, 0x52	; 82
     162:	f0 e0       	ldi	r31, 0x00	; 0
     164:	10 82       	st	Z, r1
			}
	TIFR = 1<<TOV0;
     166:	e8 e5       	ldi	r30, 0x58	; 88
     168:	f0 e0       	ldi	r31, 0x00	; 0
     16a:	81 e0       	ldi	r24, 0x01	; 1
     16c:	80 83       	st	Z, r24
	}
     16e:	cf 91       	pop	r28
     170:	df 91       	pop	r29
     172:	ff 91       	pop	r31
     174:	ef 91       	pop	r30
     176:	bf 91       	pop	r27
     178:	af 91       	pop	r26
     17a:	9f 91       	pop	r25
     17c:	8f 91       	pop	r24
     17e:	3f 91       	pop	r19
     180:	2f 91       	pop	r18
     182:	0f 90       	pop	r0
     184:	0f be       	out	0x3f, r0	; 63
     186:	0f 90       	pop	r0
     188:	1f 90       	pop	r1
     18a:	18 95       	reti

0000018c <LcdData>:
//*****************************************************************************
// 				Funkcje sterujace / konfiguracyjne							//
//*****************************************************************************

void LcdData(unsigned char Data)
	{
     18c:	df 93       	push	r29
     18e:	cf 93       	push	r28
     190:	cd b7       	in	r28, 0x3d	; 61
     192:	de b7       	in	r29, 0x3e	; 62
     194:	6d 97       	sbiw	r28, 0x1d	; 29
     196:	0f b6       	in	r0, 0x3f	; 63
     198:	f8 94       	cli
     19a:	de bf       	out	0x3e, r29	; 62
     19c:	0f be       	out	0x3f, r0	; 63
     19e:	cd bf       	out	0x3d, r28	; 61
     1a0:	8d 8f       	std	Y+29, r24	; 0x1d
		OLCD_LINE |= 1<<E_LINE;						// Stan E wysoki	
     1a2:	a2 e3       	ldi	r26, 0x32	; 50
     1a4:	b0 e0       	ldi	r27, 0x00	; 0
     1a6:	e2 e3       	ldi	r30, 0x32	; 50
     1a8:	f0 e0       	ldi	r31, 0x00	; 0
     1aa:	80 81       	ld	r24, Z
     1ac:	82 60       	ori	r24, 0x02	; 2
     1ae:	8c 93       	st	X, r24
		OLCD_LINE &= ~( 1<<DB7 | 1<<DB6 | 1<<DB5 | 1<<DB4);
     1b0:	a2 e3       	ldi	r26, 0x32	; 50
     1b2:	b0 e0       	ldi	r27, 0x00	; 0
     1b4:	e2 e3       	ldi	r30, 0x32	; 50
     1b6:	f0 e0       	ldi	r31, 0x00	; 0
     1b8:	80 81       	ld	r24, Z
     1ba:	8f 70       	andi	r24, 0x0F	; 15
     1bc:	8c 93       	st	X, r24
		OLCD_LINE |= (Data & 0xF0);					// przygotowanie starszej czesci
     1be:	a2 e3       	ldi	r26, 0x32	; 50
     1c0:	b0 e0       	ldi	r27, 0x00	; 0
     1c2:	e2 e3       	ldi	r30, 0x32	; 50
     1c4:	f0 e0       	ldi	r31, 0x00	; 0
     1c6:	80 81       	ld	r24, Z
     1c8:	98 2f       	mov	r25, r24
     1ca:	8d 8d       	ldd	r24, Y+29	; 0x1d
     1cc:	80 7f       	andi	r24, 0xF0	; 240
     1ce:	89 2b       	or	r24, r25
     1d0:	8c 93       	st	X, r24
		OLCD_LINE &= ~(1<<E_LINE);					// Stam E niski , przeslanie danej
     1d2:	a2 e3       	ldi	r26, 0x32	; 50
     1d4:	b0 e0       	ldi	r27, 0x00	; 0
     1d6:	e2 e3       	ldi	r30, 0x32	; 50
     1d8:	f0 e0       	ldi	r31, 0x00	; 0
     1da:	80 81       	ld	r24, Z
     1dc:	8d 7f       	andi	r24, 0xFD	; 253
     1de:	8c 93       	st	X, r24
     1e0:	80 e0       	ldi	r24, 0x00	; 0
     1e2:	90 e0       	ldi	r25, 0x00	; 0
     1e4:	a0 ea       	ldi	r26, 0xA0	; 160
     1e6:	b0 e4       	ldi	r27, 0x40	; 64
     1e8:	89 8f       	std	Y+25, r24	; 0x19
     1ea:	9a 8f       	std	Y+26, r25	; 0x1a
     1ec:	ab 8f       	std	Y+27, r26	; 0x1b
     1ee:	bc 8f       	std	Y+28, r27	; 0x1c
 */
void
_delay_ms(double __ms)
{
	uint16_t __ticks;
	double __tmp = ((F_CPU) / 4e3) * __ms;
     1f0:	20 e0       	ldi	r18, 0x00	; 0
     1f2:	30 e0       	ldi	r19, 0x00	; 0
     1f4:	4a e7       	ldi	r20, 0x7A	; 122
     1f6:	54 e4       	ldi	r21, 0x44	; 68
     1f8:	69 8d       	ldd	r22, Y+25	; 0x19
     1fa:	7a 8d       	ldd	r23, Y+26	; 0x1a
     1fc:	8b 8d       	ldd	r24, Y+27	; 0x1b
     1fe:	9c 8d       	ldd	r25, Y+28	; 0x1c
     200:	0e 94 7c 2a 	call	0x54f8	; 0x54f8 <__mulsf3>
     204:	dc 01       	movw	r26, r24
     206:	cb 01       	movw	r24, r22
     208:	8d 8b       	std	Y+21, r24	; 0x15
     20a:	9e 8b       	std	Y+22, r25	; 0x16
     20c:	af 8b       	std	Y+23, r26	; 0x17
     20e:	b8 8f       	std	Y+24, r27	; 0x18
	if (__tmp < 1.0)
     210:	20 e0       	ldi	r18, 0x00	; 0
     212:	30 e0       	ldi	r19, 0x00	; 0
     214:	40 e8       	ldi	r20, 0x80	; 128
     216:	5f e3       	ldi	r21, 0x3F	; 63
     218:	6d 89       	ldd	r22, Y+21	; 0x15
     21a:	7e 89       	ldd	r23, Y+22	; 0x16
     21c:	8f 89       	ldd	r24, Y+23	; 0x17
     21e:	98 8d       	ldd	r25, Y+24	; 0x18
     220:	0e 94 80 2c 	call	0x5900	; 0x5900 <__ltsf2>
     224:	88 23       	and	r24, r24
     226:	2c f4       	brge	.+10     	; 0x232 <LcdData+0xa6>
		__ticks = 1;
     228:	81 e0       	ldi	r24, 0x01	; 1
     22a:	90 e0       	ldi	r25, 0x00	; 0
     22c:	9c 8b       	std	Y+20, r25	; 0x14
     22e:	8b 8b       	std	Y+19, r24	; 0x13
     230:	3f c0       	rjmp	.+126    	; 0x2b0 <LcdData+0x124>
	else if (__tmp > 65535)
     232:	20 e0       	ldi	r18, 0x00	; 0
     234:	3f ef       	ldi	r19, 0xFF	; 255
     236:	4f e7       	ldi	r20, 0x7F	; 127
     238:	57 e4       	ldi	r21, 0x47	; 71
     23a:	6d 89       	ldd	r22, Y+21	; 0x15
     23c:	7e 89       	ldd	r23, Y+22	; 0x16
     23e:	8f 89       	ldd	r24, Y+23	; 0x17
     240:	98 8d       	ldd	r25, Y+24	; 0x18
     242:	0e 94 20 2c 	call	0x5840	; 0x5840 <__gtsf2>
     246:	18 16       	cp	r1, r24
     248:	4c f5       	brge	.+82     	; 0x29c <LcdData+0x110>
	{
		//	__ticks = requested delay in 1/10 ms
		__ticks = (uint16_t) (__ms * 10.0);
     24a:	20 e0       	ldi	r18, 0x00	; 0
     24c:	30 e0       	ldi	r19, 0x00	; 0
     24e:	40 e2       	ldi	r20, 0x20	; 32
     250:	51 e4       	ldi	r21, 0x41	; 65
     252:	69 8d       	ldd	r22, Y+25	; 0x19
     254:	7a 8d       	ldd	r23, Y+26	; 0x1a
     256:	8b 8d       	ldd	r24, Y+27	; 0x1b
     258:	9c 8d       	ldd	r25, Y+28	; 0x1c
     25a:	0e 94 7c 2a 	call	0x54f8	; 0x54f8 <__mulsf3>
     25e:	dc 01       	movw	r26, r24
     260:	cb 01       	movw	r24, r22
     262:	bc 01       	movw	r22, r24
     264:	cd 01       	movw	r24, r26
     266:	0e 94 a6 28 	call	0x514c	; 0x514c <__fixunssfsi>
     26a:	dc 01       	movw	r26, r24
     26c:	cb 01       	movw	r24, r22
     26e:	9c 8b       	std	Y+20, r25	; 0x14
     270:	8b 8b       	std	Y+19, r24	; 0x13
     272:	0f c0       	rjmp	.+30     	; 0x292 <LcdData+0x106>
     274:	84 e6       	ldi	r24, 0x64	; 100
     276:	90 e0       	ldi	r25, 0x00	; 0
     278:	9a 8b       	std	Y+18, r25	; 0x12
     27a:	89 8b       	std	Y+17, r24	; 0x11
    milliseconds can be achieved.
 */
void
_delay_loop_2(uint16_t __count)
{
	__asm__ volatile (
     27c:	89 89       	ldd	r24, Y+17	; 0x11
     27e:	9a 89       	ldd	r25, Y+18	; 0x12
     280:	01 97       	sbiw	r24, 0x01	; 1
     282:	f1 f7       	brne	.-4      	; 0x280 <LcdData+0xf4>
     284:	9a 8b       	std	Y+18, r25	; 0x12
     286:	89 8b       	std	Y+17, r24	; 0x11
		while(__ticks)
		{
			// wait 1/10 ms
			_delay_loop_2(((F_CPU) / 4e3) / 10);
			__ticks --;
     288:	8b 89       	ldd	r24, Y+19	; 0x13
     28a:	9c 89       	ldd	r25, Y+20	; 0x14
     28c:	01 97       	sbiw	r24, 0x01	; 1
     28e:	9c 8b       	std	Y+20, r25	; 0x14
     290:	8b 8b       	std	Y+19, r24	; 0x13
		__ticks = 1;
	else if (__tmp > 65535)
	{
		//	__ticks = requested delay in 1/10 ms
		__ticks = (uint16_t) (__ms * 10.0);
		while(__ticks)
     292:	8b 89       	ldd	r24, Y+19	; 0x13
     294:	9c 89       	ldd	r25, Y+20	; 0x14
     296:	00 97       	sbiw	r24, 0x00	; 0
     298:	69 f7       	brne	.-38     	; 0x274 <LcdData+0xe8>
     29a:	14 c0       	rjmp	.+40     	; 0x2c4 <LcdData+0x138>
			__ticks --;
		}
		return;
	}
	else
		__ticks = (uint16_t)__tmp;
     29c:	6d 89       	ldd	r22, Y+21	; 0x15
     29e:	7e 89       	ldd	r23, Y+22	; 0x16
     2a0:	8f 89       	ldd	r24, Y+23	; 0x17
     2a2:	98 8d       	ldd	r25, Y+24	; 0x18
     2a4:	0e 94 a6 28 	call	0x514c	; 0x514c <__fixunssfsi>
     2a8:	dc 01       	movw	r26, r24
     2aa:	cb 01       	movw	r24, r22
     2ac:	9c 8b       	std	Y+20, r25	; 0x14
     2ae:	8b 8b       	std	Y+19, r24	; 0x13
     2b0:	8b 89       	ldd	r24, Y+19	; 0x13
     2b2:	9c 89       	ldd	r25, Y+20	; 0x14
     2b4:	98 8b       	std	Y+16, r25	; 0x10
     2b6:	8f 87       	std	Y+15, r24	; 0x0f
     2b8:	8f 85       	ldd	r24, Y+15	; 0x0f
     2ba:	98 89       	ldd	r25, Y+16	; 0x10
     2bc:	01 97       	sbiw	r24, 0x01	; 1
     2be:	f1 f7       	brne	.-4      	; 0x2bc <LcdData+0x130>
     2c0:	98 8b       	std	Y+16, r25	; 0x10
     2c2:	8f 87       	std	Y+15, r24	; 0x0f
		_delay_ms(5);
		OLCD_LINE |= 1<<E_LINE;
     2c4:	a2 e3       	ldi	r26, 0x32	; 50
     2c6:	b0 e0       	ldi	r27, 0x00	; 0
     2c8:	e2 e3       	ldi	r30, 0x32	; 50
     2ca:	f0 e0       	ldi	r31, 0x00	; 0
     2cc:	80 81       	ld	r24, Z
     2ce:	82 60       	ori	r24, 0x02	; 2
     2d0:	8c 93       	st	X, r24
		OLCD_LINE &= ~( 1<<DB7 | 1<<DB6 | 1<<DB5 | 1<<DB4);
     2d2:	a2 e3       	ldi	r26, 0x32	; 50
     2d4:	b0 e0       	ldi	r27, 0x00	; 0
     2d6:	e2 e3       	ldi	r30, 0x32	; 50
     2d8:	f0 e0       	ldi	r31, 0x00	; 0
     2da:	80 81       	ld	r24, Z
     2dc:	8f 70       	andi	r24, 0x0F	; 15
     2de:	8c 93       	st	X, r24
		OLCD_LINE |= ((Data & 0x0F)<<4);
     2e0:	a2 e3       	ldi	r26, 0x32	; 50
     2e2:	b0 e0       	ldi	r27, 0x00	; 0
     2e4:	e2 e3       	ldi	r30, 0x32	; 50
     2e6:	f0 e0       	ldi	r31, 0x00	; 0
     2e8:	80 81       	ld	r24, Z
     2ea:	28 2f       	mov	r18, r24
     2ec:	8d 8d       	ldd	r24, Y+29	; 0x1d
     2ee:	88 2f       	mov	r24, r24
     2f0:	90 e0       	ldi	r25, 0x00	; 0
     2f2:	82 95       	swap	r24
     2f4:	92 95       	swap	r25
     2f6:	90 7f       	andi	r25, 0xF0	; 240
     2f8:	98 27       	eor	r25, r24
     2fa:	80 7f       	andi	r24, 0xF0	; 240
     2fc:	98 27       	eor	r25, r24
     2fe:	82 2b       	or	r24, r18
     300:	8c 93       	st	X, r24
		OLCD_LINE &= ~(1<<E_LINE);
     302:	a2 e3       	ldi	r26, 0x32	; 50
     304:	b0 e0       	ldi	r27, 0x00	; 0
     306:	e2 e3       	ldi	r30, 0x32	; 50
     308:	f0 e0       	ldi	r31, 0x00	; 0
     30a:	80 81       	ld	r24, Z
     30c:	8d 7f       	andi	r24, 0xFD	; 253
     30e:	8c 93       	st	X, r24
     310:	80 e0       	ldi	r24, 0x00	; 0
     312:	90 e0       	ldi	r25, 0x00	; 0
     314:	a0 ea       	ldi	r26, 0xA0	; 160
     316:	b0 e4       	ldi	r27, 0x40	; 64
     318:	8b 87       	std	Y+11, r24	; 0x0b
     31a:	9c 87       	std	Y+12, r25	; 0x0c
     31c:	ad 87       	std	Y+13, r26	; 0x0d
     31e:	be 87       	std	Y+14, r27	; 0x0e
 */
void
_delay_ms(double __ms)
{
	uint16_t __ticks;
	double __tmp = ((F_CPU) / 4e3) * __ms;
     320:	20 e0       	ldi	r18, 0x00	; 0
     322:	30 e0       	ldi	r19, 0x00	; 0
     324:	4a e7       	ldi	r20, 0x7A	; 122
     326:	54 e4       	ldi	r21, 0x44	; 68
     328:	6b 85       	ldd	r22, Y+11	; 0x0b
     32a:	7c 85       	ldd	r23, Y+12	; 0x0c
     32c:	8d 85       	ldd	r24, Y+13	; 0x0d
     32e:	9e 85       	ldd	r25, Y+14	; 0x0e
     330:	0e 94 7c 2a 	call	0x54f8	; 0x54f8 <__mulsf3>
     334:	dc 01       	movw	r26, r24
     336:	cb 01       	movw	r24, r22
     338:	8f 83       	std	Y+7, r24	; 0x07
     33a:	98 87       	std	Y+8, r25	; 0x08
     33c:	a9 87       	std	Y+9, r26	; 0x09
     33e:	ba 87       	std	Y+10, r27	; 0x0a
	if (__tmp < 1.0)
     340:	20 e0       	ldi	r18, 0x00	; 0
     342:	30 e0       	ldi	r19, 0x00	; 0
     344:	40 e8       	ldi	r20, 0x80	; 128
     346:	5f e3       	ldi	r21, 0x3F	; 63
     348:	6f 81       	ldd	r22, Y+7	; 0x07
     34a:	78 85       	ldd	r23, Y+8	; 0x08
     34c:	89 85       	ldd	r24, Y+9	; 0x09
     34e:	9a 85       	ldd	r25, Y+10	; 0x0a
     350:	0e 94 80 2c 	call	0x5900	; 0x5900 <__ltsf2>
     354:	88 23       	and	r24, r24
     356:	2c f4       	brge	.+10     	; 0x362 <LcdData+0x1d6>
		__ticks = 1;
     358:	81 e0       	ldi	r24, 0x01	; 1
     35a:	90 e0       	ldi	r25, 0x00	; 0
     35c:	9e 83       	std	Y+6, r25	; 0x06
     35e:	8d 83       	std	Y+5, r24	; 0x05
     360:	3f c0       	rjmp	.+126    	; 0x3e0 <LcdData+0x254>
	else if (__tmp > 65535)
     362:	20 e0       	ldi	r18, 0x00	; 0
     364:	3f ef       	ldi	r19, 0xFF	; 255
     366:	4f e7       	ldi	r20, 0x7F	; 127
     368:	57 e4       	ldi	r21, 0x47	; 71
     36a:	6f 81       	ldd	r22, Y+7	; 0x07
     36c:	78 85       	ldd	r23, Y+8	; 0x08
     36e:	89 85       	ldd	r24, Y+9	; 0x09
     370:	9a 85       	ldd	r25, Y+10	; 0x0a
     372:	0e 94 20 2c 	call	0x5840	; 0x5840 <__gtsf2>
     376:	18 16       	cp	r1, r24
     378:	4c f5       	brge	.+82     	; 0x3cc <LcdData+0x240>
	{
		//	__ticks = requested delay in 1/10 ms
		__ticks = (uint16_t) (__ms * 10.0);
     37a:	20 e0       	ldi	r18, 0x00	; 0
     37c:	30 e0       	ldi	r19, 0x00	; 0
     37e:	40 e2       	ldi	r20, 0x20	; 32
     380:	51 e4       	ldi	r21, 0x41	; 65
     382:	6b 85       	ldd	r22, Y+11	; 0x0b
     384:	7c 85       	ldd	r23, Y+12	; 0x0c
     386:	8d 85       	ldd	r24, Y+13	; 0x0d
     388:	9e 85       	ldd	r25, Y+14	; 0x0e
     38a:	0e 94 7c 2a 	call	0x54f8	; 0x54f8 <__mulsf3>
     38e:	dc 01       	movw	r26, r24
     390:	cb 01       	movw	r24, r22
     392:	bc 01       	movw	r22, r24
     394:	cd 01       	movw	r24, r26
     396:	0e 94 a6 28 	call	0x514c	; 0x514c <__fixunssfsi>
     39a:	dc 01       	movw	r26, r24
     39c:	cb 01       	movw	r24, r22
     39e:	9e 83       	std	Y+6, r25	; 0x06
     3a0:	8d 83       	std	Y+5, r24	; 0x05
     3a2:	0f c0       	rjmp	.+30     	; 0x3c2 <LcdData+0x236>
     3a4:	84 e6       	ldi	r24, 0x64	; 100
     3a6:	90 e0       	ldi	r25, 0x00	; 0
     3a8:	9c 83       	std	Y+4, r25	; 0x04
     3aa:	8b 83       	std	Y+3, r24	; 0x03
     3ac:	8b 81       	ldd	r24, Y+3	; 0x03
     3ae:	9c 81       	ldd	r25, Y+4	; 0x04
     3b0:	01 97       	sbiw	r24, 0x01	; 1
     3b2:	f1 f7       	brne	.-4      	; 0x3b0 <LcdData+0x224>
     3b4:	9c 83       	std	Y+4, r25	; 0x04
     3b6:	8b 83       	std	Y+3, r24	; 0x03
		while(__ticks)
		{
			// wait 1/10 ms
			_delay_loop_2(((F_CPU) / 4e3) / 10);
			__ticks --;
     3b8:	8d 81       	ldd	r24, Y+5	; 0x05
     3ba:	9e 81       	ldd	r25, Y+6	; 0x06
     3bc:	01 97       	sbiw	r24, 0x01	; 1
     3be:	9e 83       	std	Y+6, r25	; 0x06
     3c0:	8d 83       	std	Y+5, r24	; 0x05
		__ticks = 1;
	else if (__tmp > 65535)
	{
		//	__ticks = requested delay in 1/10 ms
		__ticks = (uint16_t) (__ms * 10.0);
		while(__ticks)
     3c2:	8d 81       	ldd	r24, Y+5	; 0x05
     3c4:	9e 81       	ldd	r25, Y+6	; 0x06
     3c6:	00 97       	sbiw	r24, 0x00	; 0
     3c8:	69 f7       	brne	.-38     	; 0x3a4 <LcdData+0x218>
     3ca:	14 c0       	rjmp	.+40     	; 0x3f4 <LcdData+0x268>
			__ticks --;
		}
		return;
	}
	else
		__ticks = (uint16_t)__tmp;
     3cc:	6f 81       	ldd	r22, Y+7	; 0x07
     3ce:	78 85       	ldd	r23, Y+8	; 0x08
     3d0:	89 85       	ldd	r24, Y+9	; 0x09
     3d2:	9a 85       	ldd	r25, Y+10	; 0x0a
     3d4:	0e 94 a6 28 	call	0x514c	; 0x514c <__fixunssfsi>
     3d8:	dc 01       	movw	r26, r24
     3da:	cb 01       	movw	r24, r22
     3dc:	9e 83       	std	Y+6, r25	; 0x06
     3de:	8d 83       	std	Y+5, r24	; 0x05
     3e0:	8d 81       	ldd	r24, Y+5	; 0x05
     3e2:	9e 81       	ldd	r25, Y+6	; 0x06
     3e4:	9a 83       	std	Y+2, r25	; 0x02
     3e6:	89 83       	std	Y+1, r24	; 0x01
     3e8:	89 81       	ldd	r24, Y+1	; 0x01
     3ea:	9a 81       	ldd	r25, Y+2	; 0x02
     3ec:	01 97       	sbiw	r24, 0x01	; 1
     3ee:	f1 f7       	brne	.-4      	; 0x3ec <LcdData+0x260>
     3f0:	9a 83       	std	Y+2, r25	; 0x02
     3f2:	89 83       	std	Y+1, r24	; 0x01
		_delay_ms(5);
		OLCD_LINE |= 1<<E_LINE;	
     3f4:	a2 e3       	ldi	r26, 0x32	; 50
     3f6:	b0 e0       	ldi	r27, 0x00	; 0
     3f8:	e2 e3       	ldi	r30, 0x32	; 50
     3fa:	f0 e0       	ldi	r31, 0x00	; 0
     3fc:	80 81       	ld	r24, Z
     3fe:	82 60       	ori	r24, 0x02	; 2
     400:	8c 93       	st	X, r24
 	} 
     402:	6d 96       	adiw	r28, 0x1d	; 29
     404:	0f b6       	in	r0, 0x3f	; 63
     406:	f8 94       	cli
     408:	de bf       	out	0x3e, r29	; 62
     40a:	0f be       	out	0x3f, r0	; 63
     40c:	cd bf       	out	0x3d, r28	; 61
     40e:	cf 91       	pop	r28
     410:	df 91       	pop	r29
     412:	08 95       	ret

00000414 <LcdInstr>:

//*****************************************************************************

void LcdInstr(unsigned char Data)
	{
     414:	df 93       	push	r29
     416:	cf 93       	push	r28
     418:	cd b7       	in	r28, 0x3d	; 61
     41a:	de b7       	in	r29, 0x3e	; 62
     41c:	69 97       	sbiw	r28, 0x19	; 25
     41e:	0f b6       	in	r0, 0x3f	; 63
     420:	f8 94       	cli
     422:	de bf       	out	0x3e, r29	; 62
     424:	0f be       	out	0x3f, r0	; 63
     426:	cd bf       	out	0x3d, r28	; 61
     428:	89 8f       	std	Y+25, r24	; 0x19
		OLCD_LINE &= ~(1<<RS_LINE);					// Linia RS w stanie 0 czyli instr.
     42a:	a2 e3       	ldi	r26, 0x32	; 50
     42c:	b0 e0       	ldi	r27, 0x00	; 0
     42e:	e2 e3       	ldi	r30, 0x32	; 50
     430:	f0 e0       	ldi	r31, 0x00	; 0
     432:	80 81       	ld	r24, Z
     434:	8e 7f       	andi	r24, 0xFE	; 254
     436:	8c 93       	st	X, r24
		LcdData(Data);							
     438:	89 8d       	ldd	r24, Y+25	; 0x19
     43a:	0e 94 c6 00 	call	0x18c	; 0x18c <LcdData>
		OLCD_LINE |= 1<<RS_LINE;					// Standardowo przyjmuje ,ze idzie
     43e:	a2 e3       	ldi	r26, 0x32	; 50
     440:	b0 e0       	ldi	r27, 0x00	; 0
     442:	e2 e3       	ldi	r30, 0x32	; 50
     444:	f0 e0       	ldi	r31, 0x00	; 0
     446:	80 81       	ld	r24, Z
     448:	81 60       	ori	r24, 0x01	; 1
     44a:	8c 93       	st	X, r24
     44c:	80 e0       	ldi	r24, 0x00	; 0
     44e:	90 e0       	ldi	r25, 0x00	; 0
     450:	a0 e2       	ldi	r26, 0x20	; 32
     452:	b2 e4       	ldi	r27, 0x42	; 66
     454:	8d 8b       	std	Y+21, r24	; 0x15
     456:	9e 8b       	std	Y+22, r25	; 0x16
     458:	af 8b       	std	Y+23, r26	; 0x17
     45a:	b8 8f       	std	Y+24, r27	; 0x18
 */
void
_delay_us(double __us)
{
	uint8_t __ticks;
	double __tmp = ((F_CPU) / 3e6) * __us;
     45c:	2b ea       	ldi	r18, 0xAB	; 171
     45e:	3a ea       	ldi	r19, 0xAA	; 170
     460:	4a ea       	ldi	r20, 0xAA	; 170
     462:	5f e3       	ldi	r21, 0x3F	; 63
     464:	6d 89       	ldd	r22, Y+21	; 0x15
     466:	7e 89       	ldd	r23, Y+22	; 0x16
     468:	8f 89       	ldd	r24, Y+23	; 0x17
     46a:	98 8d       	ldd	r25, Y+24	; 0x18
     46c:	0e 94 7c 2a 	call	0x54f8	; 0x54f8 <__mulsf3>
     470:	dc 01       	movw	r26, r24
     472:	cb 01       	movw	r24, r22
     474:	89 8b       	std	Y+17, r24	; 0x11
     476:	9a 8b       	std	Y+18, r25	; 0x12
     478:	ab 8b       	std	Y+19, r26	; 0x13
     47a:	bc 8b       	std	Y+20, r27	; 0x14
	if (__tmp < 1.0)
     47c:	20 e0       	ldi	r18, 0x00	; 0
     47e:	30 e0       	ldi	r19, 0x00	; 0
     480:	40 e8       	ldi	r20, 0x80	; 128
     482:	5f e3       	ldi	r21, 0x3F	; 63
     484:	69 89       	ldd	r22, Y+17	; 0x11
     486:	7a 89       	ldd	r23, Y+18	; 0x12
     488:	8b 89       	ldd	r24, Y+19	; 0x13
     48a:	9c 89       	ldd	r25, Y+20	; 0x14
     48c:	0e 94 80 2c 	call	0x5900	; 0x5900 <__ltsf2>
     490:	88 23       	and	r24, r24
     492:	1c f4       	brge	.+6      	; 0x49a <LcdInstr+0x86>
		__ticks = 1;
     494:	81 e0       	ldi	r24, 0x01	; 1
     496:	88 8b       	std	Y+16, r24	; 0x10
     498:	91 c0       	rjmp	.+290    	; 0x5bc <LcdInstr+0x1a8>
	else if (__tmp > 255)
     49a:	20 e0       	ldi	r18, 0x00	; 0
     49c:	30 e0       	ldi	r19, 0x00	; 0
     49e:	4f e7       	ldi	r20, 0x7F	; 127
     4a0:	53 e4       	ldi	r21, 0x43	; 67
     4a2:	69 89       	ldd	r22, Y+17	; 0x11
     4a4:	7a 89       	ldd	r23, Y+18	; 0x12
     4a6:	8b 89       	ldd	r24, Y+19	; 0x13
     4a8:	9c 89       	ldd	r25, Y+20	; 0x14
     4aa:	0e 94 20 2c 	call	0x5840	; 0x5840 <__gtsf2>
     4ae:	18 16       	cp	r1, r24
     4b0:	0c f0       	brlt	.+2      	; 0x4b4 <LcdInstr+0xa0>
     4b2:	7b c0       	rjmp	.+246    	; 0x5aa <LcdInstr+0x196>
	{
		_delay_ms(__us / 1000.0);
     4b4:	20 e0       	ldi	r18, 0x00	; 0
     4b6:	30 e0       	ldi	r19, 0x00	; 0
     4b8:	4a e7       	ldi	r20, 0x7A	; 122
     4ba:	54 e4       	ldi	r21, 0x44	; 68
     4bc:	6d 89       	ldd	r22, Y+21	; 0x15
     4be:	7e 89       	ldd	r23, Y+22	; 0x16
     4c0:	8f 89       	ldd	r24, Y+23	; 0x17
     4c2:	98 8d       	ldd	r25, Y+24	; 0x18
     4c4:	0e 94 76 2b 	call	0x56ec	; 0x56ec <__divsf3>
     4c8:	dc 01       	movw	r26, r24
     4ca:	cb 01       	movw	r24, r22
     4cc:	8c 87       	std	Y+12, r24	; 0x0c
     4ce:	9d 87       	std	Y+13, r25	; 0x0d
     4d0:	ae 87       	std	Y+14, r26	; 0x0e
     4d2:	bf 87       	std	Y+15, r27	; 0x0f
 */
void
_delay_ms(double __ms)
{
	uint16_t __ticks;
	double __tmp = ((F_CPU) / 4e3) * __ms;
     4d4:	20 e0       	ldi	r18, 0x00	; 0
     4d6:	30 e0       	ldi	r19, 0x00	; 0
     4d8:	4a e7       	ldi	r20, 0x7A	; 122
     4da:	54 e4       	ldi	r21, 0x44	; 68
     4dc:	6c 85       	ldd	r22, Y+12	; 0x0c
     4de:	7d 85       	ldd	r23, Y+13	; 0x0d
     4e0:	8e 85       	ldd	r24, Y+14	; 0x0e
     4e2:	9f 85       	ldd	r25, Y+15	; 0x0f
     4e4:	0e 94 7c 2a 	call	0x54f8	; 0x54f8 <__mulsf3>
     4e8:	dc 01       	movw	r26, r24
     4ea:	cb 01       	movw	r24, r22
     4ec:	88 87       	std	Y+8, r24	; 0x08
     4ee:	99 87       	std	Y+9, r25	; 0x09
     4f0:	aa 87       	std	Y+10, r26	; 0x0a
     4f2:	bb 87       	std	Y+11, r27	; 0x0b
	if (__tmp < 1.0)
     4f4:	20 e0       	ldi	r18, 0x00	; 0
     4f6:	30 e0       	ldi	r19, 0x00	; 0
     4f8:	40 e8       	ldi	r20, 0x80	; 128
     4fa:	5f e3       	ldi	r21, 0x3F	; 63
     4fc:	68 85       	ldd	r22, Y+8	; 0x08
     4fe:	79 85       	ldd	r23, Y+9	; 0x09
     500:	8a 85       	ldd	r24, Y+10	; 0x0a
     502:	9b 85       	ldd	r25, Y+11	; 0x0b
     504:	0e 94 80 2c 	call	0x5900	; 0x5900 <__ltsf2>
     508:	88 23       	and	r24, r24
     50a:	2c f4       	brge	.+10     	; 0x516 <LcdInstr+0x102>
		__ticks = 1;
     50c:	81 e0       	ldi	r24, 0x01	; 1
     50e:	90 e0       	ldi	r25, 0x00	; 0
     510:	9f 83       	std	Y+7, r25	; 0x07
     512:	8e 83       	std	Y+6, r24	; 0x06
     514:	3f c0       	rjmp	.+126    	; 0x594 <LcdInstr+0x180>
	else if (__tmp > 65535)
     516:	20 e0       	ldi	r18, 0x00	; 0
     518:	3f ef       	ldi	r19, 0xFF	; 255
     51a:	4f e7       	ldi	r20, 0x7F	; 127
     51c:	57 e4       	ldi	r21, 0x47	; 71
     51e:	68 85       	ldd	r22, Y+8	; 0x08
     520:	79 85       	ldd	r23, Y+9	; 0x09
     522:	8a 85       	ldd	r24, Y+10	; 0x0a
     524:	9b 85       	ldd	r25, Y+11	; 0x0b
     526:	0e 94 20 2c 	call	0x5840	; 0x5840 <__gtsf2>
     52a:	18 16       	cp	r1, r24
     52c:	4c f5       	brge	.+82     	; 0x580 <LcdInstr+0x16c>
	{
		//	__ticks = requested delay in 1/10 ms
		__ticks = (uint16_t) (__ms * 10.0);
     52e:	20 e0       	ldi	r18, 0x00	; 0
     530:	30 e0       	ldi	r19, 0x00	; 0
     532:	40 e2       	ldi	r20, 0x20	; 32
     534:	51 e4       	ldi	r21, 0x41	; 65
     536:	6c 85       	ldd	r22, Y+12	; 0x0c
     538:	7d 85       	ldd	r23, Y+13	; 0x0d
     53a:	8e 85       	ldd	r24, Y+14	; 0x0e
     53c:	9f 85       	ldd	r25, Y+15	; 0x0f
     53e:	0e 94 7c 2a 	call	0x54f8	; 0x54f8 <__mulsf3>
     542:	dc 01       	movw	r26, r24
     544:	cb 01       	movw	r24, r22
     546:	bc 01       	movw	r22, r24
     548:	cd 01       	movw	r24, r26
     54a:	0e 94 a6 28 	call	0x514c	; 0x514c <__fixunssfsi>
     54e:	dc 01       	movw	r26, r24
     550:	cb 01       	movw	r24, r22
     552:	9f 83       	std	Y+7, r25	; 0x07
     554:	8e 83       	std	Y+6, r24	; 0x06
     556:	0f c0       	rjmp	.+30     	; 0x576 <LcdInstr+0x162>
     558:	84 e6       	ldi	r24, 0x64	; 100
     55a:	90 e0       	ldi	r25, 0x00	; 0
     55c:	9d 83       	std	Y+5, r25	; 0x05
     55e:	8c 83       	std	Y+4, r24	; 0x04
     560:	8c 81       	ldd	r24, Y+4	; 0x04
     562:	9d 81       	ldd	r25, Y+5	; 0x05
     564:	01 97       	sbiw	r24, 0x01	; 1
     566:	f1 f7       	brne	.-4      	; 0x564 <LcdInstr+0x150>
     568:	9d 83       	std	Y+5, r25	; 0x05
     56a:	8c 83       	std	Y+4, r24	; 0x04
		while(__ticks)
		{
			// wait 1/10 ms
			_delay_loop_2(((F_CPU) / 4e3) / 10);
			__ticks --;
     56c:	8e 81       	ldd	r24, Y+6	; 0x06
     56e:	9f 81       	ldd	r25, Y+7	; 0x07
     570:	01 97       	sbiw	r24, 0x01	; 1
     572:	9f 83       	std	Y+7, r25	; 0x07
     574:	8e 83       	std	Y+6, r24	; 0x06
		__ticks = 1;
	else if (__tmp > 65535)
	{
		//	__ticks = requested delay in 1/10 ms
		__ticks = (uint16_t) (__ms * 10.0);
		while(__ticks)
     576:	8e 81       	ldd	r24, Y+6	; 0x06
     578:	9f 81       	ldd	r25, Y+7	; 0x07
     57a:	00 97       	sbiw	r24, 0x00	; 0
     57c:	69 f7       	brne	.-38     	; 0x558 <LcdInstr+0x144>
     57e:	24 c0       	rjmp	.+72     	; 0x5c8 <LcdInstr+0x1b4>
			__ticks --;
		}
		return;
	}
	else
		__ticks = (uint16_t)__tmp;
     580:	68 85       	ldd	r22, Y+8	; 0x08
     582:	79 85       	ldd	r23, Y+9	; 0x09
     584:	8a 85       	ldd	r24, Y+10	; 0x0a
     586:	9b 85       	ldd	r25, Y+11	; 0x0b
     588:	0e 94 a6 28 	call	0x514c	; 0x514c <__fixunssfsi>
     58c:	dc 01       	movw	r26, r24
     58e:	cb 01       	movw	r24, r22
     590:	9f 83       	std	Y+7, r25	; 0x07
     592:	8e 83       	std	Y+6, r24	; 0x06
     594:	8e 81       	ldd	r24, Y+6	; 0x06
     596:	9f 81       	ldd	r25, Y+7	; 0x07
     598:	9b 83       	std	Y+3, r25	; 0x03
     59a:	8a 83       	std	Y+2, r24	; 0x02
     59c:	8a 81       	ldd	r24, Y+2	; 0x02
     59e:	9b 81       	ldd	r25, Y+3	; 0x03
     5a0:	01 97       	sbiw	r24, 0x01	; 1
     5a2:	f1 f7       	brne	.-4      	; 0x5a0 <LcdInstr+0x18c>
     5a4:	9b 83       	std	Y+3, r25	; 0x03
     5a6:	8a 83       	std	Y+2, r24	; 0x02
     5a8:	0f c0       	rjmp	.+30     	; 0x5c8 <LcdInstr+0x1b4>
	{
		_delay_ms(__us / 1000.0);
		return;
	}
	else
		__ticks = (uint8_t)__tmp;
     5aa:	69 89       	ldd	r22, Y+17	; 0x11
     5ac:	7a 89       	ldd	r23, Y+18	; 0x12
     5ae:	8b 89       	ldd	r24, Y+19	; 0x13
     5b0:	9c 89       	ldd	r25, Y+20	; 0x14
     5b2:	0e 94 a6 28 	call	0x514c	; 0x514c <__fixunssfsi>
     5b6:	dc 01       	movw	r26, r24
     5b8:	cb 01       	movw	r24, r22
     5ba:	88 8b       	std	Y+16, r24	; 0x10
     5bc:	88 89       	ldd	r24, Y+16	; 0x10
     5be:	89 83       	std	Y+1, r24	; 0x01
    can be achieved.
*/
void
_delay_loop_1(uint8_t __count)
{
	__asm__ volatile (
     5c0:	89 81       	ldd	r24, Y+1	; 0x01
     5c2:	8a 95       	dec	r24
     5c4:	f1 f7       	brne	.-4      	; 0x5c2 <LcdInstr+0x1ae>
     5c6:	89 83       	std	Y+1, r24	; 0x01
		_delay_us(40);								// dana nie intsrukcja wiec znow stan wysoki
	}
     5c8:	69 96       	adiw	r28, 0x19	; 25
     5ca:	0f b6       	in	r0, 0x3f	; 63
     5cc:	f8 94       	cli
     5ce:	de bf       	out	0x3e, r29	; 62
     5d0:	0f be       	out	0x3f, r0	; 63
     5d2:	cd bf       	out	0x3d, r28	; 61
     5d4:	cf 91       	pop	r28
     5d6:	df 91       	pop	r29
     5d8:	08 95       	ret

000005da <LcdInitial>:

//*****************************************************************************

void LcdInitial()
	{
     5da:	df 93       	push	r29
     5dc:	cf 93       	push	r28
     5de:	cd b7       	in	r28, 0x3d	; 61
     5e0:	de b7       	in	r29, 0x3e	; 62
     5e2:	ea 97       	sbiw	r28, 0x3a	; 58
     5e4:	0f b6       	in	r0, 0x3f	; 63
     5e6:	f8 94       	cli
     5e8:	de bf       	out	0x3e, r29	; 62
     5ea:	0f be       	out	0x3f, r0	; 63
     5ec:	cd bf       	out	0x3d, r28	; 61
		KLCD_LINE |=   0b11110011;
     5ee:	a1 e3       	ldi	r26, 0x31	; 49
     5f0:	b0 e0       	ldi	r27, 0x00	; 0
     5f2:	e1 e3       	ldi	r30, 0x31	; 49
     5f4:	f0 e0       	ldi	r31, 0x00	; 0
     5f6:	80 81       	ld	r24, Z
     5f8:	83 6f       	ori	r24, 0xF3	; 243
     5fa:	8c 93       	st	X, r24
		OLCD_LINE &= ~(0b11110011); 
     5fc:	a2 e3       	ldi	r26, 0x32	; 50
     5fe:	b0 e0       	ldi	r27, 0x00	; 0
     600:	e2 e3       	ldi	r30, 0x32	; 50
     602:	f0 e0       	ldi	r31, 0x00	; 0
     604:	80 81       	ld	r24, Z
     606:	8c 70       	andi	r24, 0x0C	; 12
     608:	8c 93       	st	X, r24
		OLCD_LINE |= 1<<E_LINE;	
     60a:	a2 e3       	ldi	r26, 0x32	; 50
     60c:	b0 e0       	ldi	r27, 0x00	; 0
     60e:	e2 e3       	ldi	r30, 0x32	; 50
     610:	f0 e0       	ldi	r31, 0x00	; 0
     612:	80 81       	ld	r24, Z
     614:	82 60       	ori	r24, 0x02	; 2
     616:	8c 93       	st	X, r24
		OLCD_LINE &= ~(1<<RS_LINE);	
     618:	a2 e3       	ldi	r26, 0x32	; 50
     61a:	b0 e0       	ldi	r27, 0x00	; 0
     61c:	e2 e3       	ldi	r30, 0x32	; 50
     61e:	f0 e0       	ldi	r31, 0x00	; 0
     620:	80 81       	ld	r24, Z
     622:	8e 7f       	andi	r24, 0xFE	; 254
     624:	8c 93       	st	X, r24
		OLCD_LINE &= ~( 1<<DB7 | 1<<DB6 | 1<<DB5 | 1<<DB4);
     626:	a2 e3       	ldi	r26, 0x32	; 50
     628:	b0 e0       	ldi	r27, 0x00	; 0
     62a:	e2 e3       	ldi	r30, 0x32	; 50
     62c:	f0 e0       	ldi	r31, 0x00	; 0
     62e:	80 81       	ld	r24, Z
     630:	8f 70       	andi	r24, 0x0F	; 15
     632:	8c 93       	st	X, r24
		OLCD_LINE |= 1<<DB4 | 1<<DB5;
     634:	a2 e3       	ldi	r26, 0x32	; 50
     636:	b0 e0       	ldi	r27, 0x00	; 0
     638:	e2 e3       	ldi	r30, 0x32	; 50
     63a:	f0 e0       	ldi	r31, 0x00	; 0
     63c:	80 81       	ld	r24, Z
     63e:	80 63       	ori	r24, 0x30	; 48
     640:	8c 93       	st	X, r24
     642:	80 e0       	ldi	r24, 0x00	; 0
     644:	90 e0       	ldi	r25, 0x00	; 0
     646:	a0 e2       	ldi	r26, 0x20	; 32
     648:	b2 e4       	ldi	r27, 0x42	; 66
     64a:	8d ab       	std	Y+53, r24	; 0x35
     64c:	9e ab       	std	Y+54, r25	; 0x36
     64e:	af ab       	std	Y+55, r26	; 0x37
     650:	b8 af       	std	Y+56, r27	; 0x38
 */
void
_delay_ms(double __ms)
{
	uint16_t __ticks;
	double __tmp = ((F_CPU) / 4e3) * __ms;
     652:	20 e0       	ldi	r18, 0x00	; 0
     654:	30 e0       	ldi	r19, 0x00	; 0
     656:	4a e7       	ldi	r20, 0x7A	; 122
     658:	54 e4       	ldi	r21, 0x44	; 68
     65a:	6d a9       	ldd	r22, Y+53	; 0x35
     65c:	7e a9       	ldd	r23, Y+54	; 0x36
     65e:	8f a9       	ldd	r24, Y+55	; 0x37
     660:	98 ad       	ldd	r25, Y+56	; 0x38
     662:	0e 94 7c 2a 	call	0x54f8	; 0x54f8 <__mulsf3>
     666:	dc 01       	movw	r26, r24
     668:	cb 01       	movw	r24, r22
     66a:	89 ab       	std	Y+49, r24	; 0x31
     66c:	9a ab       	std	Y+50, r25	; 0x32
     66e:	ab ab       	std	Y+51, r26	; 0x33
     670:	bc ab       	std	Y+52, r27	; 0x34
	if (__tmp < 1.0)
     672:	20 e0       	ldi	r18, 0x00	; 0
     674:	30 e0       	ldi	r19, 0x00	; 0
     676:	40 e8       	ldi	r20, 0x80	; 128
     678:	5f e3       	ldi	r21, 0x3F	; 63
     67a:	69 a9       	ldd	r22, Y+49	; 0x31
     67c:	7a a9       	ldd	r23, Y+50	; 0x32
     67e:	8b a9       	ldd	r24, Y+51	; 0x33
     680:	9c a9       	ldd	r25, Y+52	; 0x34
     682:	0e 94 80 2c 	call	0x5900	; 0x5900 <__ltsf2>
     686:	88 23       	and	r24, r24
     688:	2c f4       	brge	.+10     	; 0x694 <LcdInitial+0xba>
		__ticks = 1;
     68a:	81 e0       	ldi	r24, 0x01	; 1
     68c:	90 e0       	ldi	r25, 0x00	; 0
     68e:	98 ab       	std	Y+48, r25	; 0x30
     690:	8f a7       	std	Y+47, r24	; 0x2f
     692:	3f c0       	rjmp	.+126    	; 0x712 <LcdInitial+0x138>
	else if (__tmp > 65535)
     694:	20 e0       	ldi	r18, 0x00	; 0
     696:	3f ef       	ldi	r19, 0xFF	; 255
     698:	4f e7       	ldi	r20, 0x7F	; 127
     69a:	57 e4       	ldi	r21, 0x47	; 71
     69c:	69 a9       	ldd	r22, Y+49	; 0x31
     69e:	7a a9       	ldd	r23, Y+50	; 0x32
     6a0:	8b a9       	ldd	r24, Y+51	; 0x33
     6a2:	9c a9       	ldd	r25, Y+52	; 0x34
     6a4:	0e 94 20 2c 	call	0x5840	; 0x5840 <__gtsf2>
     6a8:	18 16       	cp	r1, r24
     6aa:	4c f5       	brge	.+82     	; 0x6fe <LcdInitial+0x124>
	{
		//	__ticks = requested delay in 1/10 ms
		__ticks = (uint16_t) (__ms * 10.0);
     6ac:	20 e0       	ldi	r18, 0x00	; 0
     6ae:	30 e0       	ldi	r19, 0x00	; 0
     6b0:	40 e2       	ldi	r20, 0x20	; 32
     6b2:	51 e4       	ldi	r21, 0x41	; 65
     6b4:	6d a9       	ldd	r22, Y+53	; 0x35
     6b6:	7e a9       	ldd	r23, Y+54	; 0x36
     6b8:	8f a9       	ldd	r24, Y+55	; 0x37
     6ba:	98 ad       	ldd	r25, Y+56	; 0x38
     6bc:	0e 94 7c 2a 	call	0x54f8	; 0x54f8 <__mulsf3>
     6c0:	dc 01       	movw	r26, r24
     6c2:	cb 01       	movw	r24, r22
     6c4:	bc 01       	movw	r22, r24
     6c6:	cd 01       	movw	r24, r26
     6c8:	0e 94 a6 28 	call	0x514c	; 0x514c <__fixunssfsi>
     6cc:	dc 01       	movw	r26, r24
     6ce:	cb 01       	movw	r24, r22
     6d0:	98 ab       	std	Y+48, r25	; 0x30
     6d2:	8f a7       	std	Y+47, r24	; 0x2f
     6d4:	0f c0       	rjmp	.+30     	; 0x6f4 <LcdInitial+0x11a>
     6d6:	84 e6       	ldi	r24, 0x64	; 100
     6d8:	90 e0       	ldi	r25, 0x00	; 0
     6da:	9e a7       	std	Y+46, r25	; 0x2e
     6dc:	8d a7       	std	Y+45, r24	; 0x2d
    milliseconds can be achieved.
 */
void
_delay_loop_2(uint16_t __count)
{
	__asm__ volatile (
     6de:	8d a5       	ldd	r24, Y+45	; 0x2d
     6e0:	9e a5       	ldd	r25, Y+46	; 0x2e
     6e2:	01 97       	sbiw	r24, 0x01	; 1
     6e4:	f1 f7       	brne	.-4      	; 0x6e2 <LcdInitial+0x108>
     6e6:	9e a7       	std	Y+46, r25	; 0x2e
     6e8:	8d a7       	std	Y+45, r24	; 0x2d
		while(__ticks)
		{
			// wait 1/10 ms
			_delay_loop_2(((F_CPU) / 4e3) / 10);
			__ticks --;
     6ea:	8f a5       	ldd	r24, Y+47	; 0x2f
     6ec:	98 a9       	ldd	r25, Y+48	; 0x30
     6ee:	01 97       	sbiw	r24, 0x01	; 1
     6f0:	98 ab       	std	Y+48, r25	; 0x30
     6f2:	8f a7       	std	Y+47, r24	; 0x2f
		__ticks = 1;
	else if (__tmp > 65535)
	{
		//	__ticks = requested delay in 1/10 ms
		__ticks = (uint16_t) (__ms * 10.0);
		while(__ticks)
     6f4:	8f a5       	ldd	r24, Y+47	; 0x2f
     6f6:	98 a9       	ldd	r25, Y+48	; 0x30
     6f8:	00 97       	sbiw	r24, 0x00	; 0
     6fa:	69 f7       	brne	.-38     	; 0x6d6 <LcdInitial+0xfc>
     6fc:	14 c0       	rjmp	.+40     	; 0x726 <LcdInitial+0x14c>
			__ticks --;
		}
		return;
	}
	else
		__ticks = (uint16_t)__tmp;
     6fe:	69 a9       	ldd	r22, Y+49	; 0x31
     700:	7a a9       	ldd	r23, Y+50	; 0x32
     702:	8b a9       	ldd	r24, Y+51	; 0x33
     704:	9c a9       	ldd	r25, Y+52	; 0x34
     706:	0e 94 a6 28 	call	0x514c	; 0x514c <__fixunssfsi>
     70a:	dc 01       	movw	r26, r24
     70c:	cb 01       	movw	r24, r22
     70e:	98 ab       	std	Y+48, r25	; 0x30
     710:	8f a7       	std	Y+47, r24	; 0x2f
     712:	8f a5       	ldd	r24, Y+47	; 0x2f
     714:	98 a9       	ldd	r25, Y+48	; 0x30
     716:	9c a7       	std	Y+44, r25	; 0x2c
     718:	8b a7       	std	Y+43, r24	; 0x2b
     71a:	8b a5       	ldd	r24, Y+43	; 0x2b
     71c:	9c a5       	ldd	r25, Y+44	; 0x2c
     71e:	01 97       	sbiw	r24, 0x01	; 1
     720:	f1 f7       	brne	.-4      	; 0x71e <LcdInitial+0x144>
     722:	9c a7       	std	Y+44, r25	; 0x2c
     724:	8b a7       	std	Y+43, r24	; 0x2b
		_delay_ms(40);									// petla przesylajaca 3 razy
		for(int i = 0 ; i <3 ;i++)						// wartosc 0x30
     726:	1a ae       	std	Y+58, r1	; 0x3a
     728:	19 ae       	std	Y+57, r1	; 0x39
     72a:	87 c0       	rjmp	.+270    	; 0x83a <LcdInitial+0x260>
			{
			asm("nop");
     72c:	00 00       	nop
			asm("nop");
     72e:	00 00       	nop
			OLCD_LINE &= ~(1<<E_LINE);	
     730:	a2 e3       	ldi	r26, 0x32	; 50
     732:	b0 e0       	ldi	r27, 0x00	; 0
     734:	e2 e3       	ldi	r30, 0x32	; 50
     736:	f0 e0       	ldi	r31, 0x00	; 0
     738:	80 81       	ld	r24, Z
     73a:	8d 7f       	andi	r24, 0xFD	; 253
     73c:	8c 93       	st	X, r24
     73e:	80 e0       	ldi	r24, 0x00	; 0
     740:	90 e0       	ldi	r25, 0x00	; 0
     742:	a0 ea       	ldi	r26, 0xA0	; 160
     744:	b0 e4       	ldi	r27, 0x40	; 64
     746:	8f a3       	std	Y+39, r24	; 0x27
     748:	98 a7       	std	Y+40, r25	; 0x28
     74a:	a9 a7       	std	Y+41, r26	; 0x29
     74c:	ba a7       	std	Y+42, r27	; 0x2a
 */
void
_delay_ms(double __ms)
{
	uint16_t __ticks;
	double __tmp = ((F_CPU) / 4e3) * __ms;
     74e:	20 e0       	ldi	r18, 0x00	; 0
     750:	30 e0       	ldi	r19, 0x00	; 0
     752:	4a e7       	ldi	r20, 0x7A	; 122
     754:	54 e4       	ldi	r21, 0x44	; 68
     756:	6f a1       	ldd	r22, Y+39	; 0x27
     758:	78 a5       	ldd	r23, Y+40	; 0x28
     75a:	89 a5       	ldd	r24, Y+41	; 0x29
     75c:	9a a5       	ldd	r25, Y+42	; 0x2a
     75e:	0e 94 7c 2a 	call	0x54f8	; 0x54f8 <__mulsf3>
     762:	dc 01       	movw	r26, r24
     764:	cb 01       	movw	r24, r22
     766:	8b a3       	std	Y+35, r24	; 0x23
     768:	9c a3       	std	Y+36, r25	; 0x24
     76a:	ad a3       	std	Y+37, r26	; 0x25
     76c:	be a3       	std	Y+38, r27	; 0x26
	if (__tmp < 1.0)
     76e:	20 e0       	ldi	r18, 0x00	; 0
     770:	30 e0       	ldi	r19, 0x00	; 0
     772:	40 e8       	ldi	r20, 0x80	; 128
     774:	5f e3       	ldi	r21, 0x3F	; 63
     776:	6b a1       	ldd	r22, Y+35	; 0x23
     778:	7c a1       	ldd	r23, Y+36	; 0x24
     77a:	8d a1       	ldd	r24, Y+37	; 0x25
     77c:	9e a1       	ldd	r25, Y+38	; 0x26
     77e:	0e 94 80 2c 	call	0x5900	; 0x5900 <__ltsf2>
     782:	88 23       	and	r24, r24
     784:	2c f4       	brge	.+10     	; 0x790 <LcdInitial+0x1b6>
		__ticks = 1;
     786:	81 e0       	ldi	r24, 0x01	; 1
     788:	90 e0       	ldi	r25, 0x00	; 0
     78a:	9a a3       	std	Y+34, r25	; 0x22
     78c:	89 a3       	std	Y+33, r24	; 0x21
     78e:	3f c0       	rjmp	.+126    	; 0x80e <LcdInitial+0x234>
	else if (__tmp > 65535)
     790:	20 e0       	ldi	r18, 0x00	; 0
     792:	3f ef       	ldi	r19, 0xFF	; 255
     794:	4f e7       	ldi	r20, 0x7F	; 127
     796:	57 e4       	ldi	r21, 0x47	; 71
     798:	6b a1       	ldd	r22, Y+35	; 0x23
     79a:	7c a1       	ldd	r23, Y+36	; 0x24
     79c:	8d a1       	ldd	r24, Y+37	; 0x25
     79e:	9e a1       	ldd	r25, Y+38	; 0x26
     7a0:	0e 94 20 2c 	call	0x5840	; 0x5840 <__gtsf2>
     7a4:	18 16       	cp	r1, r24
     7a6:	4c f5       	brge	.+82     	; 0x7fa <LcdInitial+0x220>
	{
		//	__ticks = requested delay in 1/10 ms
		__ticks = (uint16_t) (__ms * 10.0);
     7a8:	20 e0       	ldi	r18, 0x00	; 0
     7aa:	30 e0       	ldi	r19, 0x00	; 0
     7ac:	40 e2       	ldi	r20, 0x20	; 32
     7ae:	51 e4       	ldi	r21, 0x41	; 65
     7b0:	6f a1       	ldd	r22, Y+39	; 0x27
     7b2:	78 a5       	ldd	r23, Y+40	; 0x28
     7b4:	89 a5       	ldd	r24, Y+41	; 0x29
     7b6:	9a a5       	ldd	r25, Y+42	; 0x2a
     7b8:	0e 94 7c 2a 	call	0x54f8	; 0x54f8 <__mulsf3>
     7bc:	dc 01       	movw	r26, r24
     7be:	cb 01       	movw	r24, r22
     7c0:	bc 01       	movw	r22, r24
     7c2:	cd 01       	movw	r24, r26
     7c4:	0e 94 a6 28 	call	0x514c	; 0x514c <__fixunssfsi>
     7c8:	dc 01       	movw	r26, r24
     7ca:	cb 01       	movw	r24, r22
     7cc:	9a a3       	std	Y+34, r25	; 0x22
     7ce:	89 a3       	std	Y+33, r24	; 0x21
     7d0:	0f c0       	rjmp	.+30     	; 0x7f0 <LcdInitial+0x216>
     7d2:	84 e6       	ldi	r24, 0x64	; 100
     7d4:	90 e0       	ldi	r25, 0x00	; 0
     7d6:	98 a3       	std	Y+32, r25	; 0x20
     7d8:	8f 8f       	std	Y+31, r24	; 0x1f
     7da:	8f 8d       	ldd	r24, Y+31	; 0x1f
     7dc:	98 a1       	ldd	r25, Y+32	; 0x20
     7de:	01 97       	sbiw	r24, 0x01	; 1
     7e0:	f1 f7       	brne	.-4      	; 0x7de <LcdInitial+0x204>
     7e2:	98 a3       	std	Y+32, r25	; 0x20
     7e4:	8f 8f       	std	Y+31, r24	; 0x1f
		while(__ticks)
		{
			// wait 1/10 ms
			_delay_loop_2(((F_CPU) / 4e3) / 10);
			__ticks --;
     7e6:	89 a1       	ldd	r24, Y+33	; 0x21
     7e8:	9a a1       	ldd	r25, Y+34	; 0x22
     7ea:	01 97       	sbiw	r24, 0x01	; 1
     7ec:	9a a3       	std	Y+34, r25	; 0x22
     7ee:	89 a3       	std	Y+33, r24	; 0x21
		__ticks = 1;
	else if (__tmp > 65535)
	{
		//	__ticks = requested delay in 1/10 ms
		__ticks = (uint16_t) (__ms * 10.0);
		while(__ticks)
     7f0:	89 a1       	ldd	r24, Y+33	; 0x21
     7f2:	9a a1       	ldd	r25, Y+34	; 0x22
     7f4:	00 97       	sbiw	r24, 0x00	; 0
     7f6:	69 f7       	brne	.-38     	; 0x7d2 <LcdInitial+0x1f8>
     7f8:	14 c0       	rjmp	.+40     	; 0x822 <LcdInitial+0x248>
			__ticks --;
		}
		return;
	}
	else
		__ticks = (uint16_t)__tmp;
     7fa:	6b a1       	ldd	r22, Y+35	; 0x23
     7fc:	7c a1       	ldd	r23, Y+36	; 0x24
     7fe:	8d a1       	ldd	r24, Y+37	; 0x25
     800:	9e a1       	ldd	r25, Y+38	; 0x26
     802:	0e 94 a6 28 	call	0x514c	; 0x514c <__fixunssfsi>
     806:	dc 01       	movw	r26, r24
     808:	cb 01       	movw	r24, r22
     80a:	9a a3       	std	Y+34, r25	; 0x22
     80c:	89 a3       	std	Y+33, r24	; 0x21
     80e:	89 a1       	ldd	r24, Y+33	; 0x21
     810:	9a a1       	ldd	r25, Y+34	; 0x22
     812:	9e 8f       	std	Y+30, r25	; 0x1e
     814:	8d 8f       	std	Y+29, r24	; 0x1d
     816:	8d 8d       	ldd	r24, Y+29	; 0x1d
     818:	9e 8d       	ldd	r25, Y+30	; 0x1e
     81a:	01 97       	sbiw	r24, 0x01	; 1
     81c:	f1 f7       	brne	.-4      	; 0x81a <LcdInitial+0x240>
     81e:	9e 8f       	std	Y+30, r25	; 0x1e
     820:	8d 8f       	std	Y+29, r24	; 0x1d
			_delay_ms(5);
			OLCD_LINE |= 1<<E_LINE;	
     822:	a2 e3       	ldi	r26, 0x32	; 50
     824:	b0 e0       	ldi	r27, 0x00	; 0
     826:	e2 e3       	ldi	r30, 0x32	; 50
     828:	f0 e0       	ldi	r31, 0x00	; 0
     82a:	80 81       	ld	r24, Z
     82c:	82 60       	ori	r24, 0x02	; 2
     82e:	8c 93       	st	X, r24
		OLCD_LINE |= 1<<E_LINE;	
		OLCD_LINE &= ~(1<<RS_LINE);	
		OLCD_LINE &= ~( 1<<DB7 | 1<<DB6 | 1<<DB5 | 1<<DB4);
		OLCD_LINE |= 1<<DB4 | 1<<DB5;
		_delay_ms(40);									// petla przesylajaca 3 razy
		for(int i = 0 ; i <3 ;i++)						// wartosc 0x30
     830:	89 ad       	ldd	r24, Y+57	; 0x39
     832:	9a ad       	ldd	r25, Y+58	; 0x3a
     834:	01 96       	adiw	r24, 0x01	; 1
     836:	9a af       	std	Y+58, r25	; 0x3a
     838:	89 af       	std	Y+57, r24	; 0x39
     83a:	89 ad       	ldd	r24, Y+57	; 0x39
     83c:	9a ad       	ldd	r25, Y+58	; 0x3a
     83e:	83 30       	cpi	r24, 0x03	; 3
     840:	91 05       	cpc	r25, r1
     842:	0c f4       	brge	.+2      	; 0x846 <LcdInitial+0x26c>
     844:	73 cf       	rjmp	.-282    	; 0x72c <LcdInitial+0x152>
			asm("nop");
			OLCD_LINE &= ~(1<<E_LINE);	
			_delay_ms(5);
			OLCD_LINE |= 1<<E_LINE;	
			}
		OLCD_LINE &= ~( 1<<DB7 | 1<<DB6 | 1<<DB5 | 1<<DB4);
     846:	a2 e3       	ldi	r26, 0x32	; 50
     848:	b0 e0       	ldi	r27, 0x00	; 0
     84a:	e2 e3       	ldi	r30, 0x32	; 50
     84c:	f0 e0       	ldi	r31, 0x00	; 0
     84e:	80 81       	ld	r24, Z
     850:	8f 70       	andi	r24, 0x0F	; 15
     852:	8c 93       	st	X, r24
		OLCD_LINE |= 1<<LCD_GLOBAL;
     854:	a2 e3       	ldi	r26, 0x32	; 50
     856:	b0 e0       	ldi	r27, 0x00	; 0
     858:	e2 e3       	ldi	r30, 0x32	; 50
     85a:	f0 e0       	ldi	r31, 0x00	; 0
     85c:	80 81       	ld	r24, Z
     85e:	80 62       	ori	r24, 0x20	; 32
     860:	8c 93       	st	X, r24
		asm("nop");									    // 0x20 , wic interfejs 4 bitowy
     862:	00 00       	nop
		OLCD_LINE &= ~(1<<E_LINE);						// bi szosty odpowiedzialny za to 
     864:	a2 e3       	ldi	r26, 0x32	; 50
     866:	b0 e0       	ldi	r27, 0x00	; 0
     868:	e2 e3       	ldi	r30, 0x32	; 50
     86a:	f0 e0       	ldi	r31, 0x00	; 0
     86c:	80 81       	ld	r24, Z
     86e:	8d 7f       	andi	r24, 0xFD	; 253
     870:	8c 93       	st	X, r24
     872:	80 e0       	ldi	r24, 0x00	; 0
     874:	90 e0       	ldi	r25, 0x00	; 0
     876:	a0 e2       	ldi	r26, 0x20	; 32
     878:	b1 e4       	ldi	r27, 0x41	; 65
     87a:	89 8f       	std	Y+25, r24	; 0x19
     87c:	9a 8f       	std	Y+26, r25	; 0x1a
     87e:	ab 8f       	std	Y+27, r26	; 0x1b
     880:	bc 8f       	std	Y+28, r27	; 0x1c
 */
void
_delay_ms(double __ms)
{
	uint16_t __ticks;
	double __tmp = ((F_CPU) / 4e3) * __ms;
     882:	20 e0       	ldi	r18, 0x00	; 0
     884:	30 e0       	ldi	r19, 0x00	; 0
     886:	4a e7       	ldi	r20, 0x7A	; 122
     888:	54 e4       	ldi	r21, 0x44	; 68
     88a:	69 8d       	ldd	r22, Y+25	; 0x19
     88c:	7a 8d       	ldd	r23, Y+26	; 0x1a
     88e:	8b 8d       	ldd	r24, Y+27	; 0x1b
     890:	9c 8d       	ldd	r25, Y+28	; 0x1c
     892:	0e 94 7c 2a 	call	0x54f8	; 0x54f8 <__mulsf3>
     896:	dc 01       	movw	r26, r24
     898:	cb 01       	movw	r24, r22
     89a:	8d 8b       	std	Y+21, r24	; 0x15
     89c:	9e 8b       	std	Y+22, r25	; 0x16
     89e:	af 8b       	std	Y+23, r26	; 0x17
     8a0:	b8 8f       	std	Y+24, r27	; 0x18
	if (__tmp < 1.0)
     8a2:	20 e0       	ldi	r18, 0x00	; 0
     8a4:	30 e0       	ldi	r19, 0x00	; 0
     8a6:	40 e8       	ldi	r20, 0x80	; 128
     8a8:	5f e3       	ldi	r21, 0x3F	; 63
     8aa:	6d 89       	ldd	r22, Y+21	; 0x15
     8ac:	7e 89       	ldd	r23, Y+22	; 0x16
     8ae:	8f 89       	ldd	r24, Y+23	; 0x17
     8b0:	98 8d       	ldd	r25, Y+24	; 0x18
     8b2:	0e 94 80 2c 	call	0x5900	; 0x5900 <__ltsf2>
     8b6:	88 23       	and	r24, r24
     8b8:	2c f4       	brge	.+10     	; 0x8c4 <__stack+0x65>
		__ticks = 1;
     8ba:	81 e0       	ldi	r24, 0x01	; 1
     8bc:	90 e0       	ldi	r25, 0x00	; 0
     8be:	9c 8b       	std	Y+20, r25	; 0x14
     8c0:	8b 8b       	std	Y+19, r24	; 0x13
     8c2:	3f c0       	rjmp	.+126    	; 0x942 <__stack+0xe3>
	else if (__tmp > 65535)
     8c4:	20 e0       	ldi	r18, 0x00	; 0
     8c6:	3f ef       	ldi	r19, 0xFF	; 255
     8c8:	4f e7       	ldi	r20, 0x7F	; 127
     8ca:	57 e4       	ldi	r21, 0x47	; 71
     8cc:	6d 89       	ldd	r22, Y+21	; 0x15
     8ce:	7e 89       	ldd	r23, Y+22	; 0x16
     8d0:	8f 89       	ldd	r24, Y+23	; 0x17
     8d2:	98 8d       	ldd	r25, Y+24	; 0x18
     8d4:	0e 94 20 2c 	call	0x5840	; 0x5840 <__gtsf2>
     8d8:	18 16       	cp	r1, r24
     8da:	4c f5       	brge	.+82     	; 0x92e <__stack+0xcf>
	{
		//	__ticks = requested delay in 1/10 ms
		__ticks = (uint16_t) (__ms * 10.0);
     8dc:	20 e0       	ldi	r18, 0x00	; 0
     8de:	30 e0       	ldi	r19, 0x00	; 0
     8e0:	40 e2       	ldi	r20, 0x20	; 32
     8e2:	51 e4       	ldi	r21, 0x41	; 65
     8e4:	69 8d       	ldd	r22, Y+25	; 0x19
     8e6:	7a 8d       	ldd	r23, Y+26	; 0x1a
     8e8:	8b 8d       	ldd	r24, Y+27	; 0x1b
     8ea:	9c 8d       	ldd	r25, Y+28	; 0x1c
     8ec:	0e 94 7c 2a 	call	0x54f8	; 0x54f8 <__mulsf3>
     8f0:	dc 01       	movw	r26, r24
     8f2:	cb 01       	movw	r24, r22
     8f4:	bc 01       	movw	r22, r24
     8f6:	cd 01       	movw	r24, r26
     8f8:	0e 94 a6 28 	call	0x514c	; 0x514c <__fixunssfsi>
     8fc:	dc 01       	movw	r26, r24
     8fe:	cb 01       	movw	r24, r22
     900:	9c 8b       	std	Y+20, r25	; 0x14
     902:	8b 8b       	std	Y+19, r24	; 0x13
     904:	0f c0       	rjmp	.+30     	; 0x924 <__stack+0xc5>
     906:	84 e6       	ldi	r24, 0x64	; 100
     908:	90 e0       	ldi	r25, 0x00	; 0
     90a:	9a 8b       	std	Y+18, r25	; 0x12
     90c:	89 8b       	std	Y+17, r24	; 0x11
     90e:	89 89       	ldd	r24, Y+17	; 0x11
     910:	9a 89       	ldd	r25, Y+18	; 0x12
     912:	01 97       	sbiw	r24, 0x01	; 1
     914:	f1 f7       	brne	.-4      	; 0x912 <__stack+0xb3>
     916:	9a 8b       	std	Y+18, r25	; 0x12
     918:	89 8b       	std	Y+17, r24	; 0x11
		while(__ticks)
		{
			// wait 1/10 ms
			_delay_loop_2(((F_CPU) / 4e3) / 10);
			__ticks --;
     91a:	8b 89       	ldd	r24, Y+19	; 0x13
     91c:	9c 89       	ldd	r25, Y+20	; 0x14
     91e:	01 97       	sbiw	r24, 0x01	; 1
     920:	9c 8b       	std	Y+20, r25	; 0x14
     922:	8b 8b       	std	Y+19, r24	; 0x13
		__ticks = 1;
	else if (__tmp > 65535)
	{
		//	__ticks = requested delay in 1/10 ms
		__ticks = (uint16_t) (__ms * 10.0);
		while(__ticks)
     924:	8b 89       	ldd	r24, Y+19	; 0x13
     926:	9c 89       	ldd	r25, Y+20	; 0x14
     928:	00 97       	sbiw	r24, 0x00	; 0
     92a:	69 f7       	brne	.-38     	; 0x906 <__stack+0xa7>
     92c:	14 c0       	rjmp	.+40     	; 0x956 <__stack+0xf7>
			__ticks --;
		}
		return;
	}
	else
		__ticks = (uint16_t)__tmp;
     92e:	6d 89       	ldd	r22, Y+21	; 0x15
     930:	7e 89       	ldd	r23, Y+22	; 0x16
     932:	8f 89       	ldd	r24, Y+23	; 0x17
     934:	98 8d       	ldd	r25, Y+24	; 0x18
     936:	0e 94 a6 28 	call	0x514c	; 0x514c <__fixunssfsi>
     93a:	dc 01       	movw	r26, r24
     93c:	cb 01       	movw	r24, r22
     93e:	9c 8b       	std	Y+20, r25	; 0x14
     940:	8b 8b       	std	Y+19, r24	; 0x13
     942:	8b 89       	ldd	r24, Y+19	; 0x13
     944:	9c 89       	ldd	r25, Y+20	; 0x14
     946:	98 8b       	std	Y+16, r25	; 0x10
     948:	8f 87       	std	Y+15, r24	; 0x0f
     94a:	8f 85       	ldd	r24, Y+15	; 0x0f
     94c:	98 89       	ldd	r25, Y+16	; 0x10
     94e:	01 97       	sbiw	r24, 0x01	; 1
     950:	f1 f7       	brne	.-4      	; 0x94e <__stack+0xef>
     952:	98 8b       	std	Y+16, r25	; 0x10
     954:	8f 87       	std	Y+15, r24	; 0x0f
		_delay_ms(10);									// przyjmuje 0 ustawia 4 bitowy
		OLCD_LINE |= 1<<E_LINE;	
     956:	a2 e3       	ldi	r26, 0x32	; 50
     958:	b0 e0       	ldi	r27, 0x00	; 0
     95a:	e2 e3       	ldi	r30, 0x32	; 50
     95c:	f0 e0       	ldi	r31, 0x00	; 0
     95e:	80 81       	ld	r24, Z
     960:	82 60       	ori	r24, 0x02	; 2
     962:	8c 93       	st	X, r24
		LcdInstr(1<<LCD_GLOBAL | 1<<LCD_LINES);
     964:	88 e2       	ldi	r24, 0x28	; 40
     966:	0e 94 0a 02 	call	0x414	; 0x414 <LcdInstr>
		LcdInstr(1<<LCD_CURS_OPTIONS | 1<<LCD_CURS_MOVE | 1<<LCD_CHANGE_WA);
     96a:	8c e1       	ldi	r24, 0x1C	; 28
     96c:	0e 94 0a 02 	call	0x414	; 0x414 <LcdInstr>
		LcdInstr(1<<LCD_VAR_INPUT | 1<<LCD_CURS_INCR);
     970:	86 e0       	ldi	r24, 0x06	; 6
     972:	0e 94 0a 02 	call	0x414	; 0x414 <LcdInstr>
		LcdInstr(1<<LCD_OPTIONS | 1<<LCD_POW );//| 1<<LCD_CURS | 1<<LCD_CURS_TW);
     976:	8c e0       	ldi	r24, 0x0C	; 12
     978:	0e 94 0a 02 	call	0x414	; 0x414 <LcdInstr>
     97c:	80 e0       	ldi	r24, 0x00	; 0
     97e:	90 e0       	ldi	r25, 0x00	; 0
     980:	a0 e2       	ldi	r26, 0x20	; 32
     982:	b1 e4       	ldi	r27, 0x41	; 65
     984:	8b 87       	std	Y+11, r24	; 0x0b
     986:	9c 87       	std	Y+12, r25	; 0x0c
     988:	ad 87       	std	Y+13, r26	; 0x0d
     98a:	be 87       	std	Y+14, r27	; 0x0e
 */
void
_delay_ms(double __ms)
{
	uint16_t __ticks;
	double __tmp = ((F_CPU) / 4e3) * __ms;
     98c:	20 e0       	ldi	r18, 0x00	; 0
     98e:	30 e0       	ldi	r19, 0x00	; 0
     990:	4a e7       	ldi	r20, 0x7A	; 122
     992:	54 e4       	ldi	r21, 0x44	; 68
     994:	6b 85       	ldd	r22, Y+11	; 0x0b
     996:	7c 85       	ldd	r23, Y+12	; 0x0c
     998:	8d 85       	ldd	r24, Y+13	; 0x0d
     99a:	9e 85       	ldd	r25, Y+14	; 0x0e
     99c:	0e 94 7c 2a 	call	0x54f8	; 0x54f8 <__mulsf3>
     9a0:	dc 01       	movw	r26, r24
     9a2:	cb 01       	movw	r24, r22
     9a4:	8f 83       	std	Y+7, r24	; 0x07
     9a6:	98 87       	std	Y+8, r25	; 0x08
     9a8:	a9 87       	std	Y+9, r26	; 0x09
     9aa:	ba 87       	std	Y+10, r27	; 0x0a
	if (__tmp < 1.0)
     9ac:	20 e0       	ldi	r18, 0x00	; 0
     9ae:	30 e0       	ldi	r19, 0x00	; 0
     9b0:	40 e8       	ldi	r20, 0x80	; 128
     9b2:	5f e3       	ldi	r21, 0x3F	; 63
     9b4:	6f 81       	ldd	r22, Y+7	; 0x07
     9b6:	78 85       	ldd	r23, Y+8	; 0x08
     9b8:	89 85       	ldd	r24, Y+9	; 0x09
     9ba:	9a 85       	ldd	r25, Y+10	; 0x0a
     9bc:	0e 94 80 2c 	call	0x5900	; 0x5900 <__ltsf2>
     9c0:	88 23       	and	r24, r24
     9c2:	2c f4       	brge	.+10     	; 0x9ce <__stack+0x16f>
		__ticks = 1;
     9c4:	81 e0       	ldi	r24, 0x01	; 1
     9c6:	90 e0       	ldi	r25, 0x00	; 0
     9c8:	9e 83       	std	Y+6, r25	; 0x06
     9ca:	8d 83       	std	Y+5, r24	; 0x05
     9cc:	3f c0       	rjmp	.+126    	; 0xa4c <__stack+0x1ed>
	else if (__tmp > 65535)
     9ce:	20 e0       	ldi	r18, 0x00	; 0
     9d0:	3f ef       	ldi	r19, 0xFF	; 255
     9d2:	4f e7       	ldi	r20, 0x7F	; 127
     9d4:	57 e4       	ldi	r21, 0x47	; 71
     9d6:	6f 81       	ldd	r22, Y+7	; 0x07
     9d8:	78 85       	ldd	r23, Y+8	; 0x08
     9da:	89 85       	ldd	r24, Y+9	; 0x09
     9dc:	9a 85       	ldd	r25, Y+10	; 0x0a
     9de:	0e 94 20 2c 	call	0x5840	; 0x5840 <__gtsf2>
     9e2:	18 16       	cp	r1, r24
     9e4:	4c f5       	brge	.+82     	; 0xa38 <__stack+0x1d9>
	{
		//	__ticks = requested delay in 1/10 ms
		__ticks = (uint16_t) (__ms * 10.0);
     9e6:	20 e0       	ldi	r18, 0x00	; 0
     9e8:	30 e0       	ldi	r19, 0x00	; 0
     9ea:	40 e2       	ldi	r20, 0x20	; 32
     9ec:	51 e4       	ldi	r21, 0x41	; 65
     9ee:	6b 85       	ldd	r22, Y+11	; 0x0b
     9f0:	7c 85       	ldd	r23, Y+12	; 0x0c
     9f2:	8d 85       	ldd	r24, Y+13	; 0x0d
     9f4:	9e 85       	ldd	r25, Y+14	; 0x0e
     9f6:	0e 94 7c 2a 	call	0x54f8	; 0x54f8 <__mulsf3>
     9fa:	dc 01       	movw	r26, r24
     9fc:	cb 01       	movw	r24, r22
     9fe:	bc 01       	movw	r22, r24
     a00:	cd 01       	movw	r24, r26
     a02:	0e 94 a6 28 	call	0x514c	; 0x514c <__fixunssfsi>
     a06:	dc 01       	movw	r26, r24
     a08:	cb 01       	movw	r24, r22
     a0a:	9e 83       	std	Y+6, r25	; 0x06
     a0c:	8d 83       	std	Y+5, r24	; 0x05
     a0e:	0f c0       	rjmp	.+30     	; 0xa2e <__stack+0x1cf>
     a10:	84 e6       	ldi	r24, 0x64	; 100
     a12:	90 e0       	ldi	r25, 0x00	; 0
     a14:	9c 83       	std	Y+4, r25	; 0x04
     a16:	8b 83       	std	Y+3, r24	; 0x03
     a18:	8b 81       	ldd	r24, Y+3	; 0x03
     a1a:	9c 81       	ldd	r25, Y+4	; 0x04
     a1c:	01 97       	sbiw	r24, 0x01	; 1
     a1e:	f1 f7       	brne	.-4      	; 0xa1c <__stack+0x1bd>
     a20:	9c 83       	std	Y+4, r25	; 0x04
     a22:	8b 83       	std	Y+3, r24	; 0x03
		while(__ticks)
		{
			// wait 1/10 ms
			_delay_loop_2(((F_CPU) / 4e3) / 10);
			__ticks --;
     a24:	8d 81       	ldd	r24, Y+5	; 0x05
     a26:	9e 81       	ldd	r25, Y+6	; 0x06
     a28:	01 97       	sbiw	r24, 0x01	; 1
     a2a:	9e 83       	std	Y+6, r25	; 0x06
     a2c:	8d 83       	std	Y+5, r24	; 0x05
		__ticks = 1;
	else if (__tmp > 65535)
	{
		//	__ticks = requested delay in 1/10 ms
		__ticks = (uint16_t) (__ms * 10.0);
		while(__ticks)
     a2e:	8d 81       	ldd	r24, Y+5	; 0x05
     a30:	9e 81       	ldd	r25, Y+6	; 0x06
     a32:	00 97       	sbiw	r24, 0x00	; 0
     a34:	69 f7       	brne	.-38     	; 0xa10 <__stack+0x1b1>
     a36:	14 c0       	rjmp	.+40     	; 0xa60 <__stack+0x201>
			__ticks --;
		}
		return;
	}
	else
		__ticks = (uint16_t)__tmp;
     a38:	6f 81       	ldd	r22, Y+7	; 0x07
     a3a:	78 85       	ldd	r23, Y+8	; 0x08
     a3c:	89 85       	ldd	r24, Y+9	; 0x09
     a3e:	9a 85       	ldd	r25, Y+10	; 0x0a
     a40:	0e 94 a6 28 	call	0x514c	; 0x514c <__fixunssfsi>
     a44:	dc 01       	movw	r26, r24
     a46:	cb 01       	movw	r24, r22
     a48:	9e 83       	std	Y+6, r25	; 0x06
     a4a:	8d 83       	std	Y+5, r24	; 0x05
     a4c:	8d 81       	ldd	r24, Y+5	; 0x05
     a4e:	9e 81       	ldd	r25, Y+6	; 0x06
     a50:	9a 83       	std	Y+2, r25	; 0x02
     a52:	89 83       	std	Y+1, r24	; 0x01
     a54:	89 81       	ldd	r24, Y+1	; 0x01
     a56:	9a 81       	ldd	r25, Y+2	; 0x02
     a58:	01 97       	sbiw	r24, 0x01	; 1
     a5a:	f1 f7       	brne	.-4      	; 0xa58 <__stack+0x1f9>
     a5c:	9a 83       	std	Y+2, r25	; 0x02
     a5e:	89 83       	std	Y+1, r24	; 0x01
		_delay_ms(10);
		LcdClean();
     a60:	0e 94 ae 06 	call	0xd5c	; 0xd5c <LcdClean>
	} 
     a64:	ea 96       	adiw	r28, 0x3a	; 58
     a66:	0f b6       	in	r0, 0x3f	; 63
     a68:	f8 94       	cli
     a6a:	de bf       	out	0x3e, r29	; 62
     a6c:	0f be       	out	0x3f, r0	; 63
     a6e:	cd bf       	out	0x3d, r28	; 61
     a70:	cf 91       	pop	r28
     a72:	df 91       	pop	r29
     a74:	08 95       	ret

00000a76 <LcdOwnSigns>:

//*****************************************************************************

void LcdOwnSigns(unsigned char * Signs,short Number)

	{
     a76:	df 93       	push	r29
     a78:	cf 93       	push	r28
     a7a:	00 d0       	rcall	.+0      	; 0xa7c <LcdOwnSigns+0x6>
     a7c:	00 d0       	rcall	.+0      	; 0xa7e <LcdOwnSigns+0x8>
     a7e:	00 d0       	rcall	.+0      	; 0xa80 <LcdOwnSigns+0xa>
     a80:	cd b7       	in	r28, 0x3d	; 61
     a82:	de b7       	in	r29, 0x3e	; 62
     a84:	9c 83       	std	Y+4, r25	; 0x04
     a86:	8b 83       	std	Y+3, r24	; 0x03
     a88:	7e 83       	std	Y+6, r23	; 0x06
     a8a:	6d 83       	std	Y+5, r22	; 0x05
//	short CGDRAM_ADR = 0;
	LcdInstr(1<<CGRAM_ADRESS);						// Przejscie do trybu adresowania
     a8c:	80 e4       	ldi	r24, 0x40	; 64
     a8e:	0e 94 0a 02 	call	0x414	; 0x414 <LcdInstr>
													// pamieci CGDRAM i wymuszenie
													// adresu 0
		for(int i = 0 ; i < Number * 8 ; i++)
     a92:	1a 82       	std	Y+2, r1	; 0x02
     a94:	19 82       	std	Y+1, r1	; 0x01
     a96:	10 c0       	rjmp	.+32     	; 0xab8 <LcdOwnSigns+0x42>
			{
			//for(int i = CGDRAM_ADR ; i <CGDRAM_ADR + 8 ; i++)
			//	{
			//	LcdInstr(1<<CGRAM_ADRESS | i);
				LcdData(*Signs++);
     a98:	eb 81       	ldd	r30, Y+3	; 0x03
     a9a:	fc 81       	ldd	r31, Y+4	; 0x04
     a9c:	20 81       	ld	r18, Z
     a9e:	8b 81       	ldd	r24, Y+3	; 0x03
     aa0:	9c 81       	ldd	r25, Y+4	; 0x04
     aa2:	01 96       	adiw	r24, 0x01	; 1
     aa4:	9c 83       	std	Y+4, r25	; 0x04
     aa6:	8b 83       	std	Y+3, r24	; 0x03
     aa8:	82 2f       	mov	r24, r18
     aaa:	0e 94 c6 00 	call	0x18c	; 0x18c <LcdData>
	{
//	short CGDRAM_ADR = 0;
	LcdInstr(1<<CGRAM_ADRESS);						// Przejscie do trybu adresowania
													// pamieci CGDRAM i wymuszenie
													// adresu 0
		for(int i = 0 ; i < Number * 8 ; i++)
     aae:	89 81       	ldd	r24, Y+1	; 0x01
     ab0:	9a 81       	ldd	r25, Y+2	; 0x02
     ab2:	01 96       	adiw	r24, 0x01	; 1
     ab4:	9a 83       	std	Y+2, r25	; 0x02
     ab6:	89 83       	std	Y+1, r24	; 0x01
     ab8:	8d 81       	ldd	r24, Y+5	; 0x05
     aba:	9e 81       	ldd	r25, Y+6	; 0x06
     abc:	9c 01       	movw	r18, r24
     abe:	22 0f       	add	r18, r18
     ac0:	33 1f       	adc	r19, r19
     ac2:	22 0f       	add	r18, r18
     ac4:	33 1f       	adc	r19, r19
     ac6:	22 0f       	add	r18, r18
     ac8:	33 1f       	adc	r19, r19
     aca:	89 81       	ldd	r24, Y+1	; 0x01
     acc:	9a 81       	ldd	r25, Y+2	; 0x02
     ace:	82 17       	cp	r24, r18
     ad0:	93 07       	cpc	r25, r19
     ad2:	14 f3       	brlt	.-60     	; 0xa98 <LcdOwnSigns+0x22>
				LcdData(*Signs++);
			//	}
			
		//	CGDRAM_ADR += 8;
			}
	LcdInstr(1<<DDRAM_ADRESS);
     ad4:	80 e8       	ldi	r24, 0x80	; 128
     ad6:	0e 94 0a 02 	call	0x414	; 0x414 <LcdInstr>
	}
     ada:	26 96       	adiw	r28, 0x06	; 6
     adc:	0f b6       	in	r0, 0x3f	; 63
     ade:	f8 94       	cli
     ae0:	de bf       	out	0x3e, r29	; 62
     ae2:	0f be       	out	0x3f, r0	; 63
     ae4:	cd bf       	out	0x3d, r28	; 61
     ae6:	cf 91       	pop	r28
     ae8:	df 91       	pop	r29
     aea:	08 95       	ret

00000aec <LcdViewSign>:
//*****************************************************************************
// Funckcja wyswietlajaca znak na wyswietlaczu .  W wiekszej czesci odpowiadajaca
// znakowi w kodzie ASCII

void LcdViewSign(unsigned char sign)				// Wypisanie pojedynczego znaku na wyswietlaczu
	{
     aec:	df 93       	push	r29
     aee:	cf 93       	push	r28
     af0:	0f 92       	push	r0
     af2:	cd b7       	in	r28, 0x3d	; 61
     af4:	de b7       	in	r29, 0x3e	; 62
     af6:	89 83       	std	Y+1, r24	; 0x01
		LcdData(sign);								// Jesli przekraczamy zakres to schodzimy wierszem
     af8:	89 81       	ldd	r24, Y+1	; 0x01
     afa:	0e 94 c6 00 	call	0x18c	; 0x18c <LcdData>
		if(++kolumna == 16)							// w dol . Jesli przekraczamy dwa wiersze to piszemy
     afe:	80 91 cc 01 	lds	r24, 0x01CC
     b02:	90 91 cd 01 	lds	r25, 0x01CD
     b06:	01 96       	adiw	r24, 0x01	; 1
     b08:	90 93 cd 01 	sts	0x01CD, r25
     b0c:	80 93 cc 01 	sts	0x01CC, r24
     b10:	80 91 cc 01 	lds	r24, 0x01CC
     b14:	90 91 cd 01 	lds	r25, 0x01CD
     b18:	80 31       	cpi	r24, 0x10	; 16
     b1a:	91 05       	cpc	r25, r1
     b1c:	11 f4       	brne	.+4      	; 0xb22 <LcdViewSign+0x36>
			{										// od poczatku
			LcdNewLine();
     b1e:	0e 94 36 07 	call	0xe6c	; 0xe6c <LcdNewLine>
			}
		
	}
     b22:	0f 90       	pop	r0
     b24:	cf 91       	pop	r28
     b26:	df 91       	pop	r29
     b28:	08 95       	ret

00000b2a <LcdViewString>:
// Funkcja za arhument przyjmuje wskaznik do C-STRING'a. Wypisuje do poki
// nie napotka znaku konczcego C-STRING czyli NULL

void LcdViewString(unsigned char *string)			// do poki nie dojedziemy do ostatniego
													// znaku C-Stringu to piszemy wszystko 
	{		
     b2a:	df 93       	push	r29
     b2c:	cf 93       	push	r28
     b2e:	00 d0       	rcall	.+0      	; 0xb30 <LcdViewString+0x6>
     b30:	cd b7       	in	r28, 0x3d	; 61
     b32:	de b7       	in	r29, 0x3e	; 62
     b34:	9a 83       	std	Y+2, r25	; 0x02
     b36:	89 83       	std	Y+1, r24	; 0x01
     b38:	13 c0       	rjmp	.+38     	; 0xb60 <LcdViewString+0x36>
												// jak leci.
		while(*string != 0)						
			{	
				if(*string == CR){ LcdNewLine();}
     b3a:	e9 81       	ldd	r30, Y+1	; 0x01
     b3c:	fa 81       	ldd	r31, Y+2	; 0x02
     b3e:	80 81       	ld	r24, Z
     b40:	8a 30       	cpi	r24, 0x0A	; 10
     b42:	19 f4       	brne	.+6      	; 0xb4a <LcdViewString+0x20>
     b44:	0e 94 36 07 	call	0xe6c	; 0xe6c <LcdNewLine>
     b48:	0b c0       	rjmp	.+22     	; 0xb60 <LcdViewString+0x36>
				else { LcdViewSign(*string++); }
     b4a:	e9 81       	ldd	r30, Y+1	; 0x01
     b4c:	fa 81       	ldd	r31, Y+2	; 0x02
     b4e:	20 81       	ld	r18, Z
     b50:	89 81       	ldd	r24, Y+1	; 0x01
     b52:	9a 81       	ldd	r25, Y+2	; 0x02
     b54:	01 96       	adiw	r24, 0x01	; 1
     b56:	9a 83       	std	Y+2, r25	; 0x02
     b58:	89 83       	std	Y+1, r24	; 0x01
     b5a:	82 2f       	mov	r24, r18
     b5c:	0e 94 76 05 	call	0xaec	; 0xaec <LcdViewSign>

void LcdViewString(unsigned char *string)			// do poki nie dojedziemy do ostatniego
													// znaku C-Stringu to piszemy wszystko 
	{		
												// jak leci.
		while(*string != 0)						
     b60:	e9 81       	ldd	r30, Y+1	; 0x01
     b62:	fa 81       	ldd	r31, Y+2	; 0x02
     b64:	80 81       	ld	r24, Z
     b66:	88 23       	and	r24, r24
     b68:	41 f7       	brne	.-48     	; 0xb3a <LcdViewString+0x10>
			{	
				if(*string == CR){ LcdNewLine();}
				else { LcdViewSign(*string++); }

			}
	}
     b6a:	0f 90       	pop	r0
     b6c:	0f 90       	pop	r0
     b6e:	cf 91       	pop	r28
     b70:	df 91       	pop	r29
     b72:	08 95       	ret

00000b74 <LcdMoveTo>:


//*****************************************************************************

void LcdMoveTo(short row, short column)				// Przenosimy sie w wybrane miejsce na wyswietlaczu
	{						
     b74:	df 93       	push	r29
     b76:	cf 93       	push	r28
     b78:	cd b7       	in	r28, 0x3d	; 61
     b7a:	de b7       	in	r29, 0x3e	; 62
     b7c:	6c 97       	sbiw	r28, 0x1c	; 28
     b7e:	0f b6       	in	r0, 0x3f	; 63
     b80:	f8 94       	cli
     b82:	de bf       	out	0x3e, r29	; 62
     b84:	0f be       	out	0x3f, r0	; 63
     b86:	cd bf       	out	0x3d, r28	; 61
     b88:	9a 8f       	std	Y+26, r25	; 0x1a
     b8a:	89 8f       	std	Y+25, r24	; 0x19
     b8c:	7c 8f       	std	Y+28, r23	; 0x1c
     b8e:	6b 8f       	std	Y+27, r22	; 0x1b
													// zrobione dla przypadku tylko dwu liniowego
		wiersz = row;
     b90:	89 8d       	ldd	r24, Y+25	; 0x19
     b92:	9a 8d       	ldd	r25, Y+26	; 0x1a
     b94:	90 93 61 00 	sts	0x0061, r25
     b98:	80 93 60 00 	sts	0x0060, r24
		kolumna = column;
     b9c:	8b 8d       	ldd	r24, Y+27	; 0x1b
     b9e:	9c 8d       	ldd	r25, Y+28	; 0x1c
     ba0:	90 93 cd 01 	sts	0x01CD, r25
     ba4:	80 93 cc 01 	sts	0x01CC, r24
		LcdInstr((1<<DDRAM_ADRESS) | ((0x40)*(row-1) + (column-1)));
     ba8:	89 8d       	ldd	r24, Y+25	; 0x19
     baa:	9a 8d       	ldd	r25, Y+26	; 0x1a
     bac:	01 97       	sbiw	r24, 0x01	; 1
     bae:	00 24       	eor	r0, r0
     bb0:	96 95       	lsr	r25
     bb2:	87 95       	ror	r24
     bb4:	07 94       	ror	r0
     bb6:	96 95       	lsr	r25
     bb8:	87 95       	ror	r24
     bba:	07 94       	ror	r0
     bbc:	98 2f       	mov	r25, r24
     bbe:	80 2d       	mov	r24, r0
     bc0:	98 2f       	mov	r25, r24
     bc2:	8b 8d       	ldd	r24, Y+27	; 0x1b
     bc4:	89 0f       	add	r24, r25
     bc6:	81 50       	subi	r24, 0x01	; 1
     bc8:	80 68       	ori	r24, 0x80	; 128
     bca:	0e 94 0a 02 	call	0x414	; 0x414 <LcdInstr>
     bce:	80 e0       	ldi	r24, 0x00	; 0
     bd0:	90 e0       	ldi	r25, 0x00	; 0
     bd2:	a0 e2       	ldi	r26, 0x20	; 32
     bd4:	b2 e4       	ldi	r27, 0x42	; 66
     bd6:	8d 8b       	std	Y+21, r24	; 0x15
     bd8:	9e 8b       	std	Y+22, r25	; 0x16
     bda:	af 8b       	std	Y+23, r26	; 0x17
     bdc:	b8 8f       	std	Y+24, r27	; 0x18
 */
void
_delay_us(double __us)
{
	uint8_t __ticks;
	double __tmp = ((F_CPU) / 3e6) * __us;
     bde:	2b ea       	ldi	r18, 0xAB	; 171
     be0:	3a ea       	ldi	r19, 0xAA	; 170
     be2:	4a ea       	ldi	r20, 0xAA	; 170
     be4:	5f e3       	ldi	r21, 0x3F	; 63
     be6:	6d 89       	ldd	r22, Y+21	; 0x15
     be8:	7e 89       	ldd	r23, Y+22	; 0x16
     bea:	8f 89       	ldd	r24, Y+23	; 0x17
     bec:	98 8d       	ldd	r25, Y+24	; 0x18
     bee:	0e 94 7c 2a 	call	0x54f8	; 0x54f8 <__mulsf3>
     bf2:	dc 01       	movw	r26, r24
     bf4:	cb 01       	movw	r24, r22
     bf6:	89 8b       	std	Y+17, r24	; 0x11
     bf8:	9a 8b       	std	Y+18, r25	; 0x12
     bfa:	ab 8b       	std	Y+19, r26	; 0x13
     bfc:	bc 8b       	std	Y+20, r27	; 0x14
	if (__tmp < 1.0)
     bfe:	20 e0       	ldi	r18, 0x00	; 0
     c00:	30 e0       	ldi	r19, 0x00	; 0
     c02:	40 e8       	ldi	r20, 0x80	; 128
     c04:	5f e3       	ldi	r21, 0x3F	; 63
     c06:	69 89       	ldd	r22, Y+17	; 0x11
     c08:	7a 89       	ldd	r23, Y+18	; 0x12
     c0a:	8b 89       	ldd	r24, Y+19	; 0x13
     c0c:	9c 89       	ldd	r25, Y+20	; 0x14
     c0e:	0e 94 80 2c 	call	0x5900	; 0x5900 <__ltsf2>
     c12:	88 23       	and	r24, r24
     c14:	1c f4       	brge	.+6      	; 0xc1c <LcdMoveTo+0xa8>
		__ticks = 1;
     c16:	81 e0       	ldi	r24, 0x01	; 1
     c18:	88 8b       	std	Y+16, r24	; 0x10
     c1a:	91 c0       	rjmp	.+290    	; 0xd3e <LcdMoveTo+0x1ca>
	else if (__tmp > 255)
     c1c:	20 e0       	ldi	r18, 0x00	; 0
     c1e:	30 e0       	ldi	r19, 0x00	; 0
     c20:	4f e7       	ldi	r20, 0x7F	; 127
     c22:	53 e4       	ldi	r21, 0x43	; 67
     c24:	69 89       	ldd	r22, Y+17	; 0x11
     c26:	7a 89       	ldd	r23, Y+18	; 0x12
     c28:	8b 89       	ldd	r24, Y+19	; 0x13
     c2a:	9c 89       	ldd	r25, Y+20	; 0x14
     c2c:	0e 94 20 2c 	call	0x5840	; 0x5840 <__gtsf2>
     c30:	18 16       	cp	r1, r24
     c32:	0c f0       	brlt	.+2      	; 0xc36 <LcdMoveTo+0xc2>
     c34:	7b c0       	rjmp	.+246    	; 0xd2c <LcdMoveTo+0x1b8>
	{
		_delay_ms(__us / 1000.0);
     c36:	20 e0       	ldi	r18, 0x00	; 0
     c38:	30 e0       	ldi	r19, 0x00	; 0
     c3a:	4a e7       	ldi	r20, 0x7A	; 122
     c3c:	54 e4       	ldi	r21, 0x44	; 68
     c3e:	6d 89       	ldd	r22, Y+21	; 0x15
     c40:	7e 89       	ldd	r23, Y+22	; 0x16
     c42:	8f 89       	ldd	r24, Y+23	; 0x17
     c44:	98 8d       	ldd	r25, Y+24	; 0x18
     c46:	0e 94 76 2b 	call	0x56ec	; 0x56ec <__divsf3>
     c4a:	dc 01       	movw	r26, r24
     c4c:	cb 01       	movw	r24, r22
     c4e:	8c 87       	std	Y+12, r24	; 0x0c
     c50:	9d 87       	std	Y+13, r25	; 0x0d
     c52:	ae 87       	std	Y+14, r26	; 0x0e
     c54:	bf 87       	std	Y+15, r27	; 0x0f
 */
void
_delay_ms(double __ms)
{
	uint16_t __ticks;
	double __tmp = ((F_CPU) / 4e3) * __ms;
     c56:	20 e0       	ldi	r18, 0x00	; 0
     c58:	30 e0       	ldi	r19, 0x00	; 0
     c5a:	4a e7       	ldi	r20, 0x7A	; 122
     c5c:	54 e4       	ldi	r21, 0x44	; 68
     c5e:	6c 85       	ldd	r22, Y+12	; 0x0c
     c60:	7d 85       	ldd	r23, Y+13	; 0x0d
     c62:	8e 85       	ldd	r24, Y+14	; 0x0e
     c64:	9f 85       	ldd	r25, Y+15	; 0x0f
     c66:	0e 94 7c 2a 	call	0x54f8	; 0x54f8 <__mulsf3>
     c6a:	dc 01       	movw	r26, r24
     c6c:	cb 01       	movw	r24, r22
     c6e:	88 87       	std	Y+8, r24	; 0x08
     c70:	99 87       	std	Y+9, r25	; 0x09
     c72:	aa 87       	std	Y+10, r26	; 0x0a
     c74:	bb 87       	std	Y+11, r27	; 0x0b
	if (__tmp < 1.0)
     c76:	20 e0       	ldi	r18, 0x00	; 0
     c78:	30 e0       	ldi	r19, 0x00	; 0
     c7a:	40 e8       	ldi	r20, 0x80	; 128
     c7c:	5f e3       	ldi	r21, 0x3F	; 63
     c7e:	68 85       	ldd	r22, Y+8	; 0x08
     c80:	79 85       	ldd	r23, Y+9	; 0x09
     c82:	8a 85       	ldd	r24, Y+10	; 0x0a
     c84:	9b 85       	ldd	r25, Y+11	; 0x0b
     c86:	0e 94 80 2c 	call	0x5900	; 0x5900 <__ltsf2>
     c8a:	88 23       	and	r24, r24
     c8c:	2c f4       	brge	.+10     	; 0xc98 <LcdMoveTo+0x124>
		__ticks = 1;
     c8e:	81 e0       	ldi	r24, 0x01	; 1
     c90:	90 e0       	ldi	r25, 0x00	; 0
     c92:	9f 83       	std	Y+7, r25	; 0x07
     c94:	8e 83       	std	Y+6, r24	; 0x06
     c96:	3f c0       	rjmp	.+126    	; 0xd16 <LcdMoveTo+0x1a2>
	else if (__tmp > 65535)
     c98:	20 e0       	ldi	r18, 0x00	; 0
     c9a:	3f ef       	ldi	r19, 0xFF	; 255
     c9c:	4f e7       	ldi	r20, 0x7F	; 127
     c9e:	57 e4       	ldi	r21, 0x47	; 71
     ca0:	68 85       	ldd	r22, Y+8	; 0x08
     ca2:	79 85       	ldd	r23, Y+9	; 0x09
     ca4:	8a 85       	ldd	r24, Y+10	; 0x0a
     ca6:	9b 85       	ldd	r25, Y+11	; 0x0b
     ca8:	0e 94 20 2c 	call	0x5840	; 0x5840 <__gtsf2>
     cac:	18 16       	cp	r1, r24
     cae:	4c f5       	brge	.+82     	; 0xd02 <LcdMoveTo+0x18e>
	{
		//	__ticks = requested delay in 1/10 ms
		__ticks = (uint16_t) (__ms * 10.0);
     cb0:	20 e0       	ldi	r18, 0x00	; 0
     cb2:	30 e0       	ldi	r19, 0x00	; 0
     cb4:	40 e2       	ldi	r20, 0x20	; 32
     cb6:	51 e4       	ldi	r21, 0x41	; 65
     cb8:	6c 85       	ldd	r22, Y+12	; 0x0c
     cba:	7d 85       	ldd	r23, Y+13	; 0x0d
     cbc:	8e 85       	ldd	r24, Y+14	; 0x0e
     cbe:	9f 85       	ldd	r25, Y+15	; 0x0f
     cc0:	0e 94 7c 2a 	call	0x54f8	; 0x54f8 <__mulsf3>
     cc4:	dc 01       	movw	r26, r24
     cc6:	cb 01       	movw	r24, r22
     cc8:	bc 01       	movw	r22, r24
     cca:	cd 01       	movw	r24, r26
     ccc:	0e 94 a6 28 	call	0x514c	; 0x514c <__fixunssfsi>
     cd0:	dc 01       	movw	r26, r24
     cd2:	cb 01       	movw	r24, r22
     cd4:	9f 83       	std	Y+7, r25	; 0x07
     cd6:	8e 83       	std	Y+6, r24	; 0x06
     cd8:	0f c0       	rjmp	.+30     	; 0xcf8 <LcdMoveTo+0x184>
     cda:	84 e6       	ldi	r24, 0x64	; 100
     cdc:	90 e0       	ldi	r25, 0x00	; 0
     cde:	9d 83       	std	Y+5, r25	; 0x05
     ce0:	8c 83       	std	Y+4, r24	; 0x04
     ce2:	8c 81       	ldd	r24, Y+4	; 0x04
     ce4:	9d 81       	ldd	r25, Y+5	; 0x05
     ce6:	01 97       	sbiw	r24, 0x01	; 1
     ce8:	f1 f7       	brne	.-4      	; 0xce6 <LcdMoveTo+0x172>
     cea:	9d 83       	std	Y+5, r25	; 0x05
     cec:	8c 83       	std	Y+4, r24	; 0x04
		while(__ticks)
		{
			// wait 1/10 ms
			_delay_loop_2(((F_CPU) / 4e3) / 10);
			__ticks --;
     cee:	8e 81       	ldd	r24, Y+6	; 0x06
     cf0:	9f 81       	ldd	r25, Y+7	; 0x07
     cf2:	01 97       	sbiw	r24, 0x01	; 1
     cf4:	9f 83       	std	Y+7, r25	; 0x07
     cf6:	8e 83       	std	Y+6, r24	; 0x06
		__ticks = 1;
	else if (__tmp > 65535)
	{
		//	__ticks = requested delay in 1/10 ms
		__ticks = (uint16_t) (__ms * 10.0);
		while(__ticks)
     cf8:	8e 81       	ldd	r24, Y+6	; 0x06
     cfa:	9f 81       	ldd	r25, Y+7	; 0x07
     cfc:	00 97       	sbiw	r24, 0x00	; 0
     cfe:	69 f7       	brne	.-38     	; 0xcda <LcdMoveTo+0x166>
     d00:	24 c0       	rjmp	.+72     	; 0xd4a <LcdMoveTo+0x1d6>
			__ticks --;
		}
		return;
	}
	else
		__ticks = (uint16_t)__tmp;
     d02:	68 85       	ldd	r22, Y+8	; 0x08
     d04:	79 85       	ldd	r23, Y+9	; 0x09
     d06:	8a 85       	ldd	r24, Y+10	; 0x0a
     d08:	9b 85       	ldd	r25, Y+11	; 0x0b
     d0a:	0e 94 a6 28 	call	0x514c	; 0x514c <__fixunssfsi>
     d0e:	dc 01       	movw	r26, r24
     d10:	cb 01       	movw	r24, r22
     d12:	9f 83       	std	Y+7, r25	; 0x07
     d14:	8e 83       	std	Y+6, r24	; 0x06
     d16:	8e 81       	ldd	r24, Y+6	; 0x06
     d18:	9f 81       	ldd	r25, Y+7	; 0x07
     d1a:	9b 83       	std	Y+3, r25	; 0x03
     d1c:	8a 83       	std	Y+2, r24	; 0x02
     d1e:	8a 81       	ldd	r24, Y+2	; 0x02
     d20:	9b 81       	ldd	r25, Y+3	; 0x03
     d22:	01 97       	sbiw	r24, 0x01	; 1
     d24:	f1 f7       	brne	.-4      	; 0xd22 <LcdMoveTo+0x1ae>
     d26:	9b 83       	std	Y+3, r25	; 0x03
     d28:	8a 83       	std	Y+2, r24	; 0x02
     d2a:	0f c0       	rjmp	.+30     	; 0xd4a <LcdMoveTo+0x1d6>
	{
		_delay_ms(__us / 1000.0);
		return;
	}
	else
		__ticks = (uint8_t)__tmp;
     d2c:	69 89       	ldd	r22, Y+17	; 0x11
     d2e:	7a 89       	ldd	r23, Y+18	; 0x12
     d30:	8b 89       	ldd	r24, Y+19	; 0x13
     d32:	9c 89       	ldd	r25, Y+20	; 0x14
     d34:	0e 94 a6 28 	call	0x514c	; 0x514c <__fixunssfsi>
     d38:	dc 01       	movw	r26, r24
     d3a:	cb 01       	movw	r24, r22
     d3c:	88 8b       	std	Y+16, r24	; 0x10
     d3e:	88 89       	ldd	r24, Y+16	; 0x10
     d40:	89 83       	std	Y+1, r24	; 0x01
    can be achieved.
*/
void
_delay_loop_1(uint8_t __count)
{
	__asm__ volatile (
     d42:	89 81       	ldd	r24, Y+1	; 0x01
     d44:	8a 95       	dec	r24
     d46:	f1 f7       	brne	.-4      	; 0xd44 <LcdMoveTo+0x1d0>
     d48:	89 83       	std	Y+1, r24	; 0x01
		_delay_us(40);

	}
     d4a:	6c 96       	adiw	r28, 0x1c	; 28
     d4c:	0f b6       	in	r0, 0x3f	; 63
     d4e:	f8 94       	cli
     d50:	de bf       	out	0x3e, r29	; 62
     d52:	0f be       	out	0x3f, r0	; 63
     d54:	cd bf       	out	0x3d, r28	; 61
     d56:	cf 91       	pop	r28
     d58:	df 91       	pop	r29
     d5a:	08 95       	ret

00000d5c <LcdClean>:

//*****************************************************************************
	
void LcdClean()										// Instrukcja 0x01 jest odpowiedzialna
	{
     d5c:	df 93       	push	r29
     d5e:	cf 93       	push	r28
     d60:	cd b7       	in	r28, 0x3d	; 61
     d62:	de b7       	in	r29, 0x3e	; 62
     d64:	2e 97       	sbiw	r28, 0x0e	; 14
     d66:	0f b6       	in	r0, 0x3f	; 63
     d68:	f8 94       	cli
     d6a:	de bf       	out	0x3e, r29	; 62
     d6c:	0f be       	out	0x3f, r0	; 63
     d6e:	cd bf       	out	0x3d, r28	; 61
		LcdInstr(1<<LCD_CL);						// za wypelnienie znakami ' ' calego wyswietlacza
     d70:	81 e0       	ldi	r24, 0x01	; 1
     d72:	0e 94 0a 02 	call	0x414	; 0x414 <LcdInstr>
     d76:	80 e0       	ldi	r24, 0x00	; 0
     d78:	90 e0       	ldi	r25, 0x00	; 0
     d7a:	a0 e0       	ldi	r26, 0x00	; 0
     d7c:	b0 e4       	ldi	r27, 0x40	; 64
     d7e:	8b 87       	std	Y+11, r24	; 0x0b
     d80:	9c 87       	std	Y+12, r25	; 0x0c
     d82:	ad 87       	std	Y+13, r26	; 0x0d
     d84:	be 87       	std	Y+14, r27	; 0x0e
 */
void
_delay_ms(double __ms)
{
	uint16_t __ticks;
	double __tmp = ((F_CPU) / 4e3) * __ms;
     d86:	20 e0       	ldi	r18, 0x00	; 0
     d88:	30 e0       	ldi	r19, 0x00	; 0
     d8a:	4a e7       	ldi	r20, 0x7A	; 122
     d8c:	54 e4       	ldi	r21, 0x44	; 68
     d8e:	6b 85       	ldd	r22, Y+11	; 0x0b
     d90:	7c 85       	ldd	r23, Y+12	; 0x0c
     d92:	8d 85       	ldd	r24, Y+13	; 0x0d
     d94:	9e 85       	ldd	r25, Y+14	; 0x0e
     d96:	0e 94 7c 2a 	call	0x54f8	; 0x54f8 <__mulsf3>
     d9a:	dc 01       	movw	r26, r24
     d9c:	cb 01       	movw	r24, r22
     d9e:	8f 83       	std	Y+7, r24	; 0x07
     da0:	98 87       	std	Y+8, r25	; 0x08
     da2:	a9 87       	std	Y+9, r26	; 0x09
     da4:	ba 87       	std	Y+10, r27	; 0x0a
	if (__tmp < 1.0)
     da6:	20 e0       	ldi	r18, 0x00	; 0
     da8:	30 e0       	ldi	r19, 0x00	; 0
     daa:	40 e8       	ldi	r20, 0x80	; 128
     dac:	5f e3       	ldi	r21, 0x3F	; 63
     dae:	6f 81       	ldd	r22, Y+7	; 0x07
     db0:	78 85       	ldd	r23, Y+8	; 0x08
     db2:	89 85       	ldd	r24, Y+9	; 0x09
     db4:	9a 85       	ldd	r25, Y+10	; 0x0a
     db6:	0e 94 80 2c 	call	0x5900	; 0x5900 <__ltsf2>
     dba:	88 23       	and	r24, r24
     dbc:	2c f4       	brge	.+10     	; 0xdc8 <LcdClean+0x6c>
		__ticks = 1;
     dbe:	81 e0       	ldi	r24, 0x01	; 1
     dc0:	90 e0       	ldi	r25, 0x00	; 0
     dc2:	9e 83       	std	Y+6, r25	; 0x06
     dc4:	8d 83       	std	Y+5, r24	; 0x05
     dc6:	3f c0       	rjmp	.+126    	; 0xe46 <LcdClean+0xea>
	else if (__tmp > 65535)
     dc8:	20 e0       	ldi	r18, 0x00	; 0
     dca:	3f ef       	ldi	r19, 0xFF	; 255
     dcc:	4f e7       	ldi	r20, 0x7F	; 127
     dce:	57 e4       	ldi	r21, 0x47	; 71
     dd0:	6f 81       	ldd	r22, Y+7	; 0x07
     dd2:	78 85       	ldd	r23, Y+8	; 0x08
     dd4:	89 85       	ldd	r24, Y+9	; 0x09
     dd6:	9a 85       	ldd	r25, Y+10	; 0x0a
     dd8:	0e 94 20 2c 	call	0x5840	; 0x5840 <__gtsf2>
     ddc:	18 16       	cp	r1, r24
     dde:	4c f5       	brge	.+82     	; 0xe32 <LcdClean+0xd6>
	{
		//	__ticks = requested delay in 1/10 ms
		__ticks = (uint16_t) (__ms * 10.0);
     de0:	20 e0       	ldi	r18, 0x00	; 0
     de2:	30 e0       	ldi	r19, 0x00	; 0
     de4:	40 e2       	ldi	r20, 0x20	; 32
     de6:	51 e4       	ldi	r21, 0x41	; 65
     de8:	6b 85       	ldd	r22, Y+11	; 0x0b
     dea:	7c 85       	ldd	r23, Y+12	; 0x0c
     dec:	8d 85       	ldd	r24, Y+13	; 0x0d
     dee:	9e 85       	ldd	r25, Y+14	; 0x0e
     df0:	0e 94 7c 2a 	call	0x54f8	; 0x54f8 <__mulsf3>
     df4:	dc 01       	movw	r26, r24
     df6:	cb 01       	movw	r24, r22
     df8:	bc 01       	movw	r22, r24
     dfa:	cd 01       	movw	r24, r26
     dfc:	0e 94 a6 28 	call	0x514c	; 0x514c <__fixunssfsi>
     e00:	dc 01       	movw	r26, r24
     e02:	cb 01       	movw	r24, r22
     e04:	9e 83       	std	Y+6, r25	; 0x06
     e06:	8d 83       	std	Y+5, r24	; 0x05
     e08:	0f c0       	rjmp	.+30     	; 0xe28 <LcdClean+0xcc>
     e0a:	84 e6       	ldi	r24, 0x64	; 100
     e0c:	90 e0       	ldi	r25, 0x00	; 0
     e0e:	9c 83       	std	Y+4, r25	; 0x04
     e10:	8b 83       	std	Y+3, r24	; 0x03
    milliseconds can be achieved.
 */
void
_delay_loop_2(uint16_t __count)
{
	__asm__ volatile (
     e12:	8b 81       	ldd	r24, Y+3	; 0x03
     e14:	9c 81       	ldd	r25, Y+4	; 0x04
     e16:	01 97       	sbiw	r24, 0x01	; 1
     e18:	f1 f7       	brne	.-4      	; 0xe16 <LcdClean+0xba>
     e1a:	9c 83       	std	Y+4, r25	; 0x04
     e1c:	8b 83       	std	Y+3, r24	; 0x03
		while(__ticks)
		{
			// wait 1/10 ms
			_delay_loop_2(((F_CPU) / 4e3) / 10);
			__ticks --;
     e1e:	8d 81       	ldd	r24, Y+5	; 0x05
     e20:	9e 81       	ldd	r25, Y+6	; 0x06
     e22:	01 97       	sbiw	r24, 0x01	; 1
     e24:	9e 83       	std	Y+6, r25	; 0x06
     e26:	8d 83       	std	Y+5, r24	; 0x05
		__ticks = 1;
	else if (__tmp > 65535)
	{
		//	__ticks = requested delay in 1/10 ms
		__ticks = (uint16_t) (__ms * 10.0);
		while(__ticks)
     e28:	8d 81       	ldd	r24, Y+5	; 0x05
     e2a:	9e 81       	ldd	r25, Y+6	; 0x06
     e2c:	00 97       	sbiw	r24, 0x00	; 0
     e2e:	69 f7       	brne	.-38     	; 0xe0a <LcdClean+0xae>
     e30:	14 c0       	rjmp	.+40     	; 0xe5a <LcdClean+0xfe>
			__ticks --;
		}
		return;
	}
	else
		__ticks = (uint16_t)__tmp;
     e32:	6f 81       	ldd	r22, Y+7	; 0x07
     e34:	78 85       	ldd	r23, Y+8	; 0x08
     e36:	89 85       	ldd	r24, Y+9	; 0x09
     e38:	9a 85       	ldd	r25, Y+10	; 0x0a
     e3a:	0e 94 a6 28 	call	0x514c	; 0x514c <__fixunssfsi>
     e3e:	dc 01       	movw	r26, r24
     e40:	cb 01       	movw	r24, r22
     e42:	9e 83       	std	Y+6, r25	; 0x06
     e44:	8d 83       	std	Y+5, r24	; 0x05
     e46:	8d 81       	ldd	r24, Y+5	; 0x05
     e48:	9e 81       	ldd	r25, Y+6	; 0x06
     e4a:	9a 83       	std	Y+2, r25	; 0x02
     e4c:	89 83       	std	Y+1, r24	; 0x01
     e4e:	89 81       	ldd	r24, Y+1	; 0x01
     e50:	9a 81       	ldd	r25, Y+2	; 0x02
     e52:	01 97       	sbiw	r24, 0x01	; 1
     e54:	f1 f7       	brne	.-4      	; 0xe52 <LcdClean+0xf6>
     e56:	9a 83       	std	Y+2, r25	; 0x02
     e58:	89 83       	std	Y+1, r24	; 0x01
		_delay_ms(2);								// kursor powraca do poczatku
			
	}
     e5a:	2e 96       	adiw	r28, 0x0e	; 14
     e5c:	0f b6       	in	r0, 0x3f	; 63
     e5e:	f8 94       	cli
     e60:	de bf       	out	0x3e, r29	; 62
     e62:	0f be       	out	0x3f, r0	; 63
     e64:	cd bf       	out	0x3d, r28	; 61
     e66:	cf 91       	pop	r28
     e68:	df 91       	pop	r29
     e6a:	08 95       	ret

00000e6c <LcdNewLine>:

//*****************************************************************************

void LcdNewLine()
	{
     e6c:	df 93       	push	r29
     e6e:	cf 93       	push	r28
     e70:	00 d0       	rcall	.+0      	; 0xe72 <LcdNewLine+0x6>
     e72:	00 d0       	rcall	.+0      	; 0xe74 <LcdNewLine+0x8>
     e74:	cd b7       	in	r28, 0x3d	; 61
     e76:	de b7       	in	r29, 0x3e	; 62
		short temp_wiersz = wiersz;
     e78:	80 91 60 00 	lds	r24, 0x0060
     e7c:	90 91 61 00 	lds	r25, 0x0061
     e80:	9a 83       	std	Y+2, r25	; 0x02
     e82:	89 83       	std	Y+1, r24	; 0x01
		wiersz = (++temp_wiersz == 3)?  1: temp_wiersz ;
     e84:	89 81       	ldd	r24, Y+1	; 0x01
     e86:	9a 81       	ldd	r25, Y+2	; 0x02
     e88:	01 96       	adiw	r24, 0x01	; 1
     e8a:	9a 83       	std	Y+2, r25	; 0x02
     e8c:	89 83       	std	Y+1, r24	; 0x01
     e8e:	89 81       	ldd	r24, Y+1	; 0x01
     e90:	9a 81       	ldd	r25, Y+2	; 0x02
     e92:	83 30       	cpi	r24, 0x03	; 3
     e94:	91 05       	cpc	r25, r1
     e96:	29 f0       	breq	.+10     	; 0xea2 <LcdNewLine+0x36>
     e98:	89 81       	ldd	r24, Y+1	; 0x01
     e9a:	9a 81       	ldd	r25, Y+2	; 0x02
     e9c:	9c 83       	std	Y+4, r25	; 0x04
     e9e:	8b 83       	std	Y+3, r24	; 0x03
     ea0:	04 c0       	rjmp	.+8      	; 0xeaa <LcdNewLine+0x3e>
     ea2:	81 e0       	ldi	r24, 0x01	; 1
     ea4:	90 e0       	ldi	r25, 0x00	; 0
     ea6:	9c 83       	std	Y+4, r25	; 0x04
     ea8:	8b 83       	std	Y+3, r24	; 0x03
     eaa:	8b 81       	ldd	r24, Y+3	; 0x03
     eac:	9c 81       	ldd	r25, Y+4	; 0x04
     eae:	90 93 61 00 	sts	0x0061, r25
     eb2:	80 93 60 00 	sts	0x0060, r24
		kolumna = 0;
     eb6:	10 92 cd 01 	sts	0x01CD, r1
     eba:	10 92 cc 01 	sts	0x01CC, r1
		LcdMoveTo(wiersz,kolumna);
     ebe:	80 91 cc 01 	lds	r24, 0x01CC
     ec2:	90 91 cd 01 	lds	r25, 0x01CD
     ec6:	20 91 60 00 	lds	r18, 0x0060
     eca:	30 91 61 00 	lds	r19, 0x0061
     ece:	bc 01       	movw	r22, r24
     ed0:	c9 01       	movw	r24, r18
     ed2:	0e 94 ba 05 	call	0xb74	; 0xb74 <LcdMoveTo>
	}
     ed6:	0f 90       	pop	r0
     ed8:	0f 90       	pop	r0
     eda:	0f 90       	pop	r0
     edc:	0f 90       	pop	r0
     ede:	cf 91       	pop	r28
     ee0:	df 91       	pop	r29
     ee2:	08 95       	ret

00000ee4 <LcdMoveCurs>:
// d - przesuniecie kursora w dol
// r - przesuniecie kursora w prawo
// l - przesuniecie kursora w lewo

void LcdMoveCurs(signed char Way)
	{
     ee4:	df 93       	push	r29
     ee6:	cf 93       	push	r28
     ee8:	cd b7       	in	r28, 0x3d	; 61
     eea:	de b7       	in	r29, 0x3e	; 62
     eec:	61 97       	sbiw	r28, 0x11	; 17
     eee:	0f b6       	in	r0, 0x3f	; 63
     ef0:	f8 94       	cli
     ef2:	de bf       	out	0x3e, r29	; 62
     ef4:	0f be       	out	0x3f, r0	; 63
     ef6:	cd bf       	out	0x3d, r28	; 61
     ef8:	89 87       	std	Y+9, r24	; 0x09
		if(Way == 'u')
     efa:	89 85       	ldd	r24, Y+9	; 0x09
     efc:	85 37       	cpi	r24, 0x75	; 117
     efe:	f1 f4       	brne	.+60     	; 0xf3c <LcdMoveCurs+0x58>
			{
				short temp_wiersz = wiersz;
     f00:	80 91 60 00 	lds	r24, 0x0060
     f04:	90 91 61 00 	lds	r25, 0x0061
     f08:	98 87       	std	Y+8, r25	; 0x08
     f0a:	8f 83       	std	Y+7, r24	; 0x07
				wiersz = (--temp_wiersz == 0)?  2: temp_wiersz ;
     f0c:	8f 81       	ldd	r24, Y+7	; 0x07
     f0e:	98 85       	ldd	r25, Y+8	; 0x08
     f10:	01 97       	sbiw	r24, 0x01	; 1
     f12:	98 87       	std	Y+8, r25	; 0x08
     f14:	8f 83       	std	Y+7, r24	; 0x07
     f16:	8f 81       	ldd	r24, Y+7	; 0x07
     f18:	98 85       	ldd	r25, Y+8	; 0x08
     f1a:	00 97       	sbiw	r24, 0x00	; 0
     f1c:	29 f0       	breq	.+10     	; 0xf28 <LcdMoveCurs+0x44>
     f1e:	8f 81       	ldd	r24, Y+7	; 0x07
     f20:	98 85       	ldd	r25, Y+8	; 0x08
     f22:	99 8b       	std	Y+17, r25	; 0x11
     f24:	88 8b       	std	Y+16, r24	; 0x10
     f26:	04 c0       	rjmp	.+8      	; 0xf30 <LcdMoveCurs+0x4c>
     f28:	82 e0       	ldi	r24, 0x02	; 2
     f2a:	90 e0       	ldi	r25, 0x00	; 0
     f2c:	99 8b       	std	Y+17, r25	; 0x11
     f2e:	88 8b       	std	Y+16, r24	; 0x10
     f30:	88 89       	ldd	r24, Y+16	; 0x10
     f32:	99 89       	ldd	r25, Y+17	; 0x11
     f34:	90 93 61 00 	sts	0x0061, r25
     f38:	80 93 60 00 	sts	0x0060, r24

			}
		if(Way == 'd')
     f3c:	89 85       	ldd	r24, Y+9	; 0x09
     f3e:	84 36       	cpi	r24, 0x64	; 100
     f40:	f9 f4       	brne	.+62     	; 0xf80 <LcdMoveCurs+0x9c>
			{
				short temp_wiersz = wiersz;
     f42:	80 91 60 00 	lds	r24, 0x0060
     f46:	90 91 61 00 	lds	r25, 0x0061
     f4a:	9e 83       	std	Y+6, r25	; 0x06
     f4c:	8d 83       	std	Y+5, r24	; 0x05
				wiersz = (++temp_wiersz == 3)?  1: temp_wiersz ;
     f4e:	8d 81       	ldd	r24, Y+5	; 0x05
     f50:	9e 81       	ldd	r25, Y+6	; 0x06
     f52:	01 96       	adiw	r24, 0x01	; 1
     f54:	9e 83       	std	Y+6, r25	; 0x06
     f56:	8d 83       	std	Y+5, r24	; 0x05
     f58:	8d 81       	ldd	r24, Y+5	; 0x05
     f5a:	9e 81       	ldd	r25, Y+6	; 0x06
     f5c:	83 30       	cpi	r24, 0x03	; 3
     f5e:	91 05       	cpc	r25, r1
     f60:	29 f0       	breq	.+10     	; 0xf6c <LcdMoveCurs+0x88>
     f62:	8d 81       	ldd	r24, Y+5	; 0x05
     f64:	9e 81       	ldd	r25, Y+6	; 0x06
     f66:	9f 87       	std	Y+15, r25	; 0x0f
     f68:	8e 87       	std	Y+14, r24	; 0x0e
     f6a:	04 c0       	rjmp	.+8      	; 0xf74 <LcdMoveCurs+0x90>
     f6c:	81 e0       	ldi	r24, 0x01	; 1
     f6e:	90 e0       	ldi	r25, 0x00	; 0
     f70:	9f 87       	std	Y+15, r25	; 0x0f
     f72:	8e 87       	std	Y+14, r24	; 0x0e
     f74:	8e 85       	ldd	r24, Y+14	; 0x0e
     f76:	9f 85       	ldd	r25, Y+15	; 0x0f
     f78:	90 93 61 00 	sts	0x0061, r25
     f7c:	80 93 60 00 	sts	0x0060, r24

			}
		if(Way == 'r')
     f80:	89 85       	ldd	r24, Y+9	; 0x09
     f82:	82 37       	cpi	r24, 0x72	; 114
     f84:	a1 f5       	brne	.+104    	; 0xfee <LcdMoveCurs+0x10a>
			{
				short temp_kolumna = kolumna;
     f86:	80 91 cc 01 	lds	r24, 0x01CC
     f8a:	90 91 cd 01 	lds	r25, 0x01CD
     f8e:	9c 83       	std	Y+4, r25	; 0x04
     f90:	8b 83       	std	Y+3, r24	; 0x03
				if(++temp_kolumna == 17)
     f92:	8b 81       	ldd	r24, Y+3	; 0x03
     f94:	9c 81       	ldd	r25, Y+4	; 0x04
     f96:	01 96       	adiw	r24, 0x01	; 1
     f98:	9c 83       	std	Y+4, r25	; 0x04
     f9a:	8b 83       	std	Y+3, r24	; 0x03
     f9c:	8b 81       	ldd	r24, Y+3	; 0x03
     f9e:	9c 81       	ldd	r25, Y+4	; 0x04
     fa0:	81 31       	cpi	r24, 0x11	; 17
     fa2:	91 05       	cpc	r25, r1
     fa4:	d9 f4       	brne	.+54     	; 0xfdc <LcdMoveCurs+0xf8>
					{
					kolumna = 0;
     fa6:	10 92 cd 01 	sts	0x01CD, r1
     faa:	10 92 cc 01 	sts	0x01CC, r1
					wiersz = (wiersz == 2)? 1 : 2;
     fae:	80 91 60 00 	lds	r24, 0x0060
     fb2:	90 91 61 00 	lds	r25, 0x0061
     fb6:	82 30       	cpi	r24, 0x02	; 2
     fb8:	91 05       	cpc	r25, r1
     fba:	29 f4       	brne	.+10     	; 0xfc6 <LcdMoveCurs+0xe2>
     fbc:	81 e0       	ldi	r24, 0x01	; 1
     fbe:	90 e0       	ldi	r25, 0x00	; 0
     fc0:	9d 87       	std	Y+13, r25	; 0x0d
     fc2:	8c 87       	std	Y+12, r24	; 0x0c
     fc4:	04 c0       	rjmp	.+8      	; 0xfce <LcdMoveCurs+0xea>
     fc6:	82 e0       	ldi	r24, 0x02	; 2
     fc8:	90 e0       	ldi	r25, 0x00	; 0
     fca:	9d 87       	std	Y+13, r25	; 0x0d
     fcc:	8c 87       	std	Y+12, r24	; 0x0c
     fce:	8c 85       	ldd	r24, Y+12	; 0x0c
     fd0:	9d 85       	ldd	r25, Y+13	; 0x0d
     fd2:	90 93 61 00 	sts	0x0061, r25
     fd6:	80 93 60 00 	sts	0x0060, r24
     fda:	09 c0       	rjmp	.+18     	; 0xfee <LcdMoveCurs+0x10a>
					}
				else{++kolumna;}
     fdc:	80 91 cc 01 	lds	r24, 0x01CC
     fe0:	90 91 cd 01 	lds	r25, 0x01CD
     fe4:	01 96       	adiw	r24, 0x01	; 1
     fe6:	90 93 cd 01 	sts	0x01CD, r25
     fea:	80 93 cc 01 	sts	0x01CC, r24
			}
		if(Way == 'l')
     fee:	89 85       	ldd	r24, Y+9	; 0x09
     ff0:	8c 36       	cpi	r24, 0x6C	; 108
     ff2:	b9 f5       	brne	.+110    	; 0x1062 <LcdMoveCurs+0x17e>
			{
				short temp_kolumna = kolumna;
     ff4:	80 91 cc 01 	lds	r24, 0x01CC
     ff8:	90 91 cd 01 	lds	r25, 0x01CD
     ffc:	9a 83       	std	Y+2, r25	; 0x02
     ffe:	89 83       	std	Y+1, r24	; 0x01
				if(--temp_kolumna == -1)
    1000:	89 81       	ldd	r24, Y+1	; 0x01
    1002:	9a 81       	ldd	r25, Y+2	; 0x02
    1004:	01 97       	sbiw	r24, 0x01	; 1
    1006:	9a 83       	std	Y+2, r25	; 0x02
    1008:	89 83       	std	Y+1, r24	; 0x01
    100a:	89 81       	ldd	r24, Y+1	; 0x01
    100c:	9a 81       	ldd	r25, Y+2	; 0x02
    100e:	2f ef       	ldi	r18, 0xFF	; 255
    1010:	8f 3f       	cpi	r24, 0xFF	; 255
    1012:	92 07       	cpc	r25, r18
    1014:	e9 f4       	brne	.+58     	; 0x1050 <LcdMoveCurs+0x16c>
					{
					kolumna = 16;
    1016:	80 e1       	ldi	r24, 0x10	; 16
    1018:	90 e0       	ldi	r25, 0x00	; 0
    101a:	90 93 cd 01 	sts	0x01CD, r25
    101e:	80 93 cc 01 	sts	0x01CC, r24
					wiersz = (wiersz == 1)? 2 : 1;
    1022:	80 91 60 00 	lds	r24, 0x0060
    1026:	90 91 61 00 	lds	r25, 0x0061
    102a:	81 30       	cpi	r24, 0x01	; 1
    102c:	91 05       	cpc	r25, r1
    102e:	29 f4       	brne	.+10     	; 0x103a <LcdMoveCurs+0x156>
    1030:	82 e0       	ldi	r24, 0x02	; 2
    1032:	90 e0       	ldi	r25, 0x00	; 0
    1034:	9b 87       	std	Y+11, r25	; 0x0b
    1036:	8a 87       	std	Y+10, r24	; 0x0a
    1038:	04 c0       	rjmp	.+8      	; 0x1042 <LcdMoveCurs+0x15e>
    103a:	81 e0       	ldi	r24, 0x01	; 1
    103c:	90 e0       	ldi	r25, 0x00	; 0
    103e:	9b 87       	std	Y+11, r25	; 0x0b
    1040:	8a 87       	std	Y+10, r24	; 0x0a
    1042:	8a 85       	ldd	r24, Y+10	; 0x0a
    1044:	9b 85       	ldd	r25, Y+11	; 0x0b
    1046:	90 93 61 00 	sts	0x0061, r25
    104a:	80 93 60 00 	sts	0x0060, r24
    104e:	09 c0       	rjmp	.+18     	; 0x1062 <LcdMoveCurs+0x17e>
					}
				else{--kolumna;}
    1050:	80 91 cc 01 	lds	r24, 0x01CC
    1054:	90 91 cd 01 	lds	r25, 0x01CD
    1058:	01 97       	sbiw	r24, 0x01	; 1
    105a:	90 93 cd 01 	sts	0x01CD, r25
    105e:	80 93 cc 01 	sts	0x01CC, r24
			}

	LcdMoveTo(wiersz,kolumna);
    1062:	80 91 cc 01 	lds	r24, 0x01CC
    1066:	90 91 cd 01 	lds	r25, 0x01CD
    106a:	20 91 60 00 	lds	r18, 0x0060
    106e:	30 91 61 00 	lds	r19, 0x0061
    1072:	bc 01       	movw	r22, r24
    1074:	c9 01       	movw	r24, r18
    1076:	0e 94 ba 05 	call	0xb74	; 0xb74 <LcdMoveTo>

	}
    107a:	61 96       	adiw	r28, 0x11	; 17
    107c:	0f b6       	in	r0, 0x3f	; 63
    107e:	f8 94       	cli
    1080:	de bf       	out	0x3e, r29	; 62
    1082:	0f be       	out	0x3f, r0	; 63
    1084:	cd bf       	out	0x3d, r28	; 61
    1086:	cf 91       	pop	r28
    1088:	df 91       	pop	r29
    108a:	08 95       	ret

0000108c <LcdSpace>:

//*****************************************************************************

void LcdSpace()								// Na wyswietlczu zostanie wstawiona
	{										// spacja . ( kolumny sa zliczane bezposrednio
    108c:	df 93       	push	r29
    108e:	cf 93       	push	r28
    1090:	cd b7       	in	r28, 0x3d	; 61
    1092:	de b7       	in	r29, 0x3e	; 62
											// w funkcji wypisujacej.
		LcdViewSign(' ');
    1094:	80 e2       	ldi	r24, 0x20	; 32
    1096:	0e 94 76 05 	call	0xaec	; 0xaec <LcdViewSign>

	}
    109a:	cf 91       	pop	r28
    109c:	df 91       	pop	r29
    109e:	08 95       	ret

000010a0 <LcdBackspace>:


//*****************************************************************************

void LcdBackspace()	
	{
    10a0:	df 93       	push	r29
    10a2:	cf 93       	push	r28
    10a4:	cd b7       	in	r28, 0x3d	; 61
    10a6:	de b7       	in	r29, 0x3e	; 62
		if(kolumna > 0)
    10a8:	80 91 cc 01 	lds	r24, 0x01CC
    10ac:	90 91 cd 01 	lds	r25, 0x01CD
    10b0:	18 16       	cp	r1, r24
    10b2:	19 06       	cpc	r1, r25
    10b4:	44 f4       	brge	.+16     	; 0x10c6 <LcdBackspace+0x26>
			{
			LcdMoveCurs('l');
    10b6:	8c e6       	ldi	r24, 0x6C	; 108
    10b8:	0e 94 72 07 	call	0xee4	; 0xee4 <LcdMoveCurs>
			LcdSpace();
    10bc:	0e 94 46 08 	call	0x108c	; 0x108c <LcdSpace>
			LcdMoveCurs('l');
    10c0:	8c e6       	ldi	r24, 0x6C	; 108
    10c2:	0e 94 72 07 	call	0xee4	; 0xee4 <LcdMoveCurs>
			}

	}
    10c6:	cf 91       	pop	r28
    10c8:	df 91       	pop	r29
    10ca:	08 95       	ret

000010cc <LcdDistance>:

//*****************************************************************************

void LcdDistance(short Number_of_spaces)
	{
    10cc:	df 93       	push	r29
    10ce:	cf 93       	push	r28
    10d0:	00 d0       	rcall	.+0      	; 0x10d2 <LcdDistance+0x6>
    10d2:	00 d0       	rcall	.+0      	; 0x10d4 <LcdDistance+0x8>
    10d4:	cd b7       	in	r28, 0x3d	; 61
    10d6:	de b7       	in	r29, 0x3e	; 62
    10d8:	9c 83       	std	Y+4, r25	; 0x04
    10da:	8b 83       	std	Y+3, r24	; 0x03
		for(int i = 0 ; i <Number_of_spaces ;i++)
    10dc:	1a 82       	std	Y+2, r1	; 0x02
    10de:	19 82       	std	Y+1, r1	; 0x01
    10e0:	07 c0       	rjmp	.+14     	; 0x10f0 <LcdDistance+0x24>
			{
				LcdSpace();
    10e2:	0e 94 46 08 	call	0x108c	; 0x108c <LcdSpace>

//*****************************************************************************

void LcdDistance(short Number_of_spaces)
	{
		for(int i = 0 ; i <Number_of_spaces ;i++)
    10e6:	89 81       	ldd	r24, Y+1	; 0x01
    10e8:	9a 81       	ldd	r25, Y+2	; 0x02
    10ea:	01 96       	adiw	r24, 0x01	; 1
    10ec:	9a 83       	std	Y+2, r25	; 0x02
    10ee:	89 83       	std	Y+1, r24	; 0x01
    10f0:	29 81       	ldd	r18, Y+1	; 0x01
    10f2:	3a 81       	ldd	r19, Y+2	; 0x02
    10f4:	8b 81       	ldd	r24, Y+3	; 0x03
    10f6:	9c 81       	ldd	r25, Y+4	; 0x04
    10f8:	28 17       	cp	r18, r24
    10fa:	39 07       	cpc	r19, r25
    10fc:	94 f3       	brlt	.-28     	; 0x10e2 <LcdDistance+0x16>
			{
				LcdSpace();
			}
	}
    10fe:	0f 90       	pop	r0
    1100:	0f 90       	pop	r0
    1102:	0f 90       	pop	r0
    1104:	0f 90       	pop	r0
    1106:	cf 91       	pop	r28
    1108:	df 91       	pop	r29
    110a:	08 95       	ret

0000110c <InterruptInitial>:
//    0       1			- Jaka kolwiek zmiana
//	  1       0			- zbocze malejace
//    1       1			- zbocze rosnace

void InterruptInitial(short Number , char Edge ,short PortPin)
	{
    110c:	df 93       	push	r29
    110e:	cf 93       	push	r28
    1110:	00 d0       	rcall	.+0      	; 0x1112 <InterruptInitial+0x6>
    1112:	00 d0       	rcall	.+0      	; 0x1114 <InterruptInitial+0x8>
    1114:	0f 92       	push	r0
    1116:	cd b7       	in	r28, 0x3d	; 61
    1118:	de b7       	in	r29, 0x3e	; 62
    111a:	9a 83       	std	Y+2, r25	; 0x02
    111c:	89 83       	std	Y+1, r24	; 0x01
    111e:	6b 83       	std	Y+3, r22	; 0x03
    1120:	5d 83       	std	Y+5, r21	; 0x05
    1122:	4c 83       	std	Y+4, r20	; 0x04
		if(!Number)
    1124:	89 81       	ldd	r24, Y+1	; 0x01
    1126:	9a 81       	ldd	r25, Y+2	; 0x02
    1128:	00 97       	sbiw	r24, 0x00	; 0
    112a:	09 f0       	breq	.+2      	; 0x112e <InterruptInitial+0x22>
    112c:	3e c0       	rjmp	.+124    	; 0x11aa <InterruptInitial+0x9e>
			{   
				Int_reg |= 1<<INT0;
    112e:	ab e5       	ldi	r26, 0x5B	; 91
    1130:	b0 e0       	ldi	r27, 0x00	; 0
    1132:	eb e5       	ldi	r30, 0x5B	; 91
    1134:	f0 e0       	ldi	r31, 0x00	; 0
    1136:	80 81       	ld	r24, Z
    1138:	80 64       	ori	r24, 0x40	; 64
    113a:	8c 93       	st	X, r24
				if(Edge == 'u'){Int_get |= ( 1<<ISC01 | 1<<ISC00 );}
    113c:	8b 81       	ldd	r24, Y+3	; 0x03
    113e:	85 37       	cpi	r24, 0x75	; 117
    1140:	39 f4       	brne	.+14     	; 0x1150 <InterruptInitial+0x44>
    1142:	a5 e5       	ldi	r26, 0x55	; 85
    1144:	b0 e0       	ldi	r27, 0x00	; 0
    1146:	e5 e5       	ldi	r30, 0x55	; 85
    1148:	f0 e0       	ldi	r31, 0x00	; 0
    114a:	80 81       	ld	r24, Z
    114c:	83 60       	ori	r24, 0x03	; 3
    114e:	8c 93       	st	X, r24
				if(Edge == 'f'){Int_get =(Int_get|= 1<<ISC01) & ~(1<<ISC00);} 
    1150:	8b 81       	ldd	r24, Y+3	; 0x03
    1152:	86 36       	cpi	r24, 0x66	; 102
    1154:	69 f4       	brne	.+26     	; 0x1170 <InterruptInitial+0x64>
    1156:	25 e5       	ldi	r18, 0x55	; 85
    1158:	30 e0       	ldi	r19, 0x00	; 0
    115a:	a5 e5       	ldi	r26, 0x55	; 85
    115c:	b0 e0       	ldi	r27, 0x00	; 0
    115e:	e5 e5       	ldi	r30, 0x55	; 85
    1160:	f0 e0       	ldi	r31, 0x00	; 0
    1162:	80 81       	ld	r24, Z
    1164:	82 60       	ori	r24, 0x02	; 2
    1166:	8c 93       	st	X, r24
    1168:	8c 91       	ld	r24, X
    116a:	8e 7f       	andi	r24, 0xFE	; 254
    116c:	f9 01       	movw	r30, r18
    116e:	80 83       	st	Z, r24
				if(Edge == 'b'){Int_get = (Int_get | 1<<ISC00) & ~(1<<ISC01);}
    1170:	8b 81       	ldd	r24, Y+3	; 0x03
    1172:	82 36       	cpi	r24, 0x62	; 98
    1174:	41 f4       	brne	.+16     	; 0x1186 <InterruptInitial+0x7a>
    1176:	a5 e5       	ldi	r26, 0x55	; 85
    1178:	b0 e0       	ldi	r27, 0x00	; 0
    117a:	e5 e5       	ldi	r30, 0x55	; 85
    117c:	f0 e0       	ldi	r31, 0x00	; 0
    117e:	80 81       	ld	r24, Z
    1180:	8c 7f       	andi	r24, 0xFC	; 252
    1182:	81 60       	ori	r24, 0x01	; 1
    1184:	8c 93       	st	X, r24
				if(Edge == 'l'){(Int_get &= ~(1<<ISC00 | 1<<ISC01));}
    1186:	8b 81       	ldd	r24, Y+3	; 0x03
    1188:	8c 36       	cpi	r24, 0x6C	; 108
    118a:	39 f4       	brne	.+14     	; 0x119a <InterruptInitial+0x8e>
    118c:	a5 e5       	ldi	r26, 0x55	; 85
    118e:	b0 e0       	ldi	r27, 0x00	; 0
    1190:	e5 e5       	ldi	r30, 0x55	; 85
    1192:	f0 e0       	ldi	r31, 0x00	; 0
    1194:	80 81       	ld	r24, Z
    1196:	8c 7f       	andi	r24, 0xFC	; 252
    1198:	8c 93       	st	X, r24
				Int_flag_reg |= 1<<INTF0;
    119a:	aa e5       	ldi	r26, 0x5A	; 90
    119c:	b0 e0       	ldi	r27, 0x00	; 0
    119e:	ea e5       	ldi	r30, 0x5A	; 90
    11a0:	f0 e0       	ldi	r31, 0x00	; 0
    11a2:	80 81       	ld	r24, Z
    11a4:	80 64       	ori	r24, 0x40	; 64
    11a6:	8c 93       	st	X, r24
    11a8:	3d c0       	rjmp	.+122    	; 0x1224 <InterruptInitial+0x118>
			}
			
		else{		
					
				Int_reg |= 1<<INT1;
    11aa:	ab e5       	ldi	r26, 0x5B	; 91
    11ac:	b0 e0       	ldi	r27, 0x00	; 0
    11ae:	eb e5       	ldi	r30, 0x5B	; 91
    11b0:	f0 e0       	ldi	r31, 0x00	; 0
    11b2:	80 81       	ld	r24, Z
    11b4:	80 68       	ori	r24, 0x80	; 128
    11b6:	8c 93       	st	X, r24
				if(Edge == 'u'){Int_get |= ( 1<<ISC11 | 1<<ISC10 );}
    11b8:	8b 81       	ldd	r24, Y+3	; 0x03
    11ba:	85 37       	cpi	r24, 0x75	; 117
    11bc:	39 f4       	brne	.+14     	; 0x11cc <InterruptInitial+0xc0>
    11be:	a5 e5       	ldi	r26, 0x55	; 85
    11c0:	b0 e0       	ldi	r27, 0x00	; 0
    11c2:	e5 e5       	ldi	r30, 0x55	; 85
    11c4:	f0 e0       	ldi	r31, 0x00	; 0
    11c6:	80 81       	ld	r24, Z
    11c8:	8c 60       	ori	r24, 0x0C	; 12
    11ca:	8c 93       	st	X, r24
				if(Edge == 'f'){Int_get =(Int_get|= 1<<ISC11) & ~(1<<ISC10);} 
    11cc:	8b 81       	ldd	r24, Y+3	; 0x03
    11ce:	86 36       	cpi	r24, 0x66	; 102
    11d0:	69 f4       	brne	.+26     	; 0x11ec <InterruptInitial+0xe0>
    11d2:	25 e5       	ldi	r18, 0x55	; 85
    11d4:	30 e0       	ldi	r19, 0x00	; 0
    11d6:	a5 e5       	ldi	r26, 0x55	; 85
    11d8:	b0 e0       	ldi	r27, 0x00	; 0
    11da:	e5 e5       	ldi	r30, 0x55	; 85
    11dc:	f0 e0       	ldi	r31, 0x00	; 0
    11de:	80 81       	ld	r24, Z
    11e0:	88 60       	ori	r24, 0x08	; 8
    11e2:	8c 93       	st	X, r24
    11e4:	8c 91       	ld	r24, X
    11e6:	8b 7f       	andi	r24, 0xFB	; 251
    11e8:	f9 01       	movw	r30, r18
    11ea:	80 83       	st	Z, r24
				if(Edge == 'b'){Int_get = (Int_get | 1<<ISC10) & ~(1<<ISC11);}
    11ec:	8b 81       	ldd	r24, Y+3	; 0x03
    11ee:	82 36       	cpi	r24, 0x62	; 98
    11f0:	41 f4       	brne	.+16     	; 0x1202 <InterruptInitial+0xf6>
    11f2:	a5 e5       	ldi	r26, 0x55	; 85
    11f4:	b0 e0       	ldi	r27, 0x00	; 0
    11f6:	e5 e5       	ldi	r30, 0x55	; 85
    11f8:	f0 e0       	ldi	r31, 0x00	; 0
    11fa:	80 81       	ld	r24, Z
    11fc:	83 7f       	andi	r24, 0xF3	; 243
    11fe:	84 60       	ori	r24, 0x04	; 4
    1200:	8c 93       	st	X, r24
				if(Edge == 'l'){(Int_get &= ~(1<<ISC10 | 1<<ISC11));}
    1202:	8b 81       	ldd	r24, Y+3	; 0x03
    1204:	8c 36       	cpi	r24, 0x6C	; 108
    1206:	39 f4       	brne	.+14     	; 0x1216 <InterruptInitial+0x10a>
    1208:	a5 e5       	ldi	r26, 0x55	; 85
    120a:	b0 e0       	ldi	r27, 0x00	; 0
    120c:	e5 e5       	ldi	r30, 0x55	; 85
    120e:	f0 e0       	ldi	r31, 0x00	; 0
    1210:	80 81       	ld	r24, Z
    1212:	83 7f       	andi	r24, 0xF3	; 243
    1214:	8c 93       	st	X, r24
				Int_flag_reg |= 1<<INTF1;
    1216:	aa e5       	ldi	r26, 0x5A	; 90
    1218:	b0 e0       	ldi	r27, 0x00	; 0
    121a:	ea e5       	ldi	r30, 0x5A	; 90
    121c:	f0 e0       	ldi	r31, 0x00	; 0
    121e:	80 81       	ld	r24, Z
    1220:	80 68       	ori	r24, 0x80	; 128
    1222:	8c 93       	st	X, r24
			}

		IntPortconf &= ~(1<<PortPin);	
    1224:	a1 e3       	ldi	r26, 0x31	; 49
    1226:	b0 e0       	ldi	r27, 0x00	; 0
    1228:	e1 e3       	ldi	r30, 0x31	; 49
    122a:	f0 e0       	ldi	r31, 0x00	; 0
    122c:	80 81       	ld	r24, Z
    122e:	28 2f       	mov	r18, r24
    1230:	81 e0       	ldi	r24, 0x01	; 1
    1232:	90 e0       	ldi	r25, 0x00	; 0
    1234:	0c 80       	ldd	r0, Y+4	; 0x04
    1236:	02 c0       	rjmp	.+4      	; 0x123c <InterruptInitial+0x130>
    1238:	88 0f       	add	r24, r24
    123a:	99 1f       	adc	r25, r25
    123c:	0a 94       	dec	r0
    123e:	e2 f7       	brpl	.-8      	; 0x1238 <InterruptInitial+0x12c>
    1240:	80 95       	com	r24
    1242:	82 23       	and	r24, r18
    1244:	8c 93       	st	X, r24
		IntPortout |= 1<<PortPin;
    1246:	a2 e3       	ldi	r26, 0x32	; 50
    1248:	b0 e0       	ldi	r27, 0x00	; 0
    124a:	e2 e3       	ldi	r30, 0x32	; 50
    124c:	f0 e0       	ldi	r31, 0x00	; 0
    124e:	80 81       	ld	r24, Z
    1250:	28 2f       	mov	r18, r24
    1252:	81 e0       	ldi	r24, 0x01	; 1
    1254:	90 e0       	ldi	r25, 0x00	; 0
    1256:	0c 80       	ldd	r0, Y+4	; 0x04
    1258:	02 c0       	rjmp	.+4      	; 0x125e <InterruptInitial+0x152>
    125a:	88 0f       	add	r24, r24
    125c:	99 1f       	adc	r25, r25
    125e:	0a 94       	dec	r0
    1260:	e2 f7       	brpl	.-8      	; 0x125a <InterruptInitial+0x14e>
    1262:	82 2b       	or	r24, r18
    1264:	8c 93       	st	X, r24
			
	}
    1266:	0f 90       	pop	r0
    1268:	0f 90       	pop	r0
    126a:	0f 90       	pop	r0
    126c:	0f 90       	pop	r0
    126e:	0f 90       	pop	r0
    1270:	cf 91       	pop	r28
    1272:	df 91       	pop	r29
    1274:	08 95       	ret

00001276 <__vector_1>:

//*******************************************************************************

SIGNAL(INTERRUPT)
	{
    1276:	1f 92       	push	r1
    1278:	0f 92       	push	r0
    127a:	0f b6       	in	r0, 0x3f	; 63
    127c:	0f 92       	push	r0
    127e:	11 24       	eor	r1, r1
    1280:	2f 93       	push	r18
    1282:	3f 93       	push	r19
    1284:	4f 93       	push	r20
    1286:	5f 93       	push	r21
    1288:	6f 93       	push	r22
    128a:	7f 93       	push	r23
    128c:	8f 93       	push	r24
    128e:	9f 93       	push	r25
    1290:	af 93       	push	r26
    1292:	bf 93       	push	r27
    1294:	ef 93       	push	r30
    1296:	ff 93       	push	r31
    1298:	df 93       	push	r29
    129a:	cf 93       	push	r28
    129c:	cd b7       	in	r28, 0x3d	; 61
    129e:	de b7       	in	r29, 0x3e	; 62
    12a0:	aa 97       	sbiw	r28, 0x2a	; 42
    12a2:	de bf       	out	0x3e, r29	; 62
    12a4:	cd bf       	out	0x3d, r28	; 61
    12a6:	80 e0       	ldi	r24, 0x00	; 0
    12a8:	90 e0       	ldi	r25, 0x00	; 0
    12aa:	a0 ea       	ldi	r26, 0xA0	; 160
    12ac:	b1 e4       	ldi	r27, 0x41	; 65
    12ae:	8f a3       	std	Y+39, r24	; 0x27
    12b0:	98 a7       	std	Y+40, r25	; 0x28
    12b2:	a9 a7       	std	Y+41, r26	; 0x29
    12b4:	ba a7       	std	Y+42, r27	; 0x2a
 */
void
_delay_ms(double __ms)
{
	uint16_t __ticks;
	double __tmp = ((F_CPU) / 4e3) * __ms;
    12b6:	20 e0       	ldi	r18, 0x00	; 0
    12b8:	30 e0       	ldi	r19, 0x00	; 0
    12ba:	4a e7       	ldi	r20, 0x7A	; 122
    12bc:	54 e4       	ldi	r21, 0x44	; 68
    12be:	6f a1       	ldd	r22, Y+39	; 0x27
    12c0:	78 a5       	ldd	r23, Y+40	; 0x28
    12c2:	89 a5       	ldd	r24, Y+41	; 0x29
    12c4:	9a a5       	ldd	r25, Y+42	; 0x2a
    12c6:	0e 94 7c 2a 	call	0x54f8	; 0x54f8 <__mulsf3>
    12ca:	dc 01       	movw	r26, r24
    12cc:	cb 01       	movw	r24, r22
    12ce:	8b a3       	std	Y+35, r24	; 0x23
    12d0:	9c a3       	std	Y+36, r25	; 0x24
    12d2:	ad a3       	std	Y+37, r26	; 0x25
    12d4:	be a3       	std	Y+38, r27	; 0x26
	if (__tmp < 1.0)
    12d6:	20 e0       	ldi	r18, 0x00	; 0
    12d8:	30 e0       	ldi	r19, 0x00	; 0
    12da:	40 e8       	ldi	r20, 0x80	; 128
    12dc:	5f e3       	ldi	r21, 0x3F	; 63
    12de:	6b a1       	ldd	r22, Y+35	; 0x23
    12e0:	7c a1       	ldd	r23, Y+36	; 0x24
    12e2:	8d a1       	ldd	r24, Y+37	; 0x25
    12e4:	9e a1       	ldd	r25, Y+38	; 0x26
    12e6:	0e 94 80 2c 	call	0x5900	; 0x5900 <__ltsf2>
    12ea:	88 23       	and	r24, r24
    12ec:	2c f4       	brge	.+10     	; 0x12f8 <__vector_1+0x82>
		__ticks = 1;
    12ee:	81 e0       	ldi	r24, 0x01	; 1
    12f0:	90 e0       	ldi	r25, 0x00	; 0
    12f2:	9a a3       	std	Y+34, r25	; 0x22
    12f4:	89 a3       	std	Y+33, r24	; 0x21
    12f6:	3f c0       	rjmp	.+126    	; 0x1376 <__vector_1+0x100>
	else if (__tmp > 65535)
    12f8:	20 e0       	ldi	r18, 0x00	; 0
    12fa:	3f ef       	ldi	r19, 0xFF	; 255
    12fc:	4f e7       	ldi	r20, 0x7F	; 127
    12fe:	57 e4       	ldi	r21, 0x47	; 71
    1300:	6b a1       	ldd	r22, Y+35	; 0x23
    1302:	7c a1       	ldd	r23, Y+36	; 0x24
    1304:	8d a1       	ldd	r24, Y+37	; 0x25
    1306:	9e a1       	ldd	r25, Y+38	; 0x26
    1308:	0e 94 20 2c 	call	0x5840	; 0x5840 <__gtsf2>
    130c:	18 16       	cp	r1, r24
    130e:	4c f5       	brge	.+82     	; 0x1362 <__vector_1+0xec>
	{
		//	__ticks = requested delay in 1/10 ms
		__ticks = (uint16_t) (__ms * 10.0);
    1310:	20 e0       	ldi	r18, 0x00	; 0
    1312:	30 e0       	ldi	r19, 0x00	; 0
    1314:	40 e2       	ldi	r20, 0x20	; 32
    1316:	51 e4       	ldi	r21, 0x41	; 65
    1318:	6f a1       	ldd	r22, Y+39	; 0x27
    131a:	78 a5       	ldd	r23, Y+40	; 0x28
    131c:	89 a5       	ldd	r24, Y+41	; 0x29
    131e:	9a a5       	ldd	r25, Y+42	; 0x2a
    1320:	0e 94 7c 2a 	call	0x54f8	; 0x54f8 <__mulsf3>
    1324:	dc 01       	movw	r26, r24
    1326:	cb 01       	movw	r24, r22
    1328:	bc 01       	movw	r22, r24
    132a:	cd 01       	movw	r24, r26
    132c:	0e 94 a6 28 	call	0x514c	; 0x514c <__fixunssfsi>
    1330:	dc 01       	movw	r26, r24
    1332:	cb 01       	movw	r24, r22
    1334:	9a a3       	std	Y+34, r25	; 0x22
    1336:	89 a3       	std	Y+33, r24	; 0x21
    1338:	0f c0       	rjmp	.+30     	; 0x1358 <__vector_1+0xe2>
    133a:	84 e6       	ldi	r24, 0x64	; 100
    133c:	90 e0       	ldi	r25, 0x00	; 0
    133e:	98 a3       	std	Y+32, r25	; 0x20
    1340:	8f 8f       	std	Y+31, r24	; 0x1f
    1342:	8f 8d       	ldd	r24, Y+31	; 0x1f
    1344:	98 a1       	ldd	r25, Y+32	; 0x20
    1346:	01 97       	sbiw	r24, 0x01	; 1
    1348:	f1 f7       	brne	.-4      	; 0x1346 <__vector_1+0xd0>
    134a:	98 a3       	std	Y+32, r25	; 0x20
    134c:	8f 8f       	std	Y+31, r24	; 0x1f
		while(__ticks)
		{
			// wait 1/10 ms
			_delay_loop_2(((F_CPU) / 4e3) / 10);
			__ticks --;
    134e:	89 a1       	ldd	r24, Y+33	; 0x21
    1350:	9a a1       	ldd	r25, Y+34	; 0x22
    1352:	01 97       	sbiw	r24, 0x01	; 1
    1354:	9a a3       	std	Y+34, r25	; 0x22
    1356:	89 a3       	std	Y+33, r24	; 0x21
		__ticks = 1;
	else if (__tmp > 65535)
	{
		//	__ticks = requested delay in 1/10 ms
		__ticks = (uint16_t) (__ms * 10.0);
		while(__ticks)
    1358:	89 a1       	ldd	r24, Y+33	; 0x21
    135a:	9a a1       	ldd	r25, Y+34	; 0x22
    135c:	00 97       	sbiw	r24, 0x00	; 0
    135e:	69 f7       	brne	.-38     	; 0x133a <__vector_1+0xc4>
    1360:	14 c0       	rjmp	.+40     	; 0x138a <__vector_1+0x114>
			__ticks --;
		}
		return;
	}
	else
		__ticks = (uint16_t)__tmp;
    1362:	6b a1       	ldd	r22, Y+35	; 0x23
    1364:	7c a1       	ldd	r23, Y+36	; 0x24
    1366:	8d a1       	ldd	r24, Y+37	; 0x25
    1368:	9e a1       	ldd	r25, Y+38	; 0x26
    136a:	0e 94 a6 28 	call	0x514c	; 0x514c <__fixunssfsi>
    136e:	dc 01       	movw	r26, r24
    1370:	cb 01       	movw	r24, r22
    1372:	9a a3       	std	Y+34, r25	; 0x22
    1374:	89 a3       	std	Y+33, r24	; 0x21
    1376:	89 a1       	ldd	r24, Y+33	; 0x21
    1378:	9a a1       	ldd	r25, Y+34	; 0x22
    137a:	9e 8f       	std	Y+30, r25	; 0x1e
    137c:	8d 8f       	std	Y+29, r24	; 0x1d
    137e:	8d 8d       	ldd	r24, Y+29	; 0x1d
    1380:	9e 8d       	ldd	r25, Y+30	; 0x1e
    1382:	01 97       	sbiw	r24, 0x01	; 1
    1384:	f1 f7       	brne	.-4      	; 0x1382 <__vector_1+0x10c>
    1386:	9e 8f       	std	Y+30, r25	; 0x1e
    1388:	8d 8f       	std	Y+29, r24	; 0x1d
	_delay_ms (20);
	if(!NewKey)
    138a:	80 91 c8 01 	lds	r24, 0x01C8
    138e:	90 91 c9 01 	lds	r25, 0x01C9
    1392:	00 97       	sbiw	r24, 0x00	; 0
    1394:	09 f0       	breq	.+2      	; 0x1398 <__vector_1+0x122>
    1396:	60 c1       	rjmp	.+704    	; 0x1658 <__vector_1+0x3e2>
		{
		NewKey = 1;
    1398:	81 e0       	ldi	r24, 0x01	; 1
    139a:	90 e0       	ldi	r25, 0x00	; 0
    139c:	90 93 c9 01 	sts	0x01C9, r25
    13a0:	80 93 c8 01 	sts	0x01C8, r24
		  if(KEYB == 0b00001110){KeyNum = 0;}
    13a4:	e9 e3       	ldi	r30, 0x39	; 57
    13a6:	f0 e0       	ldi	r31, 0x00	; 0
    13a8:	80 81       	ld	r24, Z
    13aa:	8e 30       	cpi	r24, 0x0E	; 14
    13ac:	21 f4       	brne	.+8      	; 0x13b6 <__vector_1+0x140>
    13ae:	10 92 cb 01 	sts	0x01CB, r1
    13b2:	10 92 ca 01 	sts	0x01CA, r1
		  if(KEYB == 0b00001101){KeyNum = 4;}
    13b6:	e9 e3       	ldi	r30, 0x39	; 57
    13b8:	f0 e0       	ldi	r31, 0x00	; 0
    13ba:	80 81       	ld	r24, Z
    13bc:	8d 30       	cpi	r24, 0x0D	; 13
    13be:	31 f4       	brne	.+12     	; 0x13cc <__vector_1+0x156>
    13c0:	84 e0       	ldi	r24, 0x04	; 4
    13c2:	90 e0       	ldi	r25, 0x00	; 0
    13c4:	90 93 cb 01 	sts	0x01CB, r25
    13c8:	80 93 ca 01 	sts	0x01CA, r24
		  if(KEYB == 0b00001011){KeyNum = 8;}
    13cc:	e9 e3       	ldi	r30, 0x39	; 57
    13ce:	f0 e0       	ldi	r31, 0x00	; 0
    13d0:	80 81       	ld	r24, Z
    13d2:	8b 30       	cpi	r24, 0x0B	; 11
    13d4:	31 f4       	brne	.+12     	; 0x13e2 <__vector_1+0x16c>
    13d6:	88 e0       	ldi	r24, 0x08	; 8
    13d8:	90 e0       	ldi	r25, 0x00	; 0
    13da:	90 93 cb 01 	sts	0x01CB, r25
    13de:	80 93 ca 01 	sts	0x01CA, r24
		  if(KEYB == 0b00000111){KeyNum = 12;}
    13e2:	e9 e3       	ldi	r30, 0x39	; 57
    13e4:	f0 e0       	ldi	r31, 0x00	; 0
    13e6:	80 81       	ld	r24, Z
    13e8:	87 30       	cpi	r24, 0x07	; 7
    13ea:	31 f4       	brne	.+12     	; 0x13f8 <__vector_1+0x182>
    13ec:	8c e0       	ldi	r24, 0x0C	; 12
    13ee:	90 e0       	ldi	r25, 0x00	; 0
    13f0:	90 93 cb 01 	sts	0x01CB, r25
    13f4:	80 93 ca 01 	sts	0x01CA, r24
		KEYSD = 0b00001111;
    13f8:	ea e3       	ldi	r30, 0x3A	; 58
    13fa:	f0 e0       	ldi	r31, 0x00	; 0
    13fc:	8f e0       	ldi	r24, 0x0F	; 15
    13fe:	80 83       	st	Z, r24
		KEYSP = 0b11110000;
    1400:	eb e3       	ldi	r30, 0x3B	; 59
    1402:	f0 e0       	ldi	r31, 0x00	; 0
    1404:	80 ef       	ldi	r24, 0xF0	; 240
    1406:	80 83       	st	Z, r24
    1408:	80 e0       	ldi	r24, 0x00	; 0
    140a:	90 e0       	ldi	r25, 0x00	; 0
    140c:	a0 e7       	ldi	r26, 0x70	; 112
    140e:	b2 e4       	ldi	r27, 0x42	; 66
    1410:	89 8f       	std	Y+25, r24	; 0x19
    1412:	9a 8f       	std	Y+26, r25	; 0x1a
    1414:	ab 8f       	std	Y+27, r26	; 0x1b
    1416:	bc 8f       	std	Y+28, r27	; 0x1c
 */
void
_delay_ms(double __ms)
{
	uint16_t __ticks;
	double __tmp = ((F_CPU) / 4e3) * __ms;
    1418:	20 e0       	ldi	r18, 0x00	; 0
    141a:	30 e0       	ldi	r19, 0x00	; 0
    141c:	4a e7       	ldi	r20, 0x7A	; 122
    141e:	54 e4       	ldi	r21, 0x44	; 68
    1420:	69 8d       	ldd	r22, Y+25	; 0x19
    1422:	7a 8d       	ldd	r23, Y+26	; 0x1a
    1424:	8b 8d       	ldd	r24, Y+27	; 0x1b
    1426:	9c 8d       	ldd	r25, Y+28	; 0x1c
    1428:	0e 94 7c 2a 	call	0x54f8	; 0x54f8 <__mulsf3>
    142c:	dc 01       	movw	r26, r24
    142e:	cb 01       	movw	r24, r22
    1430:	8d 8b       	std	Y+21, r24	; 0x15
    1432:	9e 8b       	std	Y+22, r25	; 0x16
    1434:	af 8b       	std	Y+23, r26	; 0x17
    1436:	b8 8f       	std	Y+24, r27	; 0x18
	if (__tmp < 1.0)
    1438:	20 e0       	ldi	r18, 0x00	; 0
    143a:	30 e0       	ldi	r19, 0x00	; 0
    143c:	40 e8       	ldi	r20, 0x80	; 128
    143e:	5f e3       	ldi	r21, 0x3F	; 63
    1440:	6d 89       	ldd	r22, Y+21	; 0x15
    1442:	7e 89       	ldd	r23, Y+22	; 0x16
    1444:	8f 89       	ldd	r24, Y+23	; 0x17
    1446:	98 8d       	ldd	r25, Y+24	; 0x18
    1448:	0e 94 80 2c 	call	0x5900	; 0x5900 <__ltsf2>
    144c:	88 23       	and	r24, r24
    144e:	2c f4       	brge	.+10     	; 0x145a <__vector_1+0x1e4>
		__ticks = 1;
    1450:	81 e0       	ldi	r24, 0x01	; 1
    1452:	90 e0       	ldi	r25, 0x00	; 0
    1454:	9c 8b       	std	Y+20, r25	; 0x14
    1456:	8b 8b       	std	Y+19, r24	; 0x13
    1458:	3f c0       	rjmp	.+126    	; 0x14d8 <__vector_1+0x262>
	else if (__tmp > 65535)
    145a:	20 e0       	ldi	r18, 0x00	; 0
    145c:	3f ef       	ldi	r19, 0xFF	; 255
    145e:	4f e7       	ldi	r20, 0x7F	; 127
    1460:	57 e4       	ldi	r21, 0x47	; 71
    1462:	6d 89       	ldd	r22, Y+21	; 0x15
    1464:	7e 89       	ldd	r23, Y+22	; 0x16
    1466:	8f 89       	ldd	r24, Y+23	; 0x17
    1468:	98 8d       	ldd	r25, Y+24	; 0x18
    146a:	0e 94 20 2c 	call	0x5840	; 0x5840 <__gtsf2>
    146e:	18 16       	cp	r1, r24
    1470:	4c f5       	brge	.+82     	; 0x14c4 <__vector_1+0x24e>
	{
		//	__ticks = requested delay in 1/10 ms
		__ticks = (uint16_t) (__ms * 10.0);
    1472:	20 e0       	ldi	r18, 0x00	; 0
    1474:	30 e0       	ldi	r19, 0x00	; 0
    1476:	40 e2       	ldi	r20, 0x20	; 32
    1478:	51 e4       	ldi	r21, 0x41	; 65
    147a:	69 8d       	ldd	r22, Y+25	; 0x19
    147c:	7a 8d       	ldd	r23, Y+26	; 0x1a
    147e:	8b 8d       	ldd	r24, Y+27	; 0x1b
    1480:	9c 8d       	ldd	r25, Y+28	; 0x1c
    1482:	0e 94 7c 2a 	call	0x54f8	; 0x54f8 <__mulsf3>
    1486:	dc 01       	movw	r26, r24
    1488:	cb 01       	movw	r24, r22
    148a:	bc 01       	movw	r22, r24
    148c:	cd 01       	movw	r24, r26
    148e:	0e 94 a6 28 	call	0x514c	; 0x514c <__fixunssfsi>
    1492:	dc 01       	movw	r26, r24
    1494:	cb 01       	movw	r24, r22
    1496:	9c 8b       	std	Y+20, r25	; 0x14
    1498:	8b 8b       	std	Y+19, r24	; 0x13
    149a:	0f c0       	rjmp	.+30     	; 0x14ba <__vector_1+0x244>
    149c:	84 e6       	ldi	r24, 0x64	; 100
    149e:	90 e0       	ldi	r25, 0x00	; 0
    14a0:	9a 8b       	std	Y+18, r25	; 0x12
    14a2:	89 8b       	std	Y+17, r24	; 0x11
    14a4:	89 89       	ldd	r24, Y+17	; 0x11
    14a6:	9a 89       	ldd	r25, Y+18	; 0x12
    14a8:	01 97       	sbiw	r24, 0x01	; 1
    14aa:	f1 f7       	brne	.-4      	; 0x14a8 <__vector_1+0x232>
    14ac:	9a 8b       	std	Y+18, r25	; 0x12
    14ae:	89 8b       	std	Y+17, r24	; 0x11
		while(__ticks)
		{
			// wait 1/10 ms
			_delay_loop_2(((F_CPU) / 4e3) / 10);
			__ticks --;
    14b0:	8b 89       	ldd	r24, Y+19	; 0x13
    14b2:	9c 89       	ldd	r25, Y+20	; 0x14
    14b4:	01 97       	sbiw	r24, 0x01	; 1
    14b6:	9c 8b       	std	Y+20, r25	; 0x14
    14b8:	8b 8b       	std	Y+19, r24	; 0x13
		__ticks = 1;
	else if (__tmp > 65535)
	{
		//	__ticks = requested delay in 1/10 ms
		__ticks = (uint16_t) (__ms * 10.0);
		while(__ticks)
    14ba:	8b 89       	ldd	r24, Y+19	; 0x13
    14bc:	9c 89       	ldd	r25, Y+20	; 0x14
    14be:	00 97       	sbiw	r24, 0x00	; 0
    14c0:	69 f7       	brne	.-38     	; 0x149c <__vector_1+0x226>
    14c2:	14 c0       	rjmp	.+40     	; 0x14ec <__vector_1+0x276>
			__ticks --;
		}
		return;
	}
	else
		__ticks = (uint16_t)__tmp;
    14c4:	6d 89       	ldd	r22, Y+21	; 0x15
    14c6:	7e 89       	ldd	r23, Y+22	; 0x16
    14c8:	8f 89       	ldd	r24, Y+23	; 0x17
    14ca:	98 8d       	ldd	r25, Y+24	; 0x18
    14cc:	0e 94 a6 28 	call	0x514c	; 0x514c <__fixunssfsi>
    14d0:	dc 01       	movw	r26, r24
    14d2:	cb 01       	movw	r24, r22
    14d4:	9c 8b       	std	Y+20, r25	; 0x14
    14d6:	8b 8b       	std	Y+19, r24	; 0x13
    14d8:	8b 89       	ldd	r24, Y+19	; 0x13
    14da:	9c 89       	ldd	r25, Y+20	; 0x14
    14dc:	98 8b       	std	Y+16, r25	; 0x10
    14de:	8f 87       	std	Y+15, r24	; 0x0f
    14e0:	8f 85       	ldd	r24, Y+15	; 0x0f
    14e2:	98 89       	ldd	r25, Y+16	; 0x10
    14e4:	01 97       	sbiw	r24, 0x01	; 1
    14e6:	f1 f7       	brne	.-4      	; 0x14e4 <__vector_1+0x26e>
    14e8:	98 8b       	std	Y+16, r25	; 0x10
    14ea:	8f 87       	std	Y+15, r24	; 0x0f
		_delay_ms(60);
		  if(KEYB == 0b11100000){KeyNum += 0;}
    14ec:	e9 e3       	ldi	r30, 0x39	; 57
    14ee:	f0 e0       	ldi	r31, 0x00	; 0
    14f0:	80 81       	ld	r24, Z
    14f2:	80 3e       	cpi	r24, 0xE0	; 224
    14f4:	41 f4       	brne	.+16     	; 0x1506 <__vector_1+0x290>
    14f6:	80 91 ca 01 	lds	r24, 0x01CA
    14fa:	90 91 cb 01 	lds	r25, 0x01CB
    14fe:	90 93 cb 01 	sts	0x01CB, r25
    1502:	80 93 ca 01 	sts	0x01CA, r24
		  if(KEYB == 0b11010000){KeyNum += 1;}
    1506:	e9 e3       	ldi	r30, 0x39	; 57
    1508:	f0 e0       	ldi	r31, 0x00	; 0
    150a:	80 81       	ld	r24, Z
    150c:	80 3d       	cpi	r24, 0xD0	; 208
    150e:	49 f4       	brne	.+18     	; 0x1522 <__vector_1+0x2ac>
    1510:	80 91 ca 01 	lds	r24, 0x01CA
    1514:	90 91 cb 01 	lds	r25, 0x01CB
    1518:	01 96       	adiw	r24, 0x01	; 1
    151a:	90 93 cb 01 	sts	0x01CB, r25
    151e:	80 93 ca 01 	sts	0x01CA, r24
		  if(KEYB == 0b10110000){KeyNum += 2;}
    1522:	e9 e3       	ldi	r30, 0x39	; 57
    1524:	f0 e0       	ldi	r31, 0x00	; 0
    1526:	80 81       	ld	r24, Z
    1528:	80 3b       	cpi	r24, 0xB0	; 176
    152a:	49 f4       	brne	.+18     	; 0x153e <__vector_1+0x2c8>
    152c:	80 91 ca 01 	lds	r24, 0x01CA
    1530:	90 91 cb 01 	lds	r25, 0x01CB
    1534:	02 96       	adiw	r24, 0x02	; 2
    1536:	90 93 cb 01 	sts	0x01CB, r25
    153a:	80 93 ca 01 	sts	0x01CA, r24
		  if(KEYB == 0b01110000){KeyNum += 3;}
    153e:	e9 e3       	ldi	r30, 0x39	; 57
    1540:	f0 e0       	ldi	r31, 0x00	; 0
    1542:	80 81       	ld	r24, Z
    1544:	80 37       	cpi	r24, 0x70	; 112
    1546:	49 f4       	brne	.+18     	; 0x155a <__vector_1+0x2e4>
    1548:	80 91 ca 01 	lds	r24, 0x01CA
    154c:	90 91 cb 01 	lds	r25, 0x01CB
    1550:	03 96       	adiw	r24, 0x03	; 3
    1552:	90 93 cb 01 	sts	0x01CB, r25
    1556:	80 93 ca 01 	sts	0x01CA, r24
		KEYSD = 0b11110000;
    155a:	ea e3       	ldi	r30, 0x3A	; 58
    155c:	f0 e0       	ldi	r31, 0x00	; 0
    155e:	80 ef       	ldi	r24, 0xF0	; 240
    1560:	80 83       	st	Z, r24
		KEYSP = 0b00001111;
    1562:	eb e3       	ldi	r30, 0x3B	; 59
    1564:	f0 e0       	ldi	r31, 0x00	; 0
    1566:	8f e0       	ldi	r24, 0x0F	; 15
    1568:	80 83       	st	Z, r24
		GIFR = 1<<INTF0;
    156a:	ea e5       	ldi	r30, 0x5A	; 90
    156c:	f0 e0       	ldi	r31, 0x00	; 0
    156e:	80 e4       	ldi	r24, 0x40	; 64
    1570:	80 83       	st	Z, r24
    1572:	80 e0       	ldi	r24, 0x00	; 0
    1574:	90 e0       	ldi	r25, 0x00	; 0
    1576:	a0 ea       	ldi	r26, 0xA0	; 160
    1578:	b1 e4       	ldi	r27, 0x41	; 65
    157a:	8b 87       	std	Y+11, r24	; 0x0b
    157c:	9c 87       	std	Y+12, r25	; 0x0c
    157e:	ad 87       	std	Y+13, r26	; 0x0d
    1580:	be 87       	std	Y+14, r27	; 0x0e
 */
void
_delay_ms(double __ms)
{
	uint16_t __ticks;
	double __tmp = ((F_CPU) / 4e3) * __ms;
    1582:	20 e0       	ldi	r18, 0x00	; 0
    1584:	30 e0       	ldi	r19, 0x00	; 0
    1586:	4a e7       	ldi	r20, 0x7A	; 122
    1588:	54 e4       	ldi	r21, 0x44	; 68
    158a:	6b 85       	ldd	r22, Y+11	; 0x0b
    158c:	7c 85       	ldd	r23, Y+12	; 0x0c
    158e:	8d 85       	ldd	r24, Y+13	; 0x0d
    1590:	9e 85       	ldd	r25, Y+14	; 0x0e
    1592:	0e 94 7c 2a 	call	0x54f8	; 0x54f8 <__mulsf3>
    1596:	dc 01       	movw	r26, r24
    1598:	cb 01       	movw	r24, r22
    159a:	8f 83       	std	Y+7, r24	; 0x07
    159c:	98 87       	std	Y+8, r25	; 0x08
    159e:	a9 87       	std	Y+9, r26	; 0x09
    15a0:	ba 87       	std	Y+10, r27	; 0x0a
	if (__tmp < 1.0)
    15a2:	20 e0       	ldi	r18, 0x00	; 0
    15a4:	30 e0       	ldi	r19, 0x00	; 0
    15a6:	40 e8       	ldi	r20, 0x80	; 128
    15a8:	5f e3       	ldi	r21, 0x3F	; 63
    15aa:	6f 81       	ldd	r22, Y+7	; 0x07
    15ac:	78 85       	ldd	r23, Y+8	; 0x08
    15ae:	89 85       	ldd	r24, Y+9	; 0x09
    15b0:	9a 85       	ldd	r25, Y+10	; 0x0a
    15b2:	0e 94 80 2c 	call	0x5900	; 0x5900 <__ltsf2>
    15b6:	88 23       	and	r24, r24
    15b8:	2c f4       	brge	.+10     	; 0x15c4 <__vector_1+0x34e>
		__ticks = 1;
    15ba:	81 e0       	ldi	r24, 0x01	; 1
    15bc:	90 e0       	ldi	r25, 0x00	; 0
    15be:	9e 83       	std	Y+6, r25	; 0x06
    15c0:	8d 83       	std	Y+5, r24	; 0x05
    15c2:	3f c0       	rjmp	.+126    	; 0x1642 <__vector_1+0x3cc>
	else if (__tmp > 65535)
    15c4:	20 e0       	ldi	r18, 0x00	; 0
    15c6:	3f ef       	ldi	r19, 0xFF	; 255
    15c8:	4f e7       	ldi	r20, 0x7F	; 127
    15ca:	57 e4       	ldi	r21, 0x47	; 71
    15cc:	6f 81       	ldd	r22, Y+7	; 0x07
    15ce:	78 85       	ldd	r23, Y+8	; 0x08
    15d0:	89 85       	ldd	r24, Y+9	; 0x09
    15d2:	9a 85       	ldd	r25, Y+10	; 0x0a
    15d4:	0e 94 20 2c 	call	0x5840	; 0x5840 <__gtsf2>
    15d8:	18 16       	cp	r1, r24
    15da:	4c f5       	brge	.+82     	; 0x162e <__vector_1+0x3b8>
	{
		//	__ticks = requested delay in 1/10 ms
		__ticks = (uint16_t) (__ms * 10.0);
    15dc:	20 e0       	ldi	r18, 0x00	; 0
    15de:	30 e0       	ldi	r19, 0x00	; 0
    15e0:	40 e2       	ldi	r20, 0x20	; 32
    15e2:	51 e4       	ldi	r21, 0x41	; 65
    15e4:	6b 85       	ldd	r22, Y+11	; 0x0b
    15e6:	7c 85       	ldd	r23, Y+12	; 0x0c
    15e8:	8d 85       	ldd	r24, Y+13	; 0x0d
    15ea:	9e 85       	ldd	r25, Y+14	; 0x0e
    15ec:	0e 94 7c 2a 	call	0x54f8	; 0x54f8 <__mulsf3>
    15f0:	dc 01       	movw	r26, r24
    15f2:	cb 01       	movw	r24, r22
    15f4:	bc 01       	movw	r22, r24
    15f6:	cd 01       	movw	r24, r26
    15f8:	0e 94 a6 28 	call	0x514c	; 0x514c <__fixunssfsi>
    15fc:	dc 01       	movw	r26, r24
    15fe:	cb 01       	movw	r24, r22
    1600:	9e 83       	std	Y+6, r25	; 0x06
    1602:	8d 83       	std	Y+5, r24	; 0x05
    1604:	0f c0       	rjmp	.+30     	; 0x1624 <__vector_1+0x3ae>
    1606:	84 e6       	ldi	r24, 0x64	; 100
    1608:	90 e0       	ldi	r25, 0x00	; 0
    160a:	9c 83       	std	Y+4, r25	; 0x04
    160c:	8b 83       	std	Y+3, r24	; 0x03
    160e:	8b 81       	ldd	r24, Y+3	; 0x03
    1610:	9c 81       	ldd	r25, Y+4	; 0x04
    1612:	01 97       	sbiw	r24, 0x01	; 1
    1614:	f1 f7       	brne	.-4      	; 0x1612 <__vector_1+0x39c>
    1616:	9c 83       	std	Y+4, r25	; 0x04
    1618:	8b 83       	std	Y+3, r24	; 0x03
		while(__ticks)
		{
			// wait 1/10 ms
			_delay_loop_2(((F_CPU) / 4e3) / 10);
			__ticks --;
    161a:	8d 81       	ldd	r24, Y+5	; 0x05
    161c:	9e 81       	ldd	r25, Y+6	; 0x06
    161e:	01 97       	sbiw	r24, 0x01	; 1
    1620:	9e 83       	std	Y+6, r25	; 0x06
    1622:	8d 83       	std	Y+5, r24	; 0x05
		__ticks = 1;
	else if (__tmp > 65535)
	{
		//	__ticks = requested delay in 1/10 ms
		__ticks = (uint16_t) (__ms * 10.0);
		while(__ticks)
    1624:	8d 81       	ldd	r24, Y+5	; 0x05
    1626:	9e 81       	ldd	r25, Y+6	; 0x06
    1628:	00 97       	sbiw	r24, 0x00	; 0
    162a:	69 f7       	brne	.-38     	; 0x1606 <__vector_1+0x390>
    162c:	1d c0       	rjmp	.+58     	; 0x1668 <__vector_1+0x3f2>
			__ticks --;
		}
		return;
	}
	else
		__ticks = (uint16_t)__tmp;
    162e:	6f 81       	ldd	r22, Y+7	; 0x07
    1630:	78 85       	ldd	r23, Y+8	; 0x08
    1632:	89 85       	ldd	r24, Y+9	; 0x09
    1634:	9a 85       	ldd	r25, Y+10	; 0x0a
    1636:	0e 94 a6 28 	call	0x514c	; 0x514c <__fixunssfsi>
    163a:	dc 01       	movw	r26, r24
    163c:	cb 01       	movw	r24, r22
    163e:	9e 83       	std	Y+6, r25	; 0x06
    1640:	8d 83       	std	Y+5, r24	; 0x05
    1642:	8d 81       	ldd	r24, Y+5	; 0x05
    1644:	9e 81       	ldd	r25, Y+6	; 0x06
    1646:	9a 83       	std	Y+2, r25	; 0x02
    1648:	89 83       	std	Y+1, r24	; 0x01
    164a:	89 81       	ldd	r24, Y+1	; 0x01
    164c:	9a 81       	ldd	r25, Y+2	; 0x02
    164e:	01 97       	sbiw	r24, 0x01	; 1
    1650:	f1 f7       	brne	.-4      	; 0x164e <__vector_1+0x3d8>
    1652:	9a 83       	std	Y+2, r25	; 0x02
    1654:	89 83       	std	Y+1, r24	; 0x01
    1656:	08 c0       	rjmp	.+16     	; 0x1668 <__vector_1+0x3f2>
		_delay_ms(20);
		}
	else
		{
		NewKey = 0;
    1658:	10 92 c9 01 	sts	0x01C9, r1
    165c:	10 92 c8 01 	sts	0x01C8, r1
		GIFR = 1<<INTF0;
    1660:	ea e5       	ldi	r30, 0x5A	; 90
    1662:	f0 e0       	ldi	r31, 0x00	; 0
    1664:	80 e4       	ldi	r24, 0x40	; 64
    1666:	80 83       	st	Z, r24
		}
	}
    1668:	aa 96       	adiw	r28, 0x2a	; 42
    166a:	de bf       	out	0x3e, r29	; 62
    166c:	cd bf       	out	0x3d, r28	; 61
    166e:	cf 91       	pop	r28
    1670:	df 91       	pop	r29
    1672:	ff 91       	pop	r31
    1674:	ef 91       	pop	r30
    1676:	bf 91       	pop	r27
    1678:	af 91       	pop	r26
    167a:	9f 91       	pop	r25
    167c:	8f 91       	pop	r24
    167e:	7f 91       	pop	r23
    1680:	6f 91       	pop	r22
    1682:	5f 91       	pop	r21
    1684:	4f 91       	pop	r20
    1686:	3f 91       	pop	r19
    1688:	2f 91       	pop	r18
    168a:	0f 90       	pop	r0
    168c:	0f be       	out	0x3f, r0	; 63
    168e:	0f 90       	pop	r0
    1690:	1f 90       	pop	r1
    1692:	18 95       	reti

00001694 <main>:
// void LcdSpace();							// Wstawia spacje 
// void LcdBackspace();						// Usuwa porpzedni znak
// void LcdDistance(short);					// Wstawia okreslona liczbe wolnych pol

int main()
	{
    1694:	df 93       	push	r29
    1696:	cf 93       	push	r28
    1698:	cd b7       	in	r28, 0x3d	; 61
    169a:	de b7       	in	r29, 0x3e	; 62
    169c:	e3 97       	sbiw	r28, 0x33	; 51
    169e:	0f b6       	in	r0, 0x3f	; 63
    16a0:	f8 94       	cli
    16a2:	de bf       	out	0x3e, r29	; 62
    16a4:	0f be       	out	0x3f, r0	; 63
    16a6:	cd bf       	out	0x3d, r28	; 61

*/

//*************************************************************************

short Number = 0 ;
    16a8:	1e 8e       	std	Y+30, r1	; 0x1e
    16aa:	1d 8e       	std	Y+29, r1	; 0x1d

MyMelodyBox[Number].title = "C.T : 600 A.D";
    16ac:	2d 8d       	ldd	r18, Y+29	; 0x1d
    16ae:	3e 8d       	ldd	r19, Y+30	; 0x1e
    16b0:	8b ec       	ldi	r24, 0xCB	; 203
    16b2:	90 e0       	ldi	r25, 0x00	; 0
    16b4:	ac 01       	movw	r20, r24
    16b6:	24 9f       	mul	r18, r20
    16b8:	c0 01       	movw	r24, r0
    16ba:	25 9f       	mul	r18, r21
    16bc:	90 0d       	add	r25, r0
    16be:	34 9f       	mul	r19, r20
    16c0:	90 0d       	add	r25, r0
    16c2:	11 24       	eor	r1, r1
    16c4:	fc 01       	movw	r30, r24
    16c6:	e4 56       	subi	r30, 0x64	; 100
    16c8:	fd 4f       	sbci	r31, 0xFD	; 253
    16ca:	82 e7       	ldi	r24, 0x72	; 114
    16cc:	90 e0       	ldi	r25, 0x00	; 0
    16ce:	91 83       	std	Z+1, r25	; 0x01
    16d0:	80 83       	st	Z, r24
MyMelodyBox[Number].length = 46;
    16d2:	2d 8d       	ldd	r18, Y+29	; 0x1d
    16d4:	3e 8d       	ldd	r19, Y+30	; 0x1e
    16d6:	8b ec       	ldi	r24, 0xCB	; 203
    16d8:	90 e0       	ldi	r25, 0x00	; 0
    16da:	fc 01       	movw	r30, r24
    16dc:	2e 9f       	mul	r18, r30
    16de:	c0 01       	movw	r24, r0
    16e0:	2f 9f       	mul	r18, r31
    16e2:	90 0d       	add	r25, r0
    16e4:	3e 9f       	mul	r19, r30
    16e6:	90 0d       	add	r25, r0
    16e8:	11 24       	eor	r1, r1
    16ea:	fc 01       	movw	r30, r24
    16ec:	e5 56       	subi	r30, 0x65	; 101
    16ee:	fd 4f       	sbci	r31, 0xFD	; 253
    16f0:	80 81       	ld	r24, Z
    16f2:	80 78       	andi	r24, 0x80	; 128
    16f4:	8e 62       	ori	r24, 0x2E	; 46
    16f6:	80 83       	st	Z, r24
MyMelodyBox[Number].Table[0].Note = d2   ;MyMelodyBox[Number].Table[0].Notelength  = 5; 
    16f8:	2d 8d       	ldd	r18, Y+29	; 0x1d
    16fa:	3e 8d       	ldd	r19, Y+30	; 0x1e
    16fc:	8b ec       	ldi	r24, 0xCB	; 203
    16fe:	90 e0       	ldi	r25, 0x00	; 0
    1700:	ac 01       	movw	r20, r24
    1702:	24 9f       	mul	r18, r20
    1704:	c0 01       	movw	r24, r0
    1706:	25 9f       	mul	r18, r21
    1708:	90 0d       	add	r25, r0
    170a:	34 9f       	mul	r19, r20
    170c:	90 0d       	add	r25, r0
    170e:	11 24       	eor	r1, r1
    1710:	fc 01       	movw	r30, r24
    1712:	ed 52       	subi	r30, 0x2D	; 45
    1714:	fe 4f       	sbci	r31, 0xFE	; 254
    1716:	8b e4       	ldi	r24, 0x4B	; 75
    1718:	80 83       	st	Z, r24
    171a:	81 81       	ldd	r24, Z+1	; 0x01
    171c:	88 7f       	andi	r24, 0xF8	; 248
    171e:	82 60       	ori	r24, 0x02	; 2
    1720:	81 83       	std	Z+1, r24	; 0x01
    1722:	2d 8d       	ldd	r18, Y+29	; 0x1d
    1724:	3e 8d       	ldd	r19, Y+30	; 0x1e
    1726:	8b ec       	ldi	r24, 0xCB	; 203
    1728:	90 e0       	ldi	r25, 0x00	; 0
    172a:	fc 01       	movw	r30, r24
    172c:	2e 9f       	mul	r18, r30
    172e:	c0 01       	movw	r24, r0
    1730:	2f 9f       	mul	r18, r31
    1732:	90 0d       	add	r25, r0
    1734:	3e 9f       	mul	r19, r30
    1736:	90 0d       	add	r25, r0
    1738:	11 24       	eor	r1, r1
    173a:	fc 01       	movw	r30, r24
    173c:	ec 52       	subi	r30, 0x2C	; 44
    173e:	fe 4f       	sbci	r31, 0xFE	; 254
    1740:	80 81       	ld	r24, Z
    1742:	87 70       	andi	r24, 0x07	; 7
    1744:	88 62       	ori	r24, 0x28	; 40
    1746:	80 83       	st	Z, r24
MyMelodyBox[Number].Table[1].Note = e2   ;MyMelodyBox[Number].Table[1].Notelength  = 5;
    1748:	2d 8d       	ldd	r18, Y+29	; 0x1d
    174a:	3e 8d       	ldd	r19, Y+30	; 0x1e
    174c:	8b ec       	ldi	r24, 0xCB	; 203
    174e:	90 e0       	ldi	r25, 0x00	; 0
    1750:	ac 01       	movw	r20, r24
    1752:	24 9f       	mul	r18, r20
    1754:	c0 01       	movw	r24, r0
    1756:	25 9f       	mul	r18, r21
    1758:	90 0d       	add	r25, r0
    175a:	34 9f       	mul	r19, r20
    175c:	90 0d       	add	r25, r0
    175e:	11 24       	eor	r1, r1
    1760:	fc 01       	movw	r30, r24
    1762:	eb 52       	subi	r30, 0x2B	; 43
    1764:	fe 4f       	sbci	r31, 0xFE	; 254
    1766:	83 e9       	ldi	r24, 0x93	; 147
    1768:	80 83       	st	Z, r24
    176a:	81 81       	ldd	r24, Z+1	; 0x01
    176c:	88 7f       	andi	r24, 0xF8	; 248
    176e:	82 60       	ori	r24, 0x02	; 2
    1770:	81 83       	std	Z+1, r24	; 0x01
    1772:	2d 8d       	ldd	r18, Y+29	; 0x1d
    1774:	3e 8d       	ldd	r19, Y+30	; 0x1e
    1776:	8b ec       	ldi	r24, 0xCB	; 203
    1778:	90 e0       	ldi	r25, 0x00	; 0
    177a:	fc 01       	movw	r30, r24
    177c:	2e 9f       	mul	r18, r30
    177e:	c0 01       	movw	r24, r0
    1780:	2f 9f       	mul	r18, r31
    1782:	90 0d       	add	r25, r0
    1784:	3e 9f       	mul	r19, r30
    1786:	90 0d       	add	r25, r0
    1788:	11 24       	eor	r1, r1
    178a:	fc 01       	movw	r30, r24
    178c:	ea 52       	subi	r30, 0x2A	; 42
    178e:	fe 4f       	sbci	r31, 0xFE	; 254
    1790:	80 81       	ld	r24, Z
    1792:	87 70       	andi	r24, 0x07	; 7
    1794:	88 62       	ori	r24, 0x28	; 40
    1796:	80 83       	st	Z, r24
MyMelodyBox[Number].Table[2].Note = f2   ;MyMelodyBox[Number].Table[2].Notelength  = 3;
    1798:	2d 8d       	ldd	r18, Y+29	; 0x1d
    179a:	3e 8d       	ldd	r19, Y+30	; 0x1e
    179c:	8b ec       	ldi	r24, 0xCB	; 203
    179e:	90 e0       	ldi	r25, 0x00	; 0
    17a0:	ac 01       	movw	r20, r24
    17a2:	24 9f       	mul	r18, r20
    17a4:	c0 01       	movw	r24, r0
    17a6:	25 9f       	mul	r18, r21
    17a8:	90 0d       	add	r25, r0
    17aa:	34 9f       	mul	r19, r20
    17ac:	90 0d       	add	r25, r0
    17ae:	11 24       	eor	r1, r1
    17b0:	fc 01       	movw	r30, r24
    17b2:	e9 52       	subi	r30, 0x29	; 41
    17b4:	fe 4f       	sbci	r31, 0xFE	; 254
    17b6:	8a eb       	ldi	r24, 0xBA	; 186
    17b8:	80 83       	st	Z, r24
    17ba:	81 81       	ldd	r24, Z+1	; 0x01
    17bc:	88 7f       	andi	r24, 0xF8	; 248
    17be:	82 60       	ori	r24, 0x02	; 2
    17c0:	81 83       	std	Z+1, r24	; 0x01
    17c2:	2d 8d       	ldd	r18, Y+29	; 0x1d
    17c4:	3e 8d       	ldd	r19, Y+30	; 0x1e
    17c6:	8b ec       	ldi	r24, 0xCB	; 203
    17c8:	90 e0       	ldi	r25, 0x00	; 0
    17ca:	fc 01       	movw	r30, r24
    17cc:	2e 9f       	mul	r18, r30
    17ce:	c0 01       	movw	r24, r0
    17d0:	2f 9f       	mul	r18, r31
    17d2:	90 0d       	add	r25, r0
    17d4:	3e 9f       	mul	r19, r30
    17d6:	90 0d       	add	r25, r0
    17d8:	11 24       	eor	r1, r1
    17da:	fc 01       	movw	r30, r24
    17dc:	e8 52       	subi	r30, 0x28	; 40
    17de:	fe 4f       	sbci	r31, 0xFE	; 254
    17e0:	80 81       	ld	r24, Z
    17e2:	87 70       	andi	r24, 0x07	; 7
    17e4:	88 61       	ori	r24, 0x18	; 24
    17e6:	80 83       	st	Z, r24
MyMelodyBox[Number].Table[3].Note = e2   ;MyMelodyBox[Number].Table[3].Notelength  = 3;
    17e8:	2d 8d       	ldd	r18, Y+29	; 0x1d
    17ea:	3e 8d       	ldd	r19, Y+30	; 0x1e
    17ec:	8b ec       	ldi	r24, 0xCB	; 203
    17ee:	90 e0       	ldi	r25, 0x00	; 0
    17f0:	ac 01       	movw	r20, r24
    17f2:	24 9f       	mul	r18, r20
    17f4:	c0 01       	movw	r24, r0
    17f6:	25 9f       	mul	r18, r21
    17f8:	90 0d       	add	r25, r0
    17fa:	34 9f       	mul	r19, r20
    17fc:	90 0d       	add	r25, r0
    17fe:	11 24       	eor	r1, r1
    1800:	fc 01       	movw	r30, r24
    1802:	e7 52       	subi	r30, 0x27	; 39
    1804:	fe 4f       	sbci	r31, 0xFE	; 254
    1806:	83 e9       	ldi	r24, 0x93	; 147
    1808:	80 83       	st	Z, r24
    180a:	81 81       	ldd	r24, Z+1	; 0x01
    180c:	88 7f       	andi	r24, 0xF8	; 248
    180e:	82 60       	ori	r24, 0x02	; 2
    1810:	81 83       	std	Z+1, r24	; 0x01
    1812:	2d 8d       	ldd	r18, Y+29	; 0x1d
    1814:	3e 8d       	ldd	r19, Y+30	; 0x1e
    1816:	8b ec       	ldi	r24, 0xCB	; 203
    1818:	90 e0       	ldi	r25, 0x00	; 0
    181a:	fc 01       	movw	r30, r24
    181c:	2e 9f       	mul	r18, r30
    181e:	c0 01       	movw	r24, r0
    1820:	2f 9f       	mul	r18, r31
    1822:	90 0d       	add	r25, r0
    1824:	3e 9f       	mul	r19, r30
    1826:	90 0d       	add	r25, r0
    1828:	11 24       	eor	r1, r1
    182a:	fc 01       	movw	r30, r24
    182c:	e6 52       	subi	r30, 0x26	; 38
    182e:	fe 4f       	sbci	r31, 0xFE	; 254
    1830:	80 81       	ld	r24, Z
    1832:	87 70       	andi	r24, 0x07	; 7
    1834:	88 61       	ori	r24, 0x18	; 24
    1836:	80 83       	st	Z, r24
MyMelodyBox[Number].Table[4].Note = c2   ;MyMelodyBox[Number].Table[4].Notelength  = 3;
    1838:	2d 8d       	ldd	r18, Y+29	; 0x1d
    183a:	3e 8d       	ldd	r19, Y+30	; 0x1e
    183c:	8b ec       	ldi	r24, 0xCB	; 203
    183e:	90 e0       	ldi	r25, 0x00	; 0
    1840:	ac 01       	movw	r20, r24
    1842:	24 9f       	mul	r18, r20
    1844:	c0 01       	movw	r24, r0
    1846:	25 9f       	mul	r18, r21
    1848:	90 0d       	add	r25, r0
    184a:	34 9f       	mul	r19, r20
    184c:	90 0d       	add	r25, r0
    184e:	11 24       	eor	r1, r1
    1850:	fc 01       	movw	r30, r24
    1852:	e5 52       	subi	r30, 0x25	; 37
    1854:	fe 4f       	sbci	r31, 0xFE	; 254
    1856:	8b e0       	ldi	r24, 0x0B	; 11
    1858:	80 83       	st	Z, r24
    185a:	81 81       	ldd	r24, Z+1	; 0x01
    185c:	88 7f       	andi	r24, 0xF8	; 248
    185e:	82 60       	ori	r24, 0x02	; 2
    1860:	81 83       	std	Z+1, r24	; 0x01
    1862:	2d 8d       	ldd	r18, Y+29	; 0x1d
    1864:	3e 8d       	ldd	r19, Y+30	; 0x1e
    1866:	8b ec       	ldi	r24, 0xCB	; 203
    1868:	90 e0       	ldi	r25, 0x00	; 0
    186a:	fc 01       	movw	r30, r24
    186c:	2e 9f       	mul	r18, r30
    186e:	c0 01       	movw	r24, r0
    1870:	2f 9f       	mul	r18, r31
    1872:	90 0d       	add	r25, r0
    1874:	3e 9f       	mul	r19, r30
    1876:	90 0d       	add	r25, r0
    1878:	11 24       	eor	r1, r1
    187a:	fc 01       	movw	r30, r24
    187c:	e4 52       	subi	r30, 0x24	; 36
    187e:	fe 4f       	sbci	r31, 0xFE	; 254
    1880:	80 81       	ld	r24, Z
    1882:	87 70       	andi	r24, 0x07	; 7
    1884:	88 61       	ori	r24, 0x18	; 24
    1886:	80 83       	st	Z, r24
MyMelodyBox[Number].Table[5].Note = a1   ;MyMelodyBox[Number].Table[5].Notelength  = 3;
    1888:	2d 8d       	ldd	r18, Y+29	; 0x1d
    188a:	3e 8d       	ldd	r19, Y+30	; 0x1e
    188c:	8b ec       	ldi	r24, 0xCB	; 203
    188e:	90 e0       	ldi	r25, 0x00	; 0
    1890:	ac 01       	movw	r20, r24
    1892:	24 9f       	mul	r18, r20
    1894:	c0 01       	movw	r24, r0
    1896:	25 9f       	mul	r18, r21
    1898:	90 0d       	add	r25, r0
    189a:	34 9f       	mul	r19, r20
    189c:	90 0d       	add	r25, r0
    189e:	11 24       	eor	r1, r1
    18a0:	fc 01       	movw	r30, r24
    18a2:	e3 52       	subi	r30, 0x23	; 35
    18a4:	fe 4f       	sbci	r31, 0xFE	; 254
    18a6:	88 eb       	ldi	r24, 0xB8	; 184
    18a8:	80 83       	st	Z, r24
    18aa:	81 81       	ldd	r24, Z+1	; 0x01
    18ac:	88 7f       	andi	r24, 0xF8	; 248
    18ae:	81 60       	ori	r24, 0x01	; 1
    18b0:	81 83       	std	Z+1, r24	; 0x01
    18b2:	2d 8d       	ldd	r18, Y+29	; 0x1d
    18b4:	3e 8d       	ldd	r19, Y+30	; 0x1e
    18b6:	8b ec       	ldi	r24, 0xCB	; 203
    18b8:	90 e0       	ldi	r25, 0x00	; 0
    18ba:	fc 01       	movw	r30, r24
    18bc:	2e 9f       	mul	r18, r30
    18be:	c0 01       	movw	r24, r0
    18c0:	2f 9f       	mul	r18, r31
    18c2:	90 0d       	add	r25, r0
    18c4:	3e 9f       	mul	r19, r30
    18c6:	90 0d       	add	r25, r0
    18c8:	11 24       	eor	r1, r1
    18ca:	fc 01       	movw	r30, r24
    18cc:	e2 52       	subi	r30, 0x22	; 34
    18ce:	fe 4f       	sbci	r31, 0xFE	; 254
    18d0:	80 81       	ld	r24, Z
    18d2:	87 70       	andi	r24, 0x07	; 7
    18d4:	88 61       	ori	r24, 0x18	; 24
    18d6:	80 83       	st	Z, r24
MyMelodyBox[Number].Table[6].Note = d2   ;MyMelodyBox[Number].Table[6].Notelength  = 4; 
    18d8:	2d 8d       	ldd	r18, Y+29	; 0x1d
    18da:	3e 8d       	ldd	r19, Y+30	; 0x1e
    18dc:	8b ec       	ldi	r24, 0xCB	; 203
    18de:	90 e0       	ldi	r25, 0x00	; 0
    18e0:	ac 01       	movw	r20, r24
    18e2:	24 9f       	mul	r18, r20
    18e4:	c0 01       	movw	r24, r0
    18e6:	25 9f       	mul	r18, r21
    18e8:	90 0d       	add	r25, r0
    18ea:	34 9f       	mul	r19, r20
    18ec:	90 0d       	add	r25, r0
    18ee:	11 24       	eor	r1, r1
    18f0:	fc 01       	movw	r30, r24
    18f2:	e1 52       	subi	r30, 0x21	; 33
    18f4:	fe 4f       	sbci	r31, 0xFE	; 254
    18f6:	8b e4       	ldi	r24, 0x4B	; 75
    18f8:	80 83       	st	Z, r24
    18fa:	81 81       	ldd	r24, Z+1	; 0x01
    18fc:	88 7f       	andi	r24, 0xF8	; 248
    18fe:	82 60       	ori	r24, 0x02	; 2
    1900:	81 83       	std	Z+1, r24	; 0x01
    1902:	2d 8d       	ldd	r18, Y+29	; 0x1d
    1904:	3e 8d       	ldd	r19, Y+30	; 0x1e
    1906:	8b ec       	ldi	r24, 0xCB	; 203
    1908:	90 e0       	ldi	r25, 0x00	; 0
    190a:	fc 01       	movw	r30, r24
    190c:	2e 9f       	mul	r18, r30
    190e:	c0 01       	movw	r24, r0
    1910:	2f 9f       	mul	r18, r31
    1912:	90 0d       	add	r25, r0
    1914:	3e 9f       	mul	r19, r30
    1916:	90 0d       	add	r25, r0
    1918:	11 24       	eor	r1, r1
    191a:	fc 01       	movw	r30, r24
    191c:	e0 52       	subi	r30, 0x20	; 32
    191e:	fe 4f       	sbci	r31, 0xFE	; 254
    1920:	80 81       	ld	r24, Z
    1922:	87 70       	andi	r24, 0x07	; 7
    1924:	80 62       	ori	r24, 0x20	; 32
    1926:	80 83       	st	Z, r24
MyMelodyBox[Number].Table[7].Note = d2   ;MyMelodyBox[Number].Table[7].Notelength  = 4;
    1928:	2d 8d       	ldd	r18, Y+29	; 0x1d
    192a:	3e 8d       	ldd	r19, Y+30	; 0x1e
    192c:	8b ec       	ldi	r24, 0xCB	; 203
    192e:	90 e0       	ldi	r25, 0x00	; 0
    1930:	ac 01       	movw	r20, r24
    1932:	24 9f       	mul	r18, r20
    1934:	c0 01       	movw	r24, r0
    1936:	25 9f       	mul	r18, r21
    1938:	90 0d       	add	r25, r0
    193a:	34 9f       	mul	r19, r20
    193c:	90 0d       	add	r25, r0
    193e:	11 24       	eor	r1, r1
    1940:	fc 01       	movw	r30, r24
    1942:	ef 51       	subi	r30, 0x1F	; 31
    1944:	fe 4f       	sbci	r31, 0xFE	; 254
    1946:	8b e4       	ldi	r24, 0x4B	; 75
    1948:	80 83       	st	Z, r24
    194a:	81 81       	ldd	r24, Z+1	; 0x01
    194c:	88 7f       	andi	r24, 0xF8	; 248
    194e:	82 60       	ori	r24, 0x02	; 2
    1950:	81 83       	std	Z+1, r24	; 0x01
    1952:	2d 8d       	ldd	r18, Y+29	; 0x1d
    1954:	3e 8d       	ldd	r19, Y+30	; 0x1e
    1956:	8b ec       	ldi	r24, 0xCB	; 203
    1958:	90 e0       	ldi	r25, 0x00	; 0
    195a:	fc 01       	movw	r30, r24
    195c:	2e 9f       	mul	r18, r30
    195e:	c0 01       	movw	r24, r0
    1960:	2f 9f       	mul	r18, r31
    1962:	90 0d       	add	r25, r0
    1964:	3e 9f       	mul	r19, r30
    1966:	90 0d       	add	r25, r0
    1968:	11 24       	eor	r1, r1
    196a:	fc 01       	movw	r30, r24
    196c:	ee 51       	subi	r30, 0x1E	; 30
    196e:	fe 4f       	sbci	r31, 0xFE	; 254
    1970:	80 81       	ld	r24, Z
    1972:	87 70       	andi	r24, 0x07	; 7
    1974:	80 62       	ori	r24, 0x20	; 32
    1976:	80 83       	st	Z, r24
MyMelodyBox[Number].Table[8].Note= c2    ;MyMelodyBox[Number].Table[8].Notelength  = 3;
    1978:	2d 8d       	ldd	r18, Y+29	; 0x1d
    197a:	3e 8d       	ldd	r19, Y+30	; 0x1e
    197c:	8b ec       	ldi	r24, 0xCB	; 203
    197e:	90 e0       	ldi	r25, 0x00	; 0
    1980:	ac 01       	movw	r20, r24
    1982:	24 9f       	mul	r18, r20
    1984:	c0 01       	movw	r24, r0
    1986:	25 9f       	mul	r18, r21
    1988:	90 0d       	add	r25, r0
    198a:	34 9f       	mul	r19, r20
    198c:	90 0d       	add	r25, r0
    198e:	11 24       	eor	r1, r1
    1990:	fc 01       	movw	r30, r24
    1992:	ed 51       	subi	r30, 0x1D	; 29
    1994:	fe 4f       	sbci	r31, 0xFE	; 254
    1996:	8b e0       	ldi	r24, 0x0B	; 11
    1998:	80 83       	st	Z, r24
    199a:	81 81       	ldd	r24, Z+1	; 0x01
    199c:	88 7f       	andi	r24, 0xF8	; 248
    199e:	82 60       	ori	r24, 0x02	; 2
    19a0:	81 83       	std	Z+1, r24	; 0x01
    19a2:	2d 8d       	ldd	r18, Y+29	; 0x1d
    19a4:	3e 8d       	ldd	r19, Y+30	; 0x1e
    19a6:	8b ec       	ldi	r24, 0xCB	; 203
    19a8:	90 e0       	ldi	r25, 0x00	; 0
    19aa:	fc 01       	movw	r30, r24
    19ac:	2e 9f       	mul	r18, r30
    19ae:	c0 01       	movw	r24, r0
    19b0:	2f 9f       	mul	r18, r31
    19b2:	90 0d       	add	r25, r0
    19b4:	3e 9f       	mul	r19, r30
    19b6:	90 0d       	add	r25, r0
    19b8:	11 24       	eor	r1, r1
    19ba:	fc 01       	movw	r30, r24
    19bc:	ec 51       	subi	r30, 0x1C	; 28
    19be:	fe 4f       	sbci	r31, 0xFE	; 254
    19c0:	80 81       	ld	r24, Z
    19c2:	87 70       	andi	r24, 0x07	; 7
    19c4:	88 61       	ori	r24, 0x18	; 24
    19c6:	80 83       	st	Z, r24
MyMelodyBox[Number].Table[9].Note= a1    ;MyMelodyBox[Number].Table[9].Notelength  = 3;
    19c8:	2d 8d       	ldd	r18, Y+29	; 0x1d
    19ca:	3e 8d       	ldd	r19, Y+30	; 0x1e
    19cc:	8b ec       	ldi	r24, 0xCB	; 203
    19ce:	90 e0       	ldi	r25, 0x00	; 0
    19d0:	ac 01       	movw	r20, r24
    19d2:	24 9f       	mul	r18, r20
    19d4:	c0 01       	movw	r24, r0
    19d6:	25 9f       	mul	r18, r21
    19d8:	90 0d       	add	r25, r0
    19da:	34 9f       	mul	r19, r20
    19dc:	90 0d       	add	r25, r0
    19de:	11 24       	eor	r1, r1
    19e0:	fc 01       	movw	r30, r24
    19e2:	eb 51       	subi	r30, 0x1B	; 27
    19e4:	fe 4f       	sbci	r31, 0xFE	; 254
    19e6:	88 eb       	ldi	r24, 0xB8	; 184
    19e8:	80 83       	st	Z, r24
    19ea:	81 81       	ldd	r24, Z+1	; 0x01
    19ec:	88 7f       	andi	r24, 0xF8	; 248
    19ee:	81 60       	ori	r24, 0x01	; 1
    19f0:	81 83       	std	Z+1, r24	; 0x01
    19f2:	2d 8d       	ldd	r18, Y+29	; 0x1d
    19f4:	3e 8d       	ldd	r19, Y+30	; 0x1e
    19f6:	8b ec       	ldi	r24, 0xCB	; 203
    19f8:	90 e0       	ldi	r25, 0x00	; 0
    19fa:	fc 01       	movw	r30, r24
    19fc:	2e 9f       	mul	r18, r30
    19fe:	c0 01       	movw	r24, r0
    1a00:	2f 9f       	mul	r18, r31
    1a02:	90 0d       	add	r25, r0
    1a04:	3e 9f       	mul	r19, r30
    1a06:	90 0d       	add	r25, r0
    1a08:	11 24       	eor	r1, r1
    1a0a:	fc 01       	movw	r30, r24
    1a0c:	ea 51       	subi	r30, 0x1A	; 26
    1a0e:	fe 4f       	sbci	r31, 0xFE	; 254
    1a10:	80 81       	ld	r24, Z
    1a12:	87 70       	andi	r24, 0x07	; 7
    1a14:	88 61       	ori	r24, 0x18	; 24
    1a16:	80 83       	st	Z, r24
MyMelodyBox[Number].Table[10].Note= f1 	 ;MyMelodyBox[Number].Table[10].Notelength = 3;
    1a18:	2d 8d       	ldd	r18, Y+29	; 0x1d
    1a1a:	3e 8d       	ldd	r19, Y+30	; 0x1e
    1a1c:	8b ec       	ldi	r24, 0xCB	; 203
    1a1e:	90 e0       	ldi	r25, 0x00	; 0
    1a20:	ac 01       	movw	r20, r24
    1a22:	24 9f       	mul	r18, r20
    1a24:	c0 01       	movw	r24, r0
    1a26:	25 9f       	mul	r18, r21
    1a28:	90 0d       	add	r25, r0
    1a2a:	34 9f       	mul	r19, r20
    1a2c:	90 0d       	add	r25, r0
    1a2e:	11 24       	eor	r1, r1
    1a30:	fc 01       	movw	r30, r24
    1a32:	e9 51       	subi	r30, 0x19	; 25
    1a34:	fe 4f       	sbci	r31, 0xFE	; 254
    1a36:	8d e5       	ldi	r24, 0x5D	; 93
    1a38:	80 83       	st	Z, r24
    1a3a:	81 81       	ldd	r24, Z+1	; 0x01
    1a3c:	88 7f       	andi	r24, 0xF8	; 248
    1a3e:	81 60       	ori	r24, 0x01	; 1
    1a40:	81 83       	std	Z+1, r24	; 0x01
    1a42:	2d 8d       	ldd	r18, Y+29	; 0x1d
    1a44:	3e 8d       	ldd	r19, Y+30	; 0x1e
    1a46:	8b ec       	ldi	r24, 0xCB	; 203
    1a48:	90 e0       	ldi	r25, 0x00	; 0
    1a4a:	fc 01       	movw	r30, r24
    1a4c:	2e 9f       	mul	r18, r30
    1a4e:	c0 01       	movw	r24, r0
    1a50:	2f 9f       	mul	r18, r31
    1a52:	90 0d       	add	r25, r0
    1a54:	3e 9f       	mul	r19, r30
    1a56:	90 0d       	add	r25, r0
    1a58:	11 24       	eor	r1, r1
    1a5a:	fc 01       	movw	r30, r24
    1a5c:	e8 51       	subi	r30, 0x18	; 24
    1a5e:	fe 4f       	sbci	r31, 0xFE	; 254
    1a60:	80 81       	ld	r24, Z
    1a62:	87 70       	andi	r24, 0x07	; 7
    1a64:	88 61       	ori	r24, 0x18	; 24
    1a66:	80 83       	st	Z, r24
MyMelodyBox[Number].Table[11].Note= g1 	 ;MyMelodyBox[Number].Table[11].Notelength = 3;
    1a68:	2d 8d       	ldd	r18, Y+29	; 0x1d
    1a6a:	3e 8d       	ldd	r19, Y+30	; 0x1e
    1a6c:	8b ec       	ldi	r24, 0xCB	; 203
    1a6e:	90 e0       	ldi	r25, 0x00	; 0
    1a70:	ac 01       	movw	r20, r24
    1a72:	24 9f       	mul	r18, r20
    1a74:	c0 01       	movw	r24, r0
    1a76:	25 9f       	mul	r18, r21
    1a78:	90 0d       	add	r25, r0
    1a7a:	34 9f       	mul	r19, r20
    1a7c:	90 0d       	add	r25, r0
    1a7e:	11 24       	eor	r1, r1
    1a80:	fc 01       	movw	r30, r24
    1a82:	e7 51       	subi	r30, 0x17	; 23
    1a84:	fe 4f       	sbci	r31, 0xFE	; 254
    1a86:	88 e8       	ldi	r24, 0x88	; 136
    1a88:	80 83       	st	Z, r24
    1a8a:	81 81       	ldd	r24, Z+1	; 0x01
    1a8c:	88 7f       	andi	r24, 0xF8	; 248
    1a8e:	81 60       	ori	r24, 0x01	; 1
    1a90:	81 83       	std	Z+1, r24	; 0x01
    1a92:	2d 8d       	ldd	r18, Y+29	; 0x1d
    1a94:	3e 8d       	ldd	r19, Y+30	; 0x1e
    1a96:	8b ec       	ldi	r24, 0xCB	; 203
    1a98:	90 e0       	ldi	r25, 0x00	; 0
    1a9a:	fc 01       	movw	r30, r24
    1a9c:	2e 9f       	mul	r18, r30
    1a9e:	c0 01       	movw	r24, r0
    1aa0:	2f 9f       	mul	r18, r31
    1aa2:	90 0d       	add	r25, r0
    1aa4:	3e 9f       	mul	r19, r30
    1aa6:	90 0d       	add	r25, r0
    1aa8:	11 24       	eor	r1, r1
    1aaa:	fc 01       	movw	r30, r24
    1aac:	e6 51       	subi	r30, 0x16	; 22
    1aae:	fe 4f       	sbci	r31, 0xFE	; 254
    1ab0:	80 81       	ld	r24, Z
    1ab2:	87 70       	andi	r24, 0x07	; 7
    1ab4:	88 61       	ori	r24, 0x18	; 24
    1ab6:	80 83       	st	Z, r24
MyMelodyBox[Number].Table[12].Note= a2   ;MyMelodyBox[Number].Table[12].Notelength = 5;
    1ab8:	2d 8d       	ldd	r18, Y+29	; 0x1d
    1aba:	3e 8d       	ldd	r19, Y+30	; 0x1e
    1abc:	8b ec       	ldi	r24, 0xCB	; 203
    1abe:	90 e0       	ldi	r25, 0x00	; 0
    1ac0:	ac 01       	movw	r20, r24
    1ac2:	24 9f       	mul	r18, r20
    1ac4:	c0 01       	movw	r24, r0
    1ac6:	25 9f       	mul	r18, r21
    1ac8:	90 0d       	add	r25, r0
    1aca:	34 9f       	mul	r19, r20
    1acc:	90 0d       	add	r25, r0
    1ace:	11 24       	eor	r1, r1
    1ad0:	fc 01       	movw	r30, r24
    1ad2:	e5 51       	subi	r30, 0x15	; 21
    1ad4:	fe 4f       	sbci	r31, 0xFE	; 254
    1ad6:	80 e7       	ldi	r24, 0x70	; 112
    1ad8:	80 83       	st	Z, r24
    1ada:	81 81       	ldd	r24, Z+1	; 0x01
    1adc:	88 7f       	andi	r24, 0xF8	; 248
    1ade:	83 60       	ori	r24, 0x03	; 3
    1ae0:	81 83       	std	Z+1, r24	; 0x01
    1ae2:	2d 8d       	ldd	r18, Y+29	; 0x1d
    1ae4:	3e 8d       	ldd	r19, Y+30	; 0x1e
    1ae6:	8b ec       	ldi	r24, 0xCB	; 203
    1ae8:	90 e0       	ldi	r25, 0x00	; 0
    1aea:	fc 01       	movw	r30, r24
    1aec:	2e 9f       	mul	r18, r30
    1aee:	c0 01       	movw	r24, r0
    1af0:	2f 9f       	mul	r18, r31
    1af2:	90 0d       	add	r25, r0
    1af4:	3e 9f       	mul	r19, r30
    1af6:	90 0d       	add	r25, r0
    1af8:	11 24       	eor	r1, r1
    1afa:	fc 01       	movw	r30, r24
    1afc:	e4 51       	subi	r30, 0x14	; 20
    1afe:	fe 4f       	sbci	r31, 0xFE	; 254
    1b00:	80 81       	ld	r24, Z
    1b02:	87 70       	andi	r24, 0x07	; 7
    1b04:	88 62       	ori	r24, 0x28	; 40
    1b06:	80 83       	st	Z, r24
MyMelodyBox[Number].Table[13].Note= g2 	 ;MyMelodyBox[Number].Table[13].Notelength = 5;
    1b08:	2d 8d       	ldd	r18, Y+29	; 0x1d
    1b0a:	3e 8d       	ldd	r19, Y+30	; 0x1e
    1b0c:	8b ec       	ldi	r24, 0xCB	; 203
    1b0e:	90 e0       	ldi	r25, 0x00	; 0
    1b10:	ac 01       	movw	r20, r24
    1b12:	24 9f       	mul	r18, r20
    1b14:	c0 01       	movw	r24, r0
    1b16:	25 9f       	mul	r18, r21
    1b18:	90 0d       	add	r25, r0
    1b1a:	34 9f       	mul	r19, r20
    1b1c:	90 0d       	add	r25, r0
    1b1e:	11 24       	eor	r1, r1
    1b20:	fc 01       	movw	r30, r24
    1b22:	e3 51       	subi	r30, 0x13	; 19
    1b24:	fe 4f       	sbci	r31, 0xFE	; 254
    1b26:	80 e1       	ldi	r24, 0x10	; 16
    1b28:	80 83       	st	Z, r24
    1b2a:	81 81       	ldd	r24, Z+1	; 0x01
    1b2c:	88 7f       	andi	r24, 0xF8	; 248
    1b2e:	83 60       	ori	r24, 0x03	; 3
    1b30:	81 83       	std	Z+1, r24	; 0x01
    1b32:	2d 8d       	ldd	r18, Y+29	; 0x1d
    1b34:	3e 8d       	ldd	r19, Y+30	; 0x1e
    1b36:	8b ec       	ldi	r24, 0xCB	; 203
    1b38:	90 e0       	ldi	r25, 0x00	; 0
    1b3a:	fc 01       	movw	r30, r24
    1b3c:	2e 9f       	mul	r18, r30
    1b3e:	c0 01       	movw	r24, r0
    1b40:	2f 9f       	mul	r18, r31
    1b42:	90 0d       	add	r25, r0
    1b44:	3e 9f       	mul	r19, r30
    1b46:	90 0d       	add	r25, r0
    1b48:	11 24       	eor	r1, r1
    1b4a:	fc 01       	movw	r30, r24
    1b4c:	e2 51       	subi	r30, 0x12	; 18
    1b4e:	fe 4f       	sbci	r31, 0xFE	; 254
    1b50:	80 81       	ld	r24, Z
    1b52:	87 70       	andi	r24, 0x07	; 7
    1b54:	88 62       	ori	r24, 0x28	; 40
    1b56:	80 83       	st	Z, r24
MyMelodyBox[Number].Table[14].Note= e2 	 ;MyMelodyBox[Number].Table[14].Notelength = 3;
    1b58:	2d 8d       	ldd	r18, Y+29	; 0x1d
    1b5a:	3e 8d       	ldd	r19, Y+30	; 0x1e
    1b5c:	8b ec       	ldi	r24, 0xCB	; 203
    1b5e:	90 e0       	ldi	r25, 0x00	; 0
    1b60:	ac 01       	movw	r20, r24
    1b62:	24 9f       	mul	r18, r20
    1b64:	c0 01       	movw	r24, r0
    1b66:	25 9f       	mul	r18, r21
    1b68:	90 0d       	add	r25, r0
    1b6a:	34 9f       	mul	r19, r20
    1b6c:	90 0d       	add	r25, r0
    1b6e:	11 24       	eor	r1, r1
    1b70:	fc 01       	movw	r30, r24
    1b72:	e1 51       	subi	r30, 0x11	; 17
    1b74:	fe 4f       	sbci	r31, 0xFE	; 254
    1b76:	83 e9       	ldi	r24, 0x93	; 147
    1b78:	80 83       	st	Z, r24
    1b7a:	81 81       	ldd	r24, Z+1	; 0x01
    1b7c:	88 7f       	andi	r24, 0xF8	; 248
    1b7e:	82 60       	ori	r24, 0x02	; 2
    1b80:	81 83       	std	Z+1, r24	; 0x01
    1b82:	2d 8d       	ldd	r18, Y+29	; 0x1d
    1b84:	3e 8d       	ldd	r19, Y+30	; 0x1e
    1b86:	8b ec       	ldi	r24, 0xCB	; 203
    1b88:	90 e0       	ldi	r25, 0x00	; 0
    1b8a:	fc 01       	movw	r30, r24
    1b8c:	2e 9f       	mul	r18, r30
    1b8e:	c0 01       	movw	r24, r0
    1b90:	2f 9f       	mul	r18, r31
    1b92:	90 0d       	add	r25, r0
    1b94:	3e 9f       	mul	r19, r30
    1b96:	90 0d       	add	r25, r0
    1b98:	11 24       	eor	r1, r1
    1b9a:	fc 01       	movw	r30, r24
    1b9c:	e0 51       	subi	r30, 0x10	; 16
    1b9e:	fe 4f       	sbci	r31, 0xFE	; 254
    1ba0:	80 81       	ld	r24, Z
    1ba2:	87 70       	andi	r24, 0x07	; 7
    1ba4:	88 61       	ori	r24, 0x18	; 24
    1ba6:	80 83       	st	Z, r24
MyMelodyBox[Number].Table[15].Note= f2 	 ;MyMelodyBox[Number].Table[15].Notelength = 3;	 
    1ba8:	2d 8d       	ldd	r18, Y+29	; 0x1d
    1baa:	3e 8d       	ldd	r19, Y+30	; 0x1e
    1bac:	8b ec       	ldi	r24, 0xCB	; 203
    1bae:	90 e0       	ldi	r25, 0x00	; 0
    1bb0:	ac 01       	movw	r20, r24
    1bb2:	24 9f       	mul	r18, r20
    1bb4:	c0 01       	movw	r24, r0
    1bb6:	25 9f       	mul	r18, r21
    1bb8:	90 0d       	add	r25, r0
    1bba:	34 9f       	mul	r19, r20
    1bbc:	90 0d       	add	r25, r0
    1bbe:	11 24       	eor	r1, r1
    1bc0:	fc 01       	movw	r30, r24
    1bc2:	ef 50       	subi	r30, 0x0F	; 15
    1bc4:	fe 4f       	sbci	r31, 0xFE	; 254
    1bc6:	8a eb       	ldi	r24, 0xBA	; 186
    1bc8:	80 83       	st	Z, r24
    1bca:	81 81       	ldd	r24, Z+1	; 0x01
    1bcc:	88 7f       	andi	r24, 0xF8	; 248
    1bce:	82 60       	ori	r24, 0x02	; 2
    1bd0:	81 83       	std	Z+1, r24	; 0x01
    1bd2:	2d 8d       	ldd	r18, Y+29	; 0x1d
    1bd4:	3e 8d       	ldd	r19, Y+30	; 0x1e
    1bd6:	8b ec       	ldi	r24, 0xCB	; 203
    1bd8:	90 e0       	ldi	r25, 0x00	; 0
    1bda:	fc 01       	movw	r30, r24
    1bdc:	2e 9f       	mul	r18, r30
    1bde:	c0 01       	movw	r24, r0
    1be0:	2f 9f       	mul	r18, r31
    1be2:	90 0d       	add	r25, r0
    1be4:	3e 9f       	mul	r19, r30
    1be6:	90 0d       	add	r25, r0
    1be8:	11 24       	eor	r1, r1
    1bea:	fc 01       	movw	r30, r24
    1bec:	ee 50       	subi	r30, 0x0E	; 14
    1bee:	fe 4f       	sbci	r31, 0xFE	; 254
    1bf0:	80 81       	ld	r24, Z
    1bf2:	87 70       	andi	r24, 0x07	; 7
    1bf4:	88 61       	ori	r24, 0x18	; 24
    1bf6:	80 83       	st	Z, r24
MyMelodyBox[Number].Table[16].Note= a2 	 ;MyMelodyBox[Number].Table[16].Notelength = 3;
    1bf8:	2d 8d       	ldd	r18, Y+29	; 0x1d
    1bfa:	3e 8d       	ldd	r19, Y+30	; 0x1e
    1bfc:	8b ec       	ldi	r24, 0xCB	; 203
    1bfe:	90 e0       	ldi	r25, 0x00	; 0
    1c00:	ac 01       	movw	r20, r24
    1c02:	24 9f       	mul	r18, r20
    1c04:	c0 01       	movw	r24, r0
    1c06:	25 9f       	mul	r18, r21
    1c08:	90 0d       	add	r25, r0
    1c0a:	34 9f       	mul	r19, r20
    1c0c:	90 0d       	add	r25, r0
    1c0e:	11 24       	eor	r1, r1
    1c10:	fc 01       	movw	r30, r24
    1c12:	ed 50       	subi	r30, 0x0D	; 13
    1c14:	fe 4f       	sbci	r31, 0xFE	; 254
    1c16:	80 e7       	ldi	r24, 0x70	; 112
    1c18:	80 83       	st	Z, r24
    1c1a:	81 81       	ldd	r24, Z+1	; 0x01
    1c1c:	88 7f       	andi	r24, 0xF8	; 248
    1c1e:	83 60       	ori	r24, 0x03	; 3
    1c20:	81 83       	std	Z+1, r24	; 0x01
    1c22:	2d 8d       	ldd	r18, Y+29	; 0x1d
    1c24:	3e 8d       	ldd	r19, Y+30	; 0x1e
    1c26:	8b ec       	ldi	r24, 0xCB	; 203
    1c28:	90 e0       	ldi	r25, 0x00	; 0
    1c2a:	fc 01       	movw	r30, r24
    1c2c:	2e 9f       	mul	r18, r30
    1c2e:	c0 01       	movw	r24, r0
    1c30:	2f 9f       	mul	r18, r31
    1c32:	90 0d       	add	r25, r0
    1c34:	3e 9f       	mul	r19, r30
    1c36:	90 0d       	add	r25, r0
    1c38:	11 24       	eor	r1, r1
    1c3a:	fc 01       	movw	r30, r24
    1c3c:	ec 50       	subi	r30, 0x0C	; 12
    1c3e:	fe 4f       	sbci	r31, 0xFE	; 254
    1c40:	80 81       	ld	r24, Z
    1c42:	87 70       	andi	r24, 0x07	; 7
    1c44:	88 61       	ori	r24, 0x18	; 24
    1c46:	80 83       	st	Z, r24
MyMelodyBox[Number].Table[17].Note= c3 	 ;MyMelodyBox[Number].Table[17].Notelength = 3;
    1c48:	2d 8d       	ldd	r18, Y+29	; 0x1d
    1c4a:	3e 8d       	ldd	r19, Y+30	; 0x1e
    1c4c:	8b ec       	ldi	r24, 0xCB	; 203
    1c4e:	90 e0       	ldi	r25, 0x00	; 0
    1c50:	ac 01       	movw	r20, r24
    1c52:	24 9f       	mul	r18, r20
    1c54:	c0 01       	movw	r24, r0
    1c56:	25 9f       	mul	r18, r21
    1c58:	90 0d       	add	r25, r0
    1c5a:	34 9f       	mul	r19, r20
    1c5c:	90 0d       	add	r25, r0
    1c5e:	11 24       	eor	r1, r1
    1c60:	fc 01       	movw	r30, r24
    1c62:	eb 50       	subi	r30, 0x0B	; 11
    1c64:	fe 4f       	sbci	r31, 0xFE	; 254
    1c66:	86 e1       	ldi	r24, 0x16	; 22
    1c68:	80 83       	st	Z, r24
    1c6a:	81 81       	ldd	r24, Z+1	; 0x01
    1c6c:	88 7f       	andi	r24, 0xF8	; 248
    1c6e:	84 60       	ori	r24, 0x04	; 4
    1c70:	81 83       	std	Z+1, r24	; 0x01
    1c72:	2d 8d       	ldd	r18, Y+29	; 0x1d
    1c74:	3e 8d       	ldd	r19, Y+30	; 0x1e
    1c76:	8b ec       	ldi	r24, 0xCB	; 203
    1c78:	90 e0       	ldi	r25, 0x00	; 0
    1c7a:	fc 01       	movw	r30, r24
    1c7c:	2e 9f       	mul	r18, r30
    1c7e:	c0 01       	movw	r24, r0
    1c80:	2f 9f       	mul	r18, r31
    1c82:	90 0d       	add	r25, r0
    1c84:	3e 9f       	mul	r19, r30
    1c86:	90 0d       	add	r25, r0
    1c88:	11 24       	eor	r1, r1
    1c8a:	fc 01       	movw	r30, r24
    1c8c:	ea 50       	subi	r30, 0x0A	; 10
    1c8e:	fe 4f       	sbci	r31, 0xFE	; 254
    1c90:	80 81       	ld	r24, Z
    1c92:	87 70       	andi	r24, 0x07	; 7
    1c94:	88 61       	ori	r24, 0x18	; 24
    1c96:	80 83       	st	Z, r24
MyMelodyBox[Number].Table[18].Note= e3 	 ;MyMelodyBox[Number].Table[18].Notelength = 5;
    1c98:	2d 8d       	ldd	r18, Y+29	; 0x1d
    1c9a:	3e 8d       	ldd	r19, Y+30	; 0x1e
    1c9c:	8b ec       	ldi	r24, 0xCB	; 203
    1c9e:	90 e0       	ldi	r25, 0x00	; 0
    1ca0:	ac 01       	movw	r20, r24
    1ca2:	24 9f       	mul	r18, r20
    1ca4:	c0 01       	movw	r24, r0
    1ca6:	25 9f       	mul	r18, r21
    1ca8:	90 0d       	add	r25, r0
    1caa:	34 9f       	mul	r19, r20
    1cac:	90 0d       	add	r25, r0
    1cae:	11 24       	eor	r1, r1
    1cb0:	fc 01       	movw	r30, r24
    1cb2:	e9 50       	subi	r30, 0x09	; 9
    1cb4:	fe 4f       	sbci	r31, 0xFE	; 254
    1cb6:	86 e2       	ldi	r24, 0x26	; 38
    1cb8:	80 83       	st	Z, r24
    1cba:	81 81       	ldd	r24, Z+1	; 0x01
    1cbc:	88 7f       	andi	r24, 0xF8	; 248
    1cbe:	85 60       	ori	r24, 0x05	; 5
    1cc0:	81 83       	std	Z+1, r24	; 0x01
    1cc2:	2d 8d       	ldd	r18, Y+29	; 0x1d
    1cc4:	3e 8d       	ldd	r19, Y+30	; 0x1e
    1cc6:	8b ec       	ldi	r24, 0xCB	; 203
    1cc8:	90 e0       	ldi	r25, 0x00	; 0
    1cca:	fc 01       	movw	r30, r24
    1ccc:	2e 9f       	mul	r18, r30
    1cce:	c0 01       	movw	r24, r0
    1cd0:	2f 9f       	mul	r18, r31
    1cd2:	90 0d       	add	r25, r0
    1cd4:	3e 9f       	mul	r19, r30
    1cd6:	90 0d       	add	r25, r0
    1cd8:	11 24       	eor	r1, r1
    1cda:	fc 01       	movw	r30, r24
    1cdc:	e8 50       	subi	r30, 0x08	; 8
    1cde:	fe 4f       	sbci	r31, 0xFE	; 254
    1ce0:	80 81       	ld	r24, Z
    1ce2:	87 70       	andi	r24, 0x07	; 7
    1ce4:	88 62       	ori	r24, 0x28	; 40
    1ce6:	80 83       	st	Z, r24
MyMelodyBox[Number].Table[19].Note= f3 	 ;MyMelodyBox[Number].Table[19].Notelength = 5;
    1ce8:	2d 8d       	ldd	r18, Y+29	; 0x1d
    1cea:	3e 8d       	ldd	r19, Y+30	; 0x1e
    1cec:	8b ec       	ldi	r24, 0xCB	; 203
    1cee:	90 e0       	ldi	r25, 0x00	; 0
    1cf0:	ac 01       	movw	r20, r24
    1cf2:	24 9f       	mul	r18, r20
    1cf4:	c0 01       	movw	r24, r0
    1cf6:	25 9f       	mul	r18, r21
    1cf8:	90 0d       	add	r25, r0
    1cfa:	34 9f       	mul	r19, r20
    1cfc:	90 0d       	add	r25, r0
    1cfe:	11 24       	eor	r1, r1
    1d00:	fc 01       	movw	r30, r24
    1d02:	e7 50       	subi	r30, 0x07	; 7
    1d04:	fe 4f       	sbci	r31, 0xFE	; 254
    1d06:	84 e7       	ldi	r24, 0x74	; 116
    1d08:	80 83       	st	Z, r24
    1d0a:	81 81       	ldd	r24, Z+1	; 0x01
    1d0c:	88 7f       	andi	r24, 0xF8	; 248
    1d0e:	85 60       	ori	r24, 0x05	; 5
    1d10:	81 83       	std	Z+1, r24	; 0x01
    1d12:	2d 8d       	ldd	r18, Y+29	; 0x1d
    1d14:	3e 8d       	ldd	r19, Y+30	; 0x1e
    1d16:	8b ec       	ldi	r24, 0xCB	; 203
    1d18:	90 e0       	ldi	r25, 0x00	; 0
    1d1a:	fc 01       	movw	r30, r24
    1d1c:	2e 9f       	mul	r18, r30
    1d1e:	c0 01       	movw	r24, r0
    1d20:	2f 9f       	mul	r18, r31
    1d22:	90 0d       	add	r25, r0
    1d24:	3e 9f       	mul	r19, r30
    1d26:	90 0d       	add	r25, r0
    1d28:	11 24       	eor	r1, r1
    1d2a:	fc 01       	movw	r30, r24
    1d2c:	e6 50       	subi	r30, 0x06	; 6
    1d2e:	fe 4f       	sbci	r31, 0xFE	; 254
    1d30:	80 81       	ld	r24, Z
    1d32:	87 70       	andi	r24, 0x07	; 7
    1d34:	88 62       	ori	r24, 0x28	; 40
    1d36:	80 83       	st	Z, r24
MyMelodyBox[Number].Table[20].Note= c3 	 ;MyMelodyBox[Number].Table[20].Notelength = 3;
    1d38:	2d 8d       	ldd	r18, Y+29	; 0x1d
    1d3a:	3e 8d       	ldd	r19, Y+30	; 0x1e
    1d3c:	8b ec       	ldi	r24, 0xCB	; 203
    1d3e:	90 e0       	ldi	r25, 0x00	; 0
    1d40:	ac 01       	movw	r20, r24
    1d42:	24 9f       	mul	r18, r20
    1d44:	c0 01       	movw	r24, r0
    1d46:	25 9f       	mul	r18, r21
    1d48:	90 0d       	add	r25, r0
    1d4a:	34 9f       	mul	r19, r20
    1d4c:	90 0d       	add	r25, r0
    1d4e:	11 24       	eor	r1, r1
    1d50:	fc 01       	movw	r30, r24
    1d52:	e5 50       	subi	r30, 0x05	; 5
    1d54:	fe 4f       	sbci	r31, 0xFE	; 254
    1d56:	86 e1       	ldi	r24, 0x16	; 22
    1d58:	80 83       	st	Z, r24
    1d5a:	81 81       	ldd	r24, Z+1	; 0x01
    1d5c:	88 7f       	andi	r24, 0xF8	; 248
    1d5e:	84 60       	ori	r24, 0x04	; 4
    1d60:	81 83       	std	Z+1, r24	; 0x01
    1d62:	2d 8d       	ldd	r18, Y+29	; 0x1d
    1d64:	3e 8d       	ldd	r19, Y+30	; 0x1e
    1d66:	8b ec       	ldi	r24, 0xCB	; 203
    1d68:	90 e0       	ldi	r25, 0x00	; 0
    1d6a:	fc 01       	movw	r30, r24
    1d6c:	2e 9f       	mul	r18, r30
    1d6e:	c0 01       	movw	r24, r0
    1d70:	2f 9f       	mul	r18, r31
    1d72:	90 0d       	add	r25, r0
    1d74:	3e 9f       	mul	r19, r30
    1d76:	90 0d       	add	r25, r0
    1d78:	11 24       	eor	r1, r1
    1d7a:	fc 01       	movw	r30, r24
    1d7c:	e4 50       	subi	r30, 0x04	; 4
    1d7e:	fe 4f       	sbci	r31, 0xFE	; 254
    1d80:	80 81       	ld	r24, Z
    1d82:	87 70       	andi	r24, 0x07	; 7
    1d84:	88 61       	ori	r24, 0x18	; 24
    1d86:	80 83       	st	Z, r24
MyMelodyBox[Number].Table[21].Note = g1	 ;MyMelodyBox[Number].Table[21].Notelength = 3;
    1d88:	2d 8d       	ldd	r18, Y+29	; 0x1d
    1d8a:	3e 8d       	ldd	r19, Y+30	; 0x1e
    1d8c:	8b ec       	ldi	r24, 0xCB	; 203
    1d8e:	90 e0       	ldi	r25, 0x00	; 0
    1d90:	ac 01       	movw	r20, r24
    1d92:	24 9f       	mul	r18, r20
    1d94:	c0 01       	movw	r24, r0
    1d96:	25 9f       	mul	r18, r21
    1d98:	90 0d       	add	r25, r0
    1d9a:	34 9f       	mul	r19, r20
    1d9c:	90 0d       	add	r25, r0
    1d9e:	11 24       	eor	r1, r1
    1da0:	fc 01       	movw	r30, r24
    1da2:	e3 50       	subi	r30, 0x03	; 3
    1da4:	fe 4f       	sbci	r31, 0xFE	; 254
    1da6:	88 e8       	ldi	r24, 0x88	; 136
    1da8:	80 83       	st	Z, r24
    1daa:	81 81       	ldd	r24, Z+1	; 0x01
    1dac:	88 7f       	andi	r24, 0xF8	; 248
    1dae:	81 60       	ori	r24, 0x01	; 1
    1db0:	81 83       	std	Z+1, r24	; 0x01
    1db2:	2d 8d       	ldd	r18, Y+29	; 0x1d
    1db4:	3e 8d       	ldd	r19, Y+30	; 0x1e
    1db6:	8b ec       	ldi	r24, 0xCB	; 203
    1db8:	90 e0       	ldi	r25, 0x00	; 0
    1dba:	fc 01       	movw	r30, r24
    1dbc:	2e 9f       	mul	r18, r30
    1dbe:	c0 01       	movw	r24, r0
    1dc0:	2f 9f       	mul	r18, r31
    1dc2:	90 0d       	add	r25, r0
    1dc4:	3e 9f       	mul	r19, r30
    1dc6:	90 0d       	add	r25, r0
    1dc8:	11 24       	eor	r1, r1
    1dca:	fc 01       	movw	r30, r24
    1dcc:	e2 50       	subi	r30, 0x02	; 2
    1dce:	fe 4f       	sbci	r31, 0xFE	; 254
    1dd0:	80 81       	ld	r24, Z
    1dd2:	87 70       	andi	r24, 0x07	; 7
    1dd4:	88 61       	ori	r24, 0x18	; 24
    1dd6:	80 83       	st	Z, r24
MyMelodyBox[Number].Table[22].Note = d2	 ;MyMelodyBox[Number].Table[22].Notelength = 3;
    1dd8:	2d 8d       	ldd	r18, Y+29	; 0x1d
    1dda:	3e 8d       	ldd	r19, Y+30	; 0x1e
    1ddc:	8b ec       	ldi	r24, 0xCB	; 203
    1dde:	90 e0       	ldi	r25, 0x00	; 0
    1de0:	ac 01       	movw	r20, r24
    1de2:	24 9f       	mul	r18, r20
    1de4:	c0 01       	movw	r24, r0
    1de6:	25 9f       	mul	r18, r21
    1de8:	90 0d       	add	r25, r0
    1dea:	34 9f       	mul	r19, r20
    1dec:	90 0d       	add	r25, r0
    1dee:	11 24       	eor	r1, r1
    1df0:	fc 01       	movw	r30, r24
    1df2:	e1 50       	subi	r30, 0x01	; 1
    1df4:	fe 4f       	sbci	r31, 0xFE	; 254
    1df6:	8b e4       	ldi	r24, 0x4B	; 75
    1df8:	80 83       	st	Z, r24
    1dfa:	81 81       	ldd	r24, Z+1	; 0x01
    1dfc:	88 7f       	andi	r24, 0xF8	; 248
    1dfe:	82 60       	ori	r24, 0x02	; 2
    1e00:	81 83       	std	Z+1, r24	; 0x01
    1e02:	2d 8d       	ldd	r18, Y+29	; 0x1d
    1e04:	3e 8d       	ldd	r19, Y+30	; 0x1e
    1e06:	8b ec       	ldi	r24, 0xCB	; 203
    1e08:	90 e0       	ldi	r25, 0x00	; 0
    1e0a:	fc 01       	movw	r30, r24
    1e0c:	2e 9f       	mul	r18, r30
    1e0e:	c0 01       	movw	r24, r0
    1e10:	2f 9f       	mul	r18, r31
    1e12:	90 0d       	add	r25, r0
    1e14:	3e 9f       	mul	r19, r30
    1e16:	90 0d       	add	r25, r0
    1e18:	11 24       	eor	r1, r1
    1e1a:	fc 01       	movw	r30, r24
    1e1c:	e0 50       	subi	r30, 0x00	; 0
    1e1e:	fe 4f       	sbci	r31, 0xFE	; 254
    1e20:	80 81       	ld	r24, Z
    1e22:	87 70       	andi	r24, 0x07	; 7
    1e24:	88 61       	ori	r24, 0x18	; 24
    1e26:	80 83       	st	Z, r24
MyMelodyBox[Number].Table[23].Note = f2	 ;MyMelodyBox[Number].Table[23].Notelength = 3;
    1e28:	2d 8d       	ldd	r18, Y+29	; 0x1d
    1e2a:	3e 8d       	ldd	r19, Y+30	; 0x1e
    1e2c:	8b ec       	ldi	r24, 0xCB	; 203
    1e2e:	90 e0       	ldi	r25, 0x00	; 0
    1e30:	ac 01       	movw	r20, r24
    1e32:	24 9f       	mul	r18, r20
    1e34:	c0 01       	movw	r24, r0
    1e36:	25 9f       	mul	r18, r21
    1e38:	90 0d       	add	r25, r0
    1e3a:	34 9f       	mul	r19, r20
    1e3c:	90 0d       	add	r25, r0
    1e3e:	11 24       	eor	r1, r1
    1e40:	fc 01       	movw	r30, r24
    1e42:	ef 5f       	subi	r30, 0xFF	; 255
    1e44:	fd 4f       	sbci	r31, 0xFD	; 253
    1e46:	8a eb       	ldi	r24, 0xBA	; 186
    1e48:	80 83       	st	Z, r24
    1e4a:	81 81       	ldd	r24, Z+1	; 0x01
    1e4c:	88 7f       	andi	r24, 0xF8	; 248
    1e4e:	82 60       	ori	r24, 0x02	; 2
    1e50:	81 83       	std	Z+1, r24	; 0x01
    1e52:	2d 8d       	ldd	r18, Y+29	; 0x1d
    1e54:	3e 8d       	ldd	r19, Y+30	; 0x1e
    1e56:	8b ec       	ldi	r24, 0xCB	; 203
    1e58:	90 e0       	ldi	r25, 0x00	; 0
    1e5a:	fc 01       	movw	r30, r24
    1e5c:	2e 9f       	mul	r18, r30
    1e5e:	c0 01       	movw	r24, r0
    1e60:	2f 9f       	mul	r18, r31
    1e62:	90 0d       	add	r25, r0
    1e64:	3e 9f       	mul	r19, r30
    1e66:	90 0d       	add	r25, r0
    1e68:	11 24       	eor	r1, r1
    1e6a:	fc 01       	movw	r30, r24
    1e6c:	ee 5f       	subi	r30, 0xFE	; 254
    1e6e:	fd 4f       	sbci	r31, 0xFD	; 253
    1e70:	80 81       	ld	r24, Z
    1e72:	87 70       	andi	r24, 0x07	; 7
    1e74:	88 61       	ori	r24, 0x18	; 24
    1e76:	80 83       	st	Z, r24
MyMelodyBox[Number].Table[24].Note = e2	 ;MyMelodyBox[Number].Table[24].Notelength = 5;
    1e78:	2d 8d       	ldd	r18, Y+29	; 0x1d
    1e7a:	3e 8d       	ldd	r19, Y+30	; 0x1e
    1e7c:	8b ec       	ldi	r24, 0xCB	; 203
    1e7e:	90 e0       	ldi	r25, 0x00	; 0
    1e80:	ac 01       	movw	r20, r24
    1e82:	24 9f       	mul	r18, r20
    1e84:	c0 01       	movw	r24, r0
    1e86:	25 9f       	mul	r18, r21
    1e88:	90 0d       	add	r25, r0
    1e8a:	34 9f       	mul	r19, r20
    1e8c:	90 0d       	add	r25, r0
    1e8e:	11 24       	eor	r1, r1
    1e90:	fc 01       	movw	r30, r24
    1e92:	ed 5f       	subi	r30, 0xFD	; 253
    1e94:	fd 4f       	sbci	r31, 0xFD	; 253
    1e96:	83 e9       	ldi	r24, 0x93	; 147
    1e98:	80 83       	st	Z, r24
    1e9a:	81 81       	ldd	r24, Z+1	; 0x01
    1e9c:	88 7f       	andi	r24, 0xF8	; 248
    1e9e:	82 60       	ori	r24, 0x02	; 2
    1ea0:	81 83       	std	Z+1, r24	; 0x01
    1ea2:	2d 8d       	ldd	r18, Y+29	; 0x1d
    1ea4:	3e 8d       	ldd	r19, Y+30	; 0x1e
    1ea6:	8b ec       	ldi	r24, 0xCB	; 203
    1ea8:	90 e0       	ldi	r25, 0x00	; 0
    1eaa:	fc 01       	movw	r30, r24
    1eac:	2e 9f       	mul	r18, r30
    1eae:	c0 01       	movw	r24, r0
    1eb0:	2f 9f       	mul	r18, r31
    1eb2:	90 0d       	add	r25, r0
    1eb4:	3e 9f       	mul	r19, r30
    1eb6:	90 0d       	add	r25, r0
    1eb8:	11 24       	eor	r1, r1
    1eba:	fc 01       	movw	r30, r24
    1ebc:	ec 5f       	subi	r30, 0xFC	; 252
    1ebe:	fd 4f       	sbci	r31, 0xFD	; 253
    1ec0:	80 81       	ld	r24, Z
    1ec2:	87 70       	andi	r24, 0x07	; 7
    1ec4:	88 62       	ori	r24, 0x28	; 40
    1ec6:	80 83       	st	Z, r24
MyMelodyBox[Number].Table[25].Note = e3	 ;MyMelodyBox[Number].Table[25].Notelength = 5;
    1ec8:	2d 8d       	ldd	r18, Y+29	; 0x1d
    1eca:	3e 8d       	ldd	r19, Y+30	; 0x1e
    1ecc:	8b ec       	ldi	r24, 0xCB	; 203
    1ece:	90 e0       	ldi	r25, 0x00	; 0
    1ed0:	ac 01       	movw	r20, r24
    1ed2:	24 9f       	mul	r18, r20
    1ed4:	c0 01       	movw	r24, r0
    1ed6:	25 9f       	mul	r18, r21
    1ed8:	90 0d       	add	r25, r0
    1eda:	34 9f       	mul	r19, r20
    1edc:	90 0d       	add	r25, r0
    1ede:	11 24       	eor	r1, r1
    1ee0:	fc 01       	movw	r30, r24
    1ee2:	eb 5f       	subi	r30, 0xFB	; 251
    1ee4:	fd 4f       	sbci	r31, 0xFD	; 253
    1ee6:	86 e2       	ldi	r24, 0x26	; 38
    1ee8:	80 83       	st	Z, r24
    1eea:	81 81       	ldd	r24, Z+1	; 0x01
    1eec:	88 7f       	andi	r24, 0xF8	; 248
    1eee:	85 60       	ori	r24, 0x05	; 5
    1ef0:	81 83       	std	Z+1, r24	; 0x01
    1ef2:	2d 8d       	ldd	r18, Y+29	; 0x1d
    1ef4:	3e 8d       	ldd	r19, Y+30	; 0x1e
    1ef6:	8b ec       	ldi	r24, 0xCB	; 203
    1ef8:	90 e0       	ldi	r25, 0x00	; 0
    1efa:	fc 01       	movw	r30, r24
    1efc:	2e 9f       	mul	r18, r30
    1efe:	c0 01       	movw	r24, r0
    1f00:	2f 9f       	mul	r18, r31
    1f02:	90 0d       	add	r25, r0
    1f04:	3e 9f       	mul	r19, r30
    1f06:	90 0d       	add	r25, r0
    1f08:	11 24       	eor	r1, r1
    1f0a:	fc 01       	movw	r30, r24
    1f0c:	ea 5f       	subi	r30, 0xFA	; 250
    1f0e:	fd 4f       	sbci	r31, 0xFD	; 253
    1f10:	80 81       	ld	r24, Z
    1f12:	87 70       	andi	r24, 0x07	; 7
    1f14:	88 62       	ori	r24, 0x28	; 40
    1f16:	80 83       	st	Z, r24
MyMelodyBox[Number].Table[26].Note = f3   ;MyMelodyBox[Number].Table[26].Notelength  = 3;
    1f18:	2d 8d       	ldd	r18, Y+29	; 0x1d
    1f1a:	3e 8d       	ldd	r19, Y+30	; 0x1e
    1f1c:	8b ec       	ldi	r24, 0xCB	; 203
    1f1e:	90 e0       	ldi	r25, 0x00	; 0
    1f20:	ac 01       	movw	r20, r24
    1f22:	24 9f       	mul	r18, r20
    1f24:	c0 01       	movw	r24, r0
    1f26:	25 9f       	mul	r18, r21
    1f28:	90 0d       	add	r25, r0
    1f2a:	34 9f       	mul	r19, r20
    1f2c:	90 0d       	add	r25, r0
    1f2e:	11 24       	eor	r1, r1
    1f30:	fc 01       	movw	r30, r24
    1f32:	e9 5f       	subi	r30, 0xF9	; 249
    1f34:	fd 4f       	sbci	r31, 0xFD	; 253
    1f36:	84 e7       	ldi	r24, 0x74	; 116
    1f38:	80 83       	st	Z, r24
    1f3a:	81 81       	ldd	r24, Z+1	; 0x01
    1f3c:	88 7f       	andi	r24, 0xF8	; 248
    1f3e:	85 60       	ori	r24, 0x05	; 5
    1f40:	81 83       	std	Z+1, r24	; 0x01
    1f42:	2d 8d       	ldd	r18, Y+29	; 0x1d
    1f44:	3e 8d       	ldd	r19, Y+30	; 0x1e
    1f46:	8b ec       	ldi	r24, 0xCB	; 203
    1f48:	90 e0       	ldi	r25, 0x00	; 0
    1f4a:	fc 01       	movw	r30, r24
    1f4c:	2e 9f       	mul	r18, r30
    1f4e:	c0 01       	movw	r24, r0
    1f50:	2f 9f       	mul	r18, r31
    1f52:	90 0d       	add	r25, r0
    1f54:	3e 9f       	mul	r19, r30
    1f56:	90 0d       	add	r25, r0
    1f58:	11 24       	eor	r1, r1
    1f5a:	fc 01       	movw	r30, r24
    1f5c:	e8 5f       	subi	r30, 0xF8	; 248
    1f5e:	fd 4f       	sbci	r31, 0xFD	; 253
    1f60:	80 81       	ld	r24, Z
    1f62:	87 70       	andi	r24, 0x07	; 7
    1f64:	88 61       	ori	r24, 0x18	; 24
    1f66:	80 83       	st	Z, r24
MyMelodyBox[Number].Table[27].Note = e3   ;MyMelodyBox[Number].Table[27].Notelength  = 3;
    1f68:	2d 8d       	ldd	r18, Y+29	; 0x1d
    1f6a:	3e 8d       	ldd	r19, Y+30	; 0x1e
    1f6c:	8b ec       	ldi	r24, 0xCB	; 203
    1f6e:	90 e0       	ldi	r25, 0x00	; 0
    1f70:	ac 01       	movw	r20, r24
    1f72:	24 9f       	mul	r18, r20
    1f74:	c0 01       	movw	r24, r0
    1f76:	25 9f       	mul	r18, r21
    1f78:	90 0d       	add	r25, r0
    1f7a:	34 9f       	mul	r19, r20
    1f7c:	90 0d       	add	r25, r0
    1f7e:	11 24       	eor	r1, r1
    1f80:	fc 01       	movw	r30, r24
    1f82:	e7 5f       	subi	r30, 0xF7	; 247
    1f84:	fd 4f       	sbci	r31, 0xFD	; 253
    1f86:	86 e2       	ldi	r24, 0x26	; 38
    1f88:	80 83       	st	Z, r24
    1f8a:	81 81       	ldd	r24, Z+1	; 0x01
    1f8c:	88 7f       	andi	r24, 0xF8	; 248
    1f8e:	85 60       	ori	r24, 0x05	; 5
    1f90:	81 83       	std	Z+1, r24	; 0x01
    1f92:	2d 8d       	ldd	r18, Y+29	; 0x1d
    1f94:	3e 8d       	ldd	r19, Y+30	; 0x1e
    1f96:	8b ec       	ldi	r24, 0xCB	; 203
    1f98:	90 e0       	ldi	r25, 0x00	; 0
    1f9a:	fc 01       	movw	r30, r24
    1f9c:	2e 9f       	mul	r18, r30
    1f9e:	c0 01       	movw	r24, r0
    1fa0:	2f 9f       	mul	r18, r31
    1fa2:	90 0d       	add	r25, r0
    1fa4:	3e 9f       	mul	r19, r30
    1fa6:	90 0d       	add	r25, r0
    1fa8:	11 24       	eor	r1, r1
    1faa:	fc 01       	movw	r30, r24
    1fac:	e6 5f       	subi	r30, 0xF6	; 246
    1fae:	fd 4f       	sbci	r31, 0xFD	; 253
    1fb0:	80 81       	ld	r24, Z
    1fb2:	87 70       	andi	r24, 0x07	; 7
    1fb4:	88 61       	ori	r24, 0x18	; 24
    1fb6:	80 83       	st	Z, r24
MyMelodyBox[Number].Table[28].Note = c3   ;MyMelodyBox[Number].Table[28].Notelength  = 3;
    1fb8:	2d 8d       	ldd	r18, Y+29	; 0x1d
    1fba:	3e 8d       	ldd	r19, Y+30	; 0x1e
    1fbc:	8b ec       	ldi	r24, 0xCB	; 203
    1fbe:	90 e0       	ldi	r25, 0x00	; 0
    1fc0:	ac 01       	movw	r20, r24
    1fc2:	24 9f       	mul	r18, r20
    1fc4:	c0 01       	movw	r24, r0
    1fc6:	25 9f       	mul	r18, r21
    1fc8:	90 0d       	add	r25, r0
    1fca:	34 9f       	mul	r19, r20
    1fcc:	90 0d       	add	r25, r0
    1fce:	11 24       	eor	r1, r1
    1fd0:	fc 01       	movw	r30, r24
    1fd2:	e5 5f       	subi	r30, 0xF5	; 245
    1fd4:	fd 4f       	sbci	r31, 0xFD	; 253
    1fd6:	86 e1       	ldi	r24, 0x16	; 22
    1fd8:	80 83       	st	Z, r24
    1fda:	81 81       	ldd	r24, Z+1	; 0x01
    1fdc:	88 7f       	andi	r24, 0xF8	; 248
    1fde:	84 60       	ori	r24, 0x04	; 4
    1fe0:	81 83       	std	Z+1, r24	; 0x01
    1fe2:	2d 8d       	ldd	r18, Y+29	; 0x1d
    1fe4:	3e 8d       	ldd	r19, Y+30	; 0x1e
    1fe6:	8b ec       	ldi	r24, 0xCB	; 203
    1fe8:	90 e0       	ldi	r25, 0x00	; 0
    1fea:	fc 01       	movw	r30, r24
    1fec:	2e 9f       	mul	r18, r30
    1fee:	c0 01       	movw	r24, r0
    1ff0:	2f 9f       	mul	r18, r31
    1ff2:	90 0d       	add	r25, r0
    1ff4:	3e 9f       	mul	r19, r30
    1ff6:	90 0d       	add	r25, r0
    1ff8:	11 24       	eor	r1, r1
    1ffa:	fc 01       	movw	r30, r24
    1ffc:	e4 5f       	subi	r30, 0xF4	; 244
    1ffe:	fd 4f       	sbci	r31, 0xFD	; 253
    2000:	80 81       	ld	r24, Z
    2002:	87 70       	andi	r24, 0x07	; 7
    2004:	88 61       	ori	r24, 0x18	; 24
    2006:	80 83       	st	Z, r24
MyMelodyBox[Number].Table[29].Note = a2   ;MyMelodyBox[Number].Table[29].Notelength  = 3;
    2008:	2d 8d       	ldd	r18, Y+29	; 0x1d
    200a:	3e 8d       	ldd	r19, Y+30	; 0x1e
    200c:	8b ec       	ldi	r24, 0xCB	; 203
    200e:	90 e0       	ldi	r25, 0x00	; 0
    2010:	ac 01       	movw	r20, r24
    2012:	24 9f       	mul	r18, r20
    2014:	c0 01       	movw	r24, r0
    2016:	25 9f       	mul	r18, r21
    2018:	90 0d       	add	r25, r0
    201a:	34 9f       	mul	r19, r20
    201c:	90 0d       	add	r25, r0
    201e:	11 24       	eor	r1, r1
    2020:	fc 01       	movw	r30, r24
    2022:	e3 5f       	subi	r30, 0xF3	; 243
    2024:	fd 4f       	sbci	r31, 0xFD	; 253
    2026:	80 e7       	ldi	r24, 0x70	; 112
    2028:	80 83       	st	Z, r24
    202a:	81 81       	ldd	r24, Z+1	; 0x01
    202c:	88 7f       	andi	r24, 0xF8	; 248
    202e:	83 60       	ori	r24, 0x03	; 3
    2030:	81 83       	std	Z+1, r24	; 0x01
    2032:	2d 8d       	ldd	r18, Y+29	; 0x1d
    2034:	3e 8d       	ldd	r19, Y+30	; 0x1e
    2036:	8b ec       	ldi	r24, 0xCB	; 203
    2038:	90 e0       	ldi	r25, 0x00	; 0
    203a:	fc 01       	movw	r30, r24
    203c:	2e 9f       	mul	r18, r30
    203e:	c0 01       	movw	r24, r0
    2040:	2f 9f       	mul	r18, r31
    2042:	90 0d       	add	r25, r0
    2044:	3e 9f       	mul	r19, r30
    2046:	90 0d       	add	r25, r0
    2048:	11 24       	eor	r1, r1
    204a:	fc 01       	movw	r30, r24
    204c:	e2 5f       	subi	r30, 0xF2	; 242
    204e:	fd 4f       	sbci	r31, 0xFD	; 253
    2050:	80 81       	ld	r24, Z
    2052:	87 70       	andi	r24, 0x07	; 7
    2054:	88 61       	ori	r24, 0x18	; 24
    2056:	80 83       	st	Z, r24
MyMelodyBox[Number].Table[30].Note = d3   ;MyMelodyBox[Number].Table[30].Notelength  = 3; 
    2058:	2d 8d       	ldd	r18, Y+29	; 0x1d
    205a:	3e 8d       	ldd	r19, Y+30	; 0x1e
    205c:	8b ec       	ldi	r24, 0xCB	; 203
    205e:	90 e0       	ldi	r25, 0x00	; 0
    2060:	ac 01       	movw	r20, r24
    2062:	24 9f       	mul	r18, r20
    2064:	c0 01       	movw	r24, r0
    2066:	25 9f       	mul	r18, r21
    2068:	90 0d       	add	r25, r0
    206a:	34 9f       	mul	r19, r20
    206c:	90 0d       	add	r25, r0
    206e:	11 24       	eor	r1, r1
    2070:	fc 01       	movw	r30, r24
    2072:	e1 5f       	subi	r30, 0xF1	; 241
    2074:	fd 4f       	sbci	r31, 0xFD	; 253
    2076:	86 e9       	ldi	r24, 0x96	; 150
    2078:	80 83       	st	Z, r24
    207a:	81 81       	ldd	r24, Z+1	; 0x01
    207c:	88 7f       	andi	r24, 0xF8	; 248
    207e:	84 60       	ori	r24, 0x04	; 4
    2080:	81 83       	std	Z+1, r24	; 0x01
    2082:	2d 8d       	ldd	r18, Y+29	; 0x1d
    2084:	3e 8d       	ldd	r19, Y+30	; 0x1e
    2086:	8b ec       	ldi	r24, 0xCB	; 203
    2088:	90 e0       	ldi	r25, 0x00	; 0
    208a:	fc 01       	movw	r30, r24
    208c:	2e 9f       	mul	r18, r30
    208e:	c0 01       	movw	r24, r0
    2090:	2f 9f       	mul	r18, r31
    2092:	90 0d       	add	r25, r0
    2094:	3e 9f       	mul	r19, r30
    2096:	90 0d       	add	r25, r0
    2098:	11 24       	eor	r1, r1
    209a:	fc 01       	movw	r30, r24
    209c:	e0 5f       	subi	r30, 0xF0	; 240
    209e:	fd 4f       	sbci	r31, 0xFD	; 253
    20a0:	80 81       	ld	r24, Z
    20a2:	87 70       	andi	r24, 0x07	; 7
    20a4:	88 61       	ori	r24, 0x18	; 24
    20a6:	80 83       	st	Z, r24
MyMelodyBox[Number].Table[31].Note = d3   ;MyMelodyBox[Number].Table[31].Notelength  = 3;
    20a8:	2d 8d       	ldd	r18, Y+29	; 0x1d
    20aa:	3e 8d       	ldd	r19, Y+30	; 0x1e
    20ac:	8b ec       	ldi	r24, 0xCB	; 203
    20ae:	90 e0       	ldi	r25, 0x00	; 0
    20b0:	ac 01       	movw	r20, r24
    20b2:	24 9f       	mul	r18, r20
    20b4:	c0 01       	movw	r24, r0
    20b6:	25 9f       	mul	r18, r21
    20b8:	90 0d       	add	r25, r0
    20ba:	34 9f       	mul	r19, r20
    20bc:	90 0d       	add	r25, r0
    20be:	11 24       	eor	r1, r1
    20c0:	fc 01       	movw	r30, r24
    20c2:	ef 5e       	subi	r30, 0xEF	; 239
    20c4:	fd 4f       	sbci	r31, 0xFD	; 253
    20c6:	86 e9       	ldi	r24, 0x96	; 150
    20c8:	80 83       	st	Z, r24
    20ca:	81 81       	ldd	r24, Z+1	; 0x01
    20cc:	88 7f       	andi	r24, 0xF8	; 248
    20ce:	84 60       	ori	r24, 0x04	; 4
    20d0:	81 83       	std	Z+1, r24	; 0x01
    20d2:	2d 8d       	ldd	r18, Y+29	; 0x1d
    20d4:	3e 8d       	ldd	r19, Y+30	; 0x1e
    20d6:	8b ec       	ldi	r24, 0xCB	; 203
    20d8:	90 e0       	ldi	r25, 0x00	; 0
    20da:	fc 01       	movw	r30, r24
    20dc:	2e 9f       	mul	r18, r30
    20de:	c0 01       	movw	r24, r0
    20e0:	2f 9f       	mul	r18, r31
    20e2:	90 0d       	add	r25, r0
    20e4:	3e 9f       	mul	r19, r30
    20e6:	90 0d       	add	r25, r0
    20e8:	11 24       	eor	r1, r1
    20ea:	fc 01       	movw	r30, r24
    20ec:	ee 5e       	subi	r30, 0xEE	; 238
    20ee:	fd 4f       	sbci	r31, 0xFD	; 253
    20f0:	80 81       	ld	r24, Z
    20f2:	87 70       	andi	r24, 0x07	; 7
    20f4:	88 61       	ori	r24, 0x18	; 24
    20f6:	80 83       	st	Z, r24
MyMelodyBox[Number].Table[32].Note= c3    ;MyMelodyBox[Number].Table[32].Notelength  = 3;
    20f8:	2d 8d       	ldd	r18, Y+29	; 0x1d
    20fa:	3e 8d       	ldd	r19, Y+30	; 0x1e
    20fc:	8b ec       	ldi	r24, 0xCB	; 203
    20fe:	90 e0       	ldi	r25, 0x00	; 0
    2100:	ac 01       	movw	r20, r24
    2102:	24 9f       	mul	r18, r20
    2104:	c0 01       	movw	r24, r0
    2106:	25 9f       	mul	r18, r21
    2108:	90 0d       	add	r25, r0
    210a:	34 9f       	mul	r19, r20
    210c:	90 0d       	add	r25, r0
    210e:	11 24       	eor	r1, r1
    2110:	fc 01       	movw	r30, r24
    2112:	ed 5e       	subi	r30, 0xED	; 237
    2114:	fd 4f       	sbci	r31, 0xFD	; 253
    2116:	86 e1       	ldi	r24, 0x16	; 22
    2118:	80 83       	st	Z, r24
    211a:	81 81       	ldd	r24, Z+1	; 0x01
    211c:	88 7f       	andi	r24, 0xF8	; 248
    211e:	84 60       	ori	r24, 0x04	; 4
    2120:	81 83       	std	Z+1, r24	; 0x01
    2122:	2d 8d       	ldd	r18, Y+29	; 0x1d
    2124:	3e 8d       	ldd	r19, Y+30	; 0x1e
    2126:	8b ec       	ldi	r24, 0xCB	; 203
    2128:	90 e0       	ldi	r25, 0x00	; 0
    212a:	fc 01       	movw	r30, r24
    212c:	2e 9f       	mul	r18, r30
    212e:	c0 01       	movw	r24, r0
    2130:	2f 9f       	mul	r18, r31
    2132:	90 0d       	add	r25, r0
    2134:	3e 9f       	mul	r19, r30
    2136:	90 0d       	add	r25, r0
    2138:	11 24       	eor	r1, r1
    213a:	fc 01       	movw	r30, r24
    213c:	ec 5e       	subi	r30, 0xEC	; 236
    213e:	fd 4f       	sbci	r31, 0xFD	; 253
    2140:	80 81       	ld	r24, Z
    2142:	87 70       	andi	r24, 0x07	; 7
    2144:	88 61       	ori	r24, 0x18	; 24
    2146:	80 83       	st	Z, r24
MyMelodyBox[Number].Table[33].Note= a2    ;MyMelodyBox[Number].Table[33].Notelength  = 3;
    2148:	2d 8d       	ldd	r18, Y+29	; 0x1d
    214a:	3e 8d       	ldd	r19, Y+30	; 0x1e
    214c:	8b ec       	ldi	r24, 0xCB	; 203
    214e:	90 e0       	ldi	r25, 0x00	; 0
    2150:	ac 01       	movw	r20, r24
    2152:	24 9f       	mul	r18, r20
    2154:	c0 01       	movw	r24, r0
    2156:	25 9f       	mul	r18, r21
    2158:	90 0d       	add	r25, r0
    215a:	34 9f       	mul	r19, r20
    215c:	90 0d       	add	r25, r0
    215e:	11 24       	eor	r1, r1
    2160:	fc 01       	movw	r30, r24
    2162:	eb 5e       	subi	r30, 0xEB	; 235
    2164:	fd 4f       	sbci	r31, 0xFD	; 253
    2166:	80 e7       	ldi	r24, 0x70	; 112
    2168:	80 83       	st	Z, r24
    216a:	81 81       	ldd	r24, Z+1	; 0x01
    216c:	88 7f       	andi	r24, 0xF8	; 248
    216e:	83 60       	ori	r24, 0x03	; 3
    2170:	81 83       	std	Z+1, r24	; 0x01
    2172:	2d 8d       	ldd	r18, Y+29	; 0x1d
    2174:	3e 8d       	ldd	r19, Y+30	; 0x1e
    2176:	8b ec       	ldi	r24, 0xCB	; 203
    2178:	90 e0       	ldi	r25, 0x00	; 0
    217a:	fc 01       	movw	r30, r24
    217c:	2e 9f       	mul	r18, r30
    217e:	c0 01       	movw	r24, r0
    2180:	2f 9f       	mul	r18, r31
    2182:	90 0d       	add	r25, r0
    2184:	3e 9f       	mul	r19, r30
    2186:	90 0d       	add	r25, r0
    2188:	11 24       	eor	r1, r1
    218a:	fc 01       	movw	r30, r24
    218c:	ea 5e       	subi	r30, 0xEA	; 234
    218e:	fd 4f       	sbci	r31, 0xFD	; 253
    2190:	80 81       	ld	r24, Z
    2192:	87 70       	andi	r24, 0x07	; 7
    2194:	88 61       	ori	r24, 0x18	; 24
    2196:	80 83       	st	Z, r24
MyMelodyBox[Number].Table[34].Note= f2 	 ;MyMelodyBox[Number].Table[34].Notelength = 3;
    2198:	2d 8d       	ldd	r18, Y+29	; 0x1d
    219a:	3e 8d       	ldd	r19, Y+30	; 0x1e
    219c:	8b ec       	ldi	r24, 0xCB	; 203
    219e:	90 e0       	ldi	r25, 0x00	; 0
    21a0:	ac 01       	movw	r20, r24
    21a2:	24 9f       	mul	r18, r20
    21a4:	c0 01       	movw	r24, r0
    21a6:	25 9f       	mul	r18, r21
    21a8:	90 0d       	add	r25, r0
    21aa:	34 9f       	mul	r19, r20
    21ac:	90 0d       	add	r25, r0
    21ae:	11 24       	eor	r1, r1
    21b0:	fc 01       	movw	r30, r24
    21b2:	e9 5e       	subi	r30, 0xE9	; 233
    21b4:	fd 4f       	sbci	r31, 0xFD	; 253
    21b6:	8a eb       	ldi	r24, 0xBA	; 186
    21b8:	80 83       	st	Z, r24
    21ba:	81 81       	ldd	r24, Z+1	; 0x01
    21bc:	88 7f       	andi	r24, 0xF8	; 248
    21be:	82 60       	ori	r24, 0x02	; 2
    21c0:	81 83       	std	Z+1, r24	; 0x01
    21c2:	2d 8d       	ldd	r18, Y+29	; 0x1d
    21c4:	3e 8d       	ldd	r19, Y+30	; 0x1e
    21c6:	8b ec       	ldi	r24, 0xCB	; 203
    21c8:	90 e0       	ldi	r25, 0x00	; 0
    21ca:	fc 01       	movw	r30, r24
    21cc:	2e 9f       	mul	r18, r30
    21ce:	c0 01       	movw	r24, r0
    21d0:	2f 9f       	mul	r18, r31
    21d2:	90 0d       	add	r25, r0
    21d4:	3e 9f       	mul	r19, r30
    21d6:	90 0d       	add	r25, r0
    21d8:	11 24       	eor	r1, r1
    21da:	fc 01       	movw	r30, r24
    21dc:	e8 5e       	subi	r30, 0xE8	; 232
    21de:	fd 4f       	sbci	r31, 0xFD	; 253
    21e0:	80 81       	ld	r24, Z
    21e2:	87 70       	andi	r24, 0x07	; 7
    21e4:	88 61       	ori	r24, 0x18	; 24
    21e6:	80 83       	st	Z, r24
MyMelodyBox[Number].Table[35].Note= g2 	 ;MyMelodyBox[Number].Table[35].Notelength = 3;
    21e8:	2d 8d       	ldd	r18, Y+29	; 0x1d
    21ea:	3e 8d       	ldd	r19, Y+30	; 0x1e
    21ec:	8b ec       	ldi	r24, 0xCB	; 203
    21ee:	90 e0       	ldi	r25, 0x00	; 0
    21f0:	ac 01       	movw	r20, r24
    21f2:	24 9f       	mul	r18, r20
    21f4:	c0 01       	movw	r24, r0
    21f6:	25 9f       	mul	r18, r21
    21f8:	90 0d       	add	r25, r0
    21fa:	34 9f       	mul	r19, r20
    21fc:	90 0d       	add	r25, r0
    21fe:	11 24       	eor	r1, r1
    2200:	fc 01       	movw	r30, r24
    2202:	e7 5e       	subi	r30, 0xE7	; 231
    2204:	fd 4f       	sbci	r31, 0xFD	; 253
    2206:	80 e1       	ldi	r24, 0x10	; 16
    2208:	80 83       	st	Z, r24
    220a:	81 81       	ldd	r24, Z+1	; 0x01
    220c:	88 7f       	andi	r24, 0xF8	; 248
    220e:	83 60       	ori	r24, 0x03	; 3
    2210:	81 83       	std	Z+1, r24	; 0x01
    2212:	2d 8d       	ldd	r18, Y+29	; 0x1d
    2214:	3e 8d       	ldd	r19, Y+30	; 0x1e
    2216:	8b ec       	ldi	r24, 0xCB	; 203
    2218:	90 e0       	ldi	r25, 0x00	; 0
    221a:	fc 01       	movw	r30, r24
    221c:	2e 9f       	mul	r18, r30
    221e:	c0 01       	movw	r24, r0
    2220:	2f 9f       	mul	r18, r31
    2222:	90 0d       	add	r25, r0
    2224:	3e 9f       	mul	r19, r30
    2226:	90 0d       	add	r25, r0
    2228:	11 24       	eor	r1, r1
    222a:	fc 01       	movw	r30, r24
    222c:	e6 5e       	subi	r30, 0xE6	; 230
    222e:	fd 4f       	sbci	r31, 0xFD	; 253
    2230:	80 81       	ld	r24, Z
    2232:	87 70       	andi	r24, 0x07	; 7
    2234:	88 61       	ori	r24, 0x18	; 24
    2236:	80 83       	st	Z, r24
MyMelodyBox[Number].Table[36].Note= a2   ;MyMelodyBox[Number].Table[36].Notelength = 5;
    2238:	2d 8d       	ldd	r18, Y+29	; 0x1d
    223a:	3e 8d       	ldd	r19, Y+30	; 0x1e
    223c:	8b ec       	ldi	r24, 0xCB	; 203
    223e:	90 e0       	ldi	r25, 0x00	; 0
    2240:	ac 01       	movw	r20, r24
    2242:	24 9f       	mul	r18, r20
    2244:	c0 01       	movw	r24, r0
    2246:	25 9f       	mul	r18, r21
    2248:	90 0d       	add	r25, r0
    224a:	34 9f       	mul	r19, r20
    224c:	90 0d       	add	r25, r0
    224e:	11 24       	eor	r1, r1
    2250:	fc 01       	movw	r30, r24
    2252:	e5 5e       	subi	r30, 0xE5	; 229
    2254:	fd 4f       	sbci	r31, 0xFD	; 253
    2256:	80 e7       	ldi	r24, 0x70	; 112
    2258:	80 83       	st	Z, r24
    225a:	81 81       	ldd	r24, Z+1	; 0x01
    225c:	88 7f       	andi	r24, 0xF8	; 248
    225e:	83 60       	ori	r24, 0x03	; 3
    2260:	81 83       	std	Z+1, r24	; 0x01
    2262:	2d 8d       	ldd	r18, Y+29	; 0x1d
    2264:	3e 8d       	ldd	r19, Y+30	; 0x1e
    2266:	8b ec       	ldi	r24, 0xCB	; 203
    2268:	90 e0       	ldi	r25, 0x00	; 0
    226a:	fc 01       	movw	r30, r24
    226c:	2e 9f       	mul	r18, r30
    226e:	c0 01       	movw	r24, r0
    2270:	2f 9f       	mul	r18, r31
    2272:	90 0d       	add	r25, r0
    2274:	3e 9f       	mul	r19, r30
    2276:	90 0d       	add	r25, r0
    2278:	11 24       	eor	r1, r1
    227a:	fc 01       	movw	r30, r24
    227c:	e4 5e       	subi	r30, 0xE4	; 228
    227e:	fd 4f       	sbci	r31, 0xFD	; 253
    2280:	80 81       	ld	r24, Z
    2282:	87 70       	andi	r24, 0x07	; 7
    2284:	88 62       	ori	r24, 0x28	; 40
    2286:	80 83       	st	Z, r24
MyMelodyBox[Number].Table[37].Note= g2 	 ;MyMelodyBox[Number].Table[37].Notelength = 5;
    2288:	2d 8d       	ldd	r18, Y+29	; 0x1d
    228a:	3e 8d       	ldd	r19, Y+30	; 0x1e
    228c:	8b ec       	ldi	r24, 0xCB	; 203
    228e:	90 e0       	ldi	r25, 0x00	; 0
    2290:	ac 01       	movw	r20, r24
    2292:	24 9f       	mul	r18, r20
    2294:	c0 01       	movw	r24, r0
    2296:	25 9f       	mul	r18, r21
    2298:	90 0d       	add	r25, r0
    229a:	34 9f       	mul	r19, r20
    229c:	90 0d       	add	r25, r0
    229e:	11 24       	eor	r1, r1
    22a0:	fc 01       	movw	r30, r24
    22a2:	e3 5e       	subi	r30, 0xE3	; 227
    22a4:	fd 4f       	sbci	r31, 0xFD	; 253
    22a6:	80 e1       	ldi	r24, 0x10	; 16
    22a8:	80 83       	st	Z, r24
    22aa:	81 81       	ldd	r24, Z+1	; 0x01
    22ac:	88 7f       	andi	r24, 0xF8	; 248
    22ae:	83 60       	ori	r24, 0x03	; 3
    22b0:	81 83       	std	Z+1, r24	; 0x01
    22b2:	2d 8d       	ldd	r18, Y+29	; 0x1d
    22b4:	3e 8d       	ldd	r19, Y+30	; 0x1e
    22b6:	8b ec       	ldi	r24, 0xCB	; 203
    22b8:	90 e0       	ldi	r25, 0x00	; 0
    22ba:	fc 01       	movw	r30, r24
    22bc:	2e 9f       	mul	r18, r30
    22be:	c0 01       	movw	r24, r0
    22c0:	2f 9f       	mul	r18, r31
    22c2:	90 0d       	add	r25, r0
    22c4:	3e 9f       	mul	r19, r30
    22c6:	90 0d       	add	r25, r0
    22c8:	11 24       	eor	r1, r1
    22ca:	fc 01       	movw	r30, r24
    22cc:	e2 5e       	subi	r30, 0xE2	; 226
    22ce:	fd 4f       	sbci	r31, 0xFD	; 253
    22d0:	80 81       	ld	r24, Z
    22d2:	87 70       	andi	r24, 0x07	; 7
    22d4:	88 62       	ori	r24, 0x28	; 40
    22d6:	80 83       	st	Z, r24
MyMelodyBox[Number].Table[38].Note= e2 	 ;MyMelodyBox[Number].Table[38].Notelength = 3;
    22d8:	2d 8d       	ldd	r18, Y+29	; 0x1d
    22da:	3e 8d       	ldd	r19, Y+30	; 0x1e
    22dc:	8b ec       	ldi	r24, 0xCB	; 203
    22de:	90 e0       	ldi	r25, 0x00	; 0
    22e0:	ac 01       	movw	r20, r24
    22e2:	24 9f       	mul	r18, r20
    22e4:	c0 01       	movw	r24, r0
    22e6:	25 9f       	mul	r18, r21
    22e8:	90 0d       	add	r25, r0
    22ea:	34 9f       	mul	r19, r20
    22ec:	90 0d       	add	r25, r0
    22ee:	11 24       	eor	r1, r1
    22f0:	fc 01       	movw	r30, r24
    22f2:	e1 5e       	subi	r30, 0xE1	; 225
    22f4:	fd 4f       	sbci	r31, 0xFD	; 253
    22f6:	83 e9       	ldi	r24, 0x93	; 147
    22f8:	80 83       	st	Z, r24
    22fa:	81 81       	ldd	r24, Z+1	; 0x01
    22fc:	88 7f       	andi	r24, 0xF8	; 248
    22fe:	82 60       	ori	r24, 0x02	; 2
    2300:	81 83       	std	Z+1, r24	; 0x01
    2302:	2d 8d       	ldd	r18, Y+29	; 0x1d
    2304:	3e 8d       	ldd	r19, Y+30	; 0x1e
    2306:	8b ec       	ldi	r24, 0xCB	; 203
    2308:	90 e0       	ldi	r25, 0x00	; 0
    230a:	fc 01       	movw	r30, r24
    230c:	2e 9f       	mul	r18, r30
    230e:	c0 01       	movw	r24, r0
    2310:	2f 9f       	mul	r18, r31
    2312:	90 0d       	add	r25, r0
    2314:	3e 9f       	mul	r19, r30
    2316:	90 0d       	add	r25, r0
    2318:	11 24       	eor	r1, r1
    231a:	fc 01       	movw	r30, r24
    231c:	e0 5e       	subi	r30, 0xE0	; 224
    231e:	fd 4f       	sbci	r31, 0xFD	; 253
    2320:	80 81       	ld	r24, Z
    2322:	87 70       	andi	r24, 0x07	; 7
    2324:	88 61       	ori	r24, 0x18	; 24
    2326:	80 83       	st	Z, r24
MyMelodyBox[Number].Table[39].Note= f2 	 ;MyMelodyBox[Number].Table[39].Notelength = 3;	 
    2328:	2d 8d       	ldd	r18, Y+29	; 0x1d
    232a:	3e 8d       	ldd	r19, Y+30	; 0x1e
    232c:	8b ec       	ldi	r24, 0xCB	; 203
    232e:	90 e0       	ldi	r25, 0x00	; 0
    2330:	ac 01       	movw	r20, r24
    2332:	24 9f       	mul	r18, r20
    2334:	c0 01       	movw	r24, r0
    2336:	25 9f       	mul	r18, r21
    2338:	90 0d       	add	r25, r0
    233a:	34 9f       	mul	r19, r20
    233c:	90 0d       	add	r25, r0
    233e:	11 24       	eor	r1, r1
    2340:	fc 01       	movw	r30, r24
    2342:	ef 5d       	subi	r30, 0xDF	; 223
    2344:	fd 4f       	sbci	r31, 0xFD	; 253
    2346:	8a eb       	ldi	r24, 0xBA	; 186
    2348:	80 83       	st	Z, r24
    234a:	81 81       	ldd	r24, Z+1	; 0x01
    234c:	88 7f       	andi	r24, 0xF8	; 248
    234e:	82 60       	ori	r24, 0x02	; 2
    2350:	81 83       	std	Z+1, r24	; 0x01
    2352:	2d 8d       	ldd	r18, Y+29	; 0x1d
    2354:	3e 8d       	ldd	r19, Y+30	; 0x1e
    2356:	8b ec       	ldi	r24, 0xCB	; 203
    2358:	90 e0       	ldi	r25, 0x00	; 0
    235a:	fc 01       	movw	r30, r24
    235c:	2e 9f       	mul	r18, r30
    235e:	c0 01       	movw	r24, r0
    2360:	2f 9f       	mul	r18, r31
    2362:	90 0d       	add	r25, r0
    2364:	3e 9f       	mul	r19, r30
    2366:	90 0d       	add	r25, r0
    2368:	11 24       	eor	r1, r1
    236a:	fc 01       	movw	r30, r24
    236c:	ee 5d       	subi	r30, 0xDE	; 222
    236e:	fd 4f       	sbci	r31, 0xFD	; 253
    2370:	80 81       	ld	r24, Z
    2372:	87 70       	andi	r24, 0x07	; 7
    2374:	88 61       	ori	r24, 0x18	; 24
    2376:	80 83       	st	Z, r24
MyMelodyBox[Number].Table[40].Note= a2 	 ;MyMelodyBox[Number].Table[40].Notelength = 3;
    2378:	2d 8d       	ldd	r18, Y+29	; 0x1d
    237a:	3e 8d       	ldd	r19, Y+30	; 0x1e
    237c:	8b ec       	ldi	r24, 0xCB	; 203
    237e:	90 e0       	ldi	r25, 0x00	; 0
    2380:	ac 01       	movw	r20, r24
    2382:	24 9f       	mul	r18, r20
    2384:	c0 01       	movw	r24, r0
    2386:	25 9f       	mul	r18, r21
    2388:	90 0d       	add	r25, r0
    238a:	34 9f       	mul	r19, r20
    238c:	90 0d       	add	r25, r0
    238e:	11 24       	eor	r1, r1
    2390:	fc 01       	movw	r30, r24
    2392:	ed 5d       	subi	r30, 0xDD	; 221
    2394:	fd 4f       	sbci	r31, 0xFD	; 253
    2396:	80 e7       	ldi	r24, 0x70	; 112
    2398:	80 83       	st	Z, r24
    239a:	81 81       	ldd	r24, Z+1	; 0x01
    239c:	88 7f       	andi	r24, 0xF8	; 248
    239e:	83 60       	ori	r24, 0x03	; 3
    23a0:	81 83       	std	Z+1, r24	; 0x01
    23a2:	2d 8d       	ldd	r18, Y+29	; 0x1d
    23a4:	3e 8d       	ldd	r19, Y+30	; 0x1e
    23a6:	8b ec       	ldi	r24, 0xCB	; 203
    23a8:	90 e0       	ldi	r25, 0x00	; 0
    23aa:	fc 01       	movw	r30, r24
    23ac:	2e 9f       	mul	r18, r30
    23ae:	c0 01       	movw	r24, r0
    23b0:	2f 9f       	mul	r18, r31
    23b2:	90 0d       	add	r25, r0
    23b4:	3e 9f       	mul	r19, r30
    23b6:	90 0d       	add	r25, r0
    23b8:	11 24       	eor	r1, r1
    23ba:	fc 01       	movw	r30, r24
    23bc:	ec 5d       	subi	r30, 0xDC	; 220
    23be:	fd 4f       	sbci	r31, 0xFD	; 253
    23c0:	80 81       	ld	r24, Z
    23c2:	87 70       	andi	r24, 0x07	; 7
    23c4:	88 61       	ori	r24, 0x18	; 24
    23c6:	80 83       	st	Z, r24
MyMelodyBox[Number].Table[41].Note= c3 	 ;MyMelodyBox[Number].Table[41].Notelength = 3;
    23c8:	2d 8d       	ldd	r18, Y+29	; 0x1d
    23ca:	3e 8d       	ldd	r19, Y+30	; 0x1e
    23cc:	8b ec       	ldi	r24, 0xCB	; 203
    23ce:	90 e0       	ldi	r25, 0x00	; 0
    23d0:	ac 01       	movw	r20, r24
    23d2:	24 9f       	mul	r18, r20
    23d4:	c0 01       	movw	r24, r0
    23d6:	25 9f       	mul	r18, r21
    23d8:	90 0d       	add	r25, r0
    23da:	34 9f       	mul	r19, r20
    23dc:	90 0d       	add	r25, r0
    23de:	11 24       	eor	r1, r1
    23e0:	fc 01       	movw	r30, r24
    23e2:	eb 5d       	subi	r30, 0xDB	; 219
    23e4:	fd 4f       	sbci	r31, 0xFD	; 253
    23e6:	86 e1       	ldi	r24, 0x16	; 22
    23e8:	80 83       	st	Z, r24
    23ea:	81 81       	ldd	r24, Z+1	; 0x01
    23ec:	88 7f       	andi	r24, 0xF8	; 248
    23ee:	84 60       	ori	r24, 0x04	; 4
    23f0:	81 83       	std	Z+1, r24	; 0x01
    23f2:	2d 8d       	ldd	r18, Y+29	; 0x1d
    23f4:	3e 8d       	ldd	r19, Y+30	; 0x1e
    23f6:	8b ec       	ldi	r24, 0xCB	; 203
    23f8:	90 e0       	ldi	r25, 0x00	; 0
    23fa:	fc 01       	movw	r30, r24
    23fc:	2e 9f       	mul	r18, r30
    23fe:	c0 01       	movw	r24, r0
    2400:	2f 9f       	mul	r18, r31
    2402:	90 0d       	add	r25, r0
    2404:	3e 9f       	mul	r19, r30
    2406:	90 0d       	add	r25, r0
    2408:	11 24       	eor	r1, r1
    240a:	fc 01       	movw	r30, r24
    240c:	ea 5d       	subi	r30, 0xDA	; 218
    240e:	fd 4f       	sbci	r31, 0xFD	; 253
    2410:	80 81       	ld	r24, Z
    2412:	87 70       	andi	r24, 0x07	; 7
    2414:	88 61       	ori	r24, 0x18	; 24
    2416:	80 83       	st	Z, r24
MyMelodyBox[Number].Table[42].Note = e3	 ;MyMelodyBox[Number].Table[42].Notelength = 3;
    2418:	2d 8d       	ldd	r18, Y+29	; 0x1d
    241a:	3e 8d       	ldd	r19, Y+30	; 0x1e
    241c:	8b ec       	ldi	r24, 0xCB	; 203
    241e:	90 e0       	ldi	r25, 0x00	; 0
    2420:	ac 01       	movw	r20, r24
    2422:	24 9f       	mul	r18, r20
    2424:	c0 01       	movw	r24, r0
    2426:	25 9f       	mul	r18, r21
    2428:	90 0d       	add	r25, r0
    242a:	34 9f       	mul	r19, r20
    242c:	90 0d       	add	r25, r0
    242e:	11 24       	eor	r1, r1
    2430:	fc 01       	movw	r30, r24
    2432:	e9 5d       	subi	r30, 0xD9	; 217
    2434:	fd 4f       	sbci	r31, 0xFD	; 253
    2436:	86 e2       	ldi	r24, 0x26	; 38
    2438:	80 83       	st	Z, r24
    243a:	81 81       	ldd	r24, Z+1	; 0x01
    243c:	88 7f       	andi	r24, 0xF8	; 248
    243e:	85 60       	ori	r24, 0x05	; 5
    2440:	81 83       	std	Z+1, r24	; 0x01
    2442:	2d 8d       	ldd	r18, Y+29	; 0x1d
    2444:	3e 8d       	ldd	r19, Y+30	; 0x1e
    2446:	8b ec       	ldi	r24, 0xCB	; 203
    2448:	90 e0       	ldi	r25, 0x00	; 0
    244a:	fc 01       	movw	r30, r24
    244c:	2e 9f       	mul	r18, r30
    244e:	c0 01       	movw	r24, r0
    2450:	2f 9f       	mul	r18, r31
    2452:	90 0d       	add	r25, r0
    2454:	3e 9f       	mul	r19, r30
    2456:	90 0d       	add	r25, r0
    2458:	11 24       	eor	r1, r1
    245a:	fc 01       	movw	r30, r24
    245c:	e8 5d       	subi	r30, 0xD8	; 216
    245e:	fd 4f       	sbci	r31, 0xFD	; 253
    2460:	80 81       	ld	r24, Z
    2462:	87 70       	andi	r24, 0x07	; 7
    2464:	88 61       	ori	r24, 0x18	; 24
    2466:	80 83       	st	Z, r24
MyMelodyBox[Number].Table[43].Note = d3	 ;MyMelodyBox[Number].Table[43].Notelength = 3;
    2468:	2d 8d       	ldd	r18, Y+29	; 0x1d
    246a:	3e 8d       	ldd	r19, Y+30	; 0x1e
    246c:	8b ec       	ldi	r24, 0xCB	; 203
    246e:	90 e0       	ldi	r25, 0x00	; 0
    2470:	ac 01       	movw	r20, r24
    2472:	24 9f       	mul	r18, r20
    2474:	c0 01       	movw	r24, r0
    2476:	25 9f       	mul	r18, r21
    2478:	90 0d       	add	r25, r0
    247a:	34 9f       	mul	r19, r20
    247c:	90 0d       	add	r25, r0
    247e:	11 24       	eor	r1, r1
    2480:	fc 01       	movw	r30, r24
    2482:	e7 5d       	subi	r30, 0xD7	; 215
    2484:	fd 4f       	sbci	r31, 0xFD	; 253
    2486:	86 e9       	ldi	r24, 0x96	; 150
    2488:	80 83       	st	Z, r24
    248a:	81 81       	ldd	r24, Z+1	; 0x01
    248c:	88 7f       	andi	r24, 0xF8	; 248
    248e:	84 60       	ori	r24, 0x04	; 4
    2490:	81 83       	std	Z+1, r24	; 0x01
    2492:	2d 8d       	ldd	r18, Y+29	; 0x1d
    2494:	3e 8d       	ldd	r19, Y+30	; 0x1e
    2496:	8b ec       	ldi	r24, 0xCB	; 203
    2498:	90 e0       	ldi	r25, 0x00	; 0
    249a:	fc 01       	movw	r30, r24
    249c:	2e 9f       	mul	r18, r30
    249e:	c0 01       	movw	r24, r0
    24a0:	2f 9f       	mul	r18, r31
    24a2:	90 0d       	add	r25, r0
    24a4:	3e 9f       	mul	r19, r30
    24a6:	90 0d       	add	r25, r0
    24a8:	11 24       	eor	r1, r1
    24aa:	fc 01       	movw	r30, r24
    24ac:	e6 5d       	subi	r30, 0xD6	; 214
    24ae:	fd 4f       	sbci	r31, 0xFD	; 253
    24b0:	80 81       	ld	r24, Z
    24b2:	87 70       	andi	r24, 0x07	; 7
    24b4:	88 61       	ori	r24, 0x18	; 24
    24b6:	80 83       	st	Z, r24
MyMelodyBox[Number].Table[44].Note = c3	 ;MyMelodyBox[Number].Table[44].Notelength = 3;
    24b8:	2d 8d       	ldd	r18, Y+29	; 0x1d
    24ba:	3e 8d       	ldd	r19, Y+30	; 0x1e
    24bc:	8b ec       	ldi	r24, 0xCB	; 203
    24be:	90 e0       	ldi	r25, 0x00	; 0
    24c0:	ac 01       	movw	r20, r24
    24c2:	24 9f       	mul	r18, r20
    24c4:	c0 01       	movw	r24, r0
    24c6:	25 9f       	mul	r18, r21
    24c8:	90 0d       	add	r25, r0
    24ca:	34 9f       	mul	r19, r20
    24cc:	90 0d       	add	r25, r0
    24ce:	11 24       	eor	r1, r1
    24d0:	fc 01       	movw	r30, r24
    24d2:	e5 5d       	subi	r30, 0xD5	; 213
    24d4:	fd 4f       	sbci	r31, 0xFD	; 253
    24d6:	86 e1       	ldi	r24, 0x16	; 22
    24d8:	80 83       	st	Z, r24
    24da:	81 81       	ldd	r24, Z+1	; 0x01
    24dc:	88 7f       	andi	r24, 0xF8	; 248
    24de:	84 60       	ori	r24, 0x04	; 4
    24e0:	81 83       	std	Z+1, r24	; 0x01
    24e2:	2d 8d       	ldd	r18, Y+29	; 0x1d
    24e4:	3e 8d       	ldd	r19, Y+30	; 0x1e
    24e6:	8b ec       	ldi	r24, 0xCB	; 203
    24e8:	90 e0       	ldi	r25, 0x00	; 0
    24ea:	fc 01       	movw	r30, r24
    24ec:	2e 9f       	mul	r18, r30
    24ee:	c0 01       	movw	r24, r0
    24f0:	2f 9f       	mul	r18, r31
    24f2:	90 0d       	add	r25, r0
    24f4:	3e 9f       	mul	r19, r30
    24f6:	90 0d       	add	r25, r0
    24f8:	11 24       	eor	r1, r1
    24fa:	fc 01       	movw	r30, r24
    24fc:	e4 5d       	subi	r30, 0xD4	; 212
    24fe:	fd 4f       	sbci	r31, 0xFD	; 253
    2500:	80 81       	ld	r24, Z
    2502:	87 70       	andi	r24, 0x07	; 7
    2504:	88 61       	ori	r24, 0x18	; 24
    2506:	80 83       	st	Z, r24
MyMelodyBox[Number].Table[45].Note = d3	 ;MyMelodyBox[Number].Table[45].Notelength = 3;
    2508:	2d 8d       	ldd	r18, Y+29	; 0x1d
    250a:	3e 8d       	ldd	r19, Y+30	; 0x1e
    250c:	8b ec       	ldi	r24, 0xCB	; 203
    250e:	90 e0       	ldi	r25, 0x00	; 0
    2510:	ac 01       	movw	r20, r24
    2512:	24 9f       	mul	r18, r20
    2514:	c0 01       	movw	r24, r0
    2516:	25 9f       	mul	r18, r21
    2518:	90 0d       	add	r25, r0
    251a:	34 9f       	mul	r19, r20
    251c:	90 0d       	add	r25, r0
    251e:	11 24       	eor	r1, r1
    2520:	fc 01       	movw	r30, r24
    2522:	e3 5d       	subi	r30, 0xD3	; 211
    2524:	fd 4f       	sbci	r31, 0xFD	; 253
    2526:	86 e9       	ldi	r24, 0x96	; 150
    2528:	80 83       	st	Z, r24
    252a:	81 81       	ldd	r24, Z+1	; 0x01
    252c:	88 7f       	andi	r24, 0xF8	; 248
    252e:	84 60       	ori	r24, 0x04	; 4
    2530:	81 83       	std	Z+1, r24	; 0x01
    2532:	2d 8d       	ldd	r18, Y+29	; 0x1d
    2534:	3e 8d       	ldd	r19, Y+30	; 0x1e
    2536:	8b ec       	ldi	r24, 0xCB	; 203
    2538:	90 e0       	ldi	r25, 0x00	; 0
    253a:	fc 01       	movw	r30, r24
    253c:	2e 9f       	mul	r18, r30
    253e:	c0 01       	movw	r24, r0
    2540:	2f 9f       	mul	r18, r31
    2542:	90 0d       	add	r25, r0
    2544:	3e 9f       	mul	r19, r30
    2546:	90 0d       	add	r25, r0
    2548:	11 24       	eor	r1, r1
    254a:	fc 01       	movw	r30, r24
    254c:	e2 5d       	subi	r30, 0xD2	; 210
    254e:	fd 4f       	sbci	r31, 0xFD	; 253
    2550:	80 81       	ld	r24, Z
    2552:	87 70       	andi	r24, 0x07	; 7
    2554:	88 61       	ori	r24, 0x18	; 24
    2556:	80 83       	st	Z, r24
MyMelodyBox[Number].Table[46].Note = d3	 ;MyMelodyBox[Number].Table[46].Notelength = 7;
    2558:	2d 8d       	ldd	r18, Y+29	; 0x1d
    255a:	3e 8d       	ldd	r19, Y+30	; 0x1e
    255c:	8b ec       	ldi	r24, 0xCB	; 203
    255e:	90 e0       	ldi	r25, 0x00	; 0
    2560:	ac 01       	movw	r20, r24
    2562:	24 9f       	mul	r18, r20
    2564:	c0 01       	movw	r24, r0
    2566:	25 9f       	mul	r18, r21
    2568:	90 0d       	add	r25, r0
    256a:	34 9f       	mul	r19, r20
    256c:	90 0d       	add	r25, r0
    256e:	11 24       	eor	r1, r1
    2570:	fc 01       	movw	r30, r24
    2572:	e1 5d       	subi	r30, 0xD1	; 209
    2574:	fd 4f       	sbci	r31, 0xFD	; 253
    2576:	86 e9       	ldi	r24, 0x96	; 150
    2578:	80 83       	st	Z, r24
    257a:	81 81       	ldd	r24, Z+1	; 0x01
    257c:	88 7f       	andi	r24, 0xF8	; 248
    257e:	84 60       	ori	r24, 0x04	; 4
    2580:	81 83       	std	Z+1, r24	; 0x01
    2582:	2d 8d       	ldd	r18, Y+29	; 0x1d
    2584:	3e 8d       	ldd	r19, Y+30	; 0x1e
    2586:	8b ec       	ldi	r24, 0xCB	; 203
    2588:	90 e0       	ldi	r25, 0x00	; 0
    258a:	fc 01       	movw	r30, r24
    258c:	2e 9f       	mul	r18, r30
    258e:	c0 01       	movw	r24, r0
    2590:	2f 9f       	mul	r18, r31
    2592:	90 0d       	add	r25, r0
    2594:	3e 9f       	mul	r19, r30
    2596:	90 0d       	add	r25, r0
    2598:	11 24       	eor	r1, r1
    259a:	fc 01       	movw	r30, r24
    259c:	e0 5d       	subi	r30, 0xD0	; 208
    259e:	fd 4f       	sbci	r31, 0xFD	; 253
    25a0:	80 81       	ld	r24, Z
    25a2:	87 70       	andi	r24, 0x07	; 7
    25a4:	88 63       	ori	r24, 0x38	; 56
    25a6:	80 83       	st	Z, r24
//*************************************************************************//


Number = 1;
    25a8:	81 e0       	ldi	r24, 0x01	; 1
    25aa:	90 e0       	ldi	r25, 0x00	; 0
    25ac:	9e 8f       	std	Y+30, r25	; 0x1e
    25ae:	8d 8f       	std	Y+29, r24	; 0x1d

MyMelodyBox[Number].title = "C.T : Peaceful";
    25b0:	2d 8d       	ldd	r18, Y+29	; 0x1d
    25b2:	3e 8d       	ldd	r19, Y+30	; 0x1e
    25b4:	8b ec       	ldi	r24, 0xCB	; 203
    25b6:	90 e0       	ldi	r25, 0x00	; 0
    25b8:	ac 01       	movw	r20, r24
    25ba:	24 9f       	mul	r18, r20
    25bc:	c0 01       	movw	r24, r0
    25be:	25 9f       	mul	r18, r21
    25c0:	90 0d       	add	r25, r0
    25c2:	34 9f       	mul	r19, r20
    25c4:	90 0d       	add	r25, r0
    25c6:	11 24       	eor	r1, r1
    25c8:	fc 01       	movw	r30, r24
    25ca:	e4 56       	subi	r30, 0x64	; 100
    25cc:	fd 4f       	sbci	r31, 0xFD	; 253
    25ce:	80 e8       	ldi	r24, 0x80	; 128
    25d0:	90 e0       	ldi	r25, 0x00	; 0
    25d2:	91 83       	std	Z+1, r25	; 0x01
    25d4:	80 83       	st	Z, r24
MyMelodyBox[Number].length = 55;
    25d6:	2d 8d       	ldd	r18, Y+29	; 0x1d
    25d8:	3e 8d       	ldd	r19, Y+30	; 0x1e
    25da:	8b ec       	ldi	r24, 0xCB	; 203
    25dc:	90 e0       	ldi	r25, 0x00	; 0
    25de:	fc 01       	movw	r30, r24
    25e0:	2e 9f       	mul	r18, r30
    25e2:	c0 01       	movw	r24, r0
    25e4:	2f 9f       	mul	r18, r31
    25e6:	90 0d       	add	r25, r0
    25e8:	3e 9f       	mul	r19, r30
    25ea:	90 0d       	add	r25, r0
    25ec:	11 24       	eor	r1, r1
    25ee:	fc 01       	movw	r30, r24
    25f0:	e5 56       	subi	r30, 0x65	; 101
    25f2:	fd 4f       	sbci	r31, 0xFD	; 253
    25f4:	80 81       	ld	r24, Z
    25f6:	80 78       	andi	r24, 0x80	; 128
    25f8:	87 63       	ori	r24, 0x37	; 55
    25fa:	80 83       	st	Z, r24
MyMelodyBox[Number].Table[0].Note = g1   ;MyMelodyBox[Number].Table[0].Notelength  = 5; 
    25fc:	2d 8d       	ldd	r18, Y+29	; 0x1d
    25fe:	3e 8d       	ldd	r19, Y+30	; 0x1e
    2600:	8b ec       	ldi	r24, 0xCB	; 203
    2602:	90 e0       	ldi	r25, 0x00	; 0
    2604:	ac 01       	movw	r20, r24
    2606:	24 9f       	mul	r18, r20
    2608:	c0 01       	movw	r24, r0
    260a:	25 9f       	mul	r18, r21
    260c:	90 0d       	add	r25, r0
    260e:	34 9f       	mul	r19, r20
    2610:	90 0d       	add	r25, r0
    2612:	11 24       	eor	r1, r1
    2614:	fc 01       	movw	r30, r24
    2616:	ed 52       	subi	r30, 0x2D	; 45
    2618:	fe 4f       	sbci	r31, 0xFE	; 254
    261a:	88 e8       	ldi	r24, 0x88	; 136
    261c:	80 83       	st	Z, r24
    261e:	81 81       	ldd	r24, Z+1	; 0x01
    2620:	88 7f       	andi	r24, 0xF8	; 248
    2622:	81 60       	ori	r24, 0x01	; 1
    2624:	81 83       	std	Z+1, r24	; 0x01
    2626:	2d 8d       	ldd	r18, Y+29	; 0x1d
    2628:	3e 8d       	ldd	r19, Y+30	; 0x1e
    262a:	8b ec       	ldi	r24, 0xCB	; 203
    262c:	90 e0       	ldi	r25, 0x00	; 0
    262e:	fc 01       	movw	r30, r24
    2630:	2e 9f       	mul	r18, r30
    2632:	c0 01       	movw	r24, r0
    2634:	2f 9f       	mul	r18, r31
    2636:	90 0d       	add	r25, r0
    2638:	3e 9f       	mul	r19, r30
    263a:	90 0d       	add	r25, r0
    263c:	11 24       	eor	r1, r1
    263e:	fc 01       	movw	r30, r24
    2640:	ec 52       	subi	r30, 0x2C	; 44
    2642:	fe 4f       	sbci	r31, 0xFE	; 254
    2644:	80 81       	ld	r24, Z
    2646:	87 70       	andi	r24, 0x07	; 7
    2648:	88 62       	ori	r24, 0x28	; 40
    264a:	80 83       	st	Z, r24
MyMelodyBox[Number].Table[1].Note = e2 	;MyMelodyBox[Number].Table[1].Notelength  = 5;
    264c:	2d 8d       	ldd	r18, Y+29	; 0x1d
    264e:	3e 8d       	ldd	r19, Y+30	; 0x1e
    2650:	8b ec       	ldi	r24, 0xCB	; 203
    2652:	90 e0       	ldi	r25, 0x00	; 0
    2654:	ac 01       	movw	r20, r24
    2656:	24 9f       	mul	r18, r20
    2658:	c0 01       	movw	r24, r0
    265a:	25 9f       	mul	r18, r21
    265c:	90 0d       	add	r25, r0
    265e:	34 9f       	mul	r19, r20
    2660:	90 0d       	add	r25, r0
    2662:	11 24       	eor	r1, r1
    2664:	fc 01       	movw	r30, r24
    2666:	eb 52       	subi	r30, 0x2B	; 43
    2668:	fe 4f       	sbci	r31, 0xFE	; 254
    266a:	83 e9       	ldi	r24, 0x93	; 147
    266c:	80 83       	st	Z, r24
    266e:	81 81       	ldd	r24, Z+1	; 0x01
    2670:	88 7f       	andi	r24, 0xF8	; 248
    2672:	82 60       	ori	r24, 0x02	; 2
    2674:	81 83       	std	Z+1, r24	; 0x01
    2676:	2d 8d       	ldd	r18, Y+29	; 0x1d
    2678:	3e 8d       	ldd	r19, Y+30	; 0x1e
    267a:	8b ec       	ldi	r24, 0xCB	; 203
    267c:	90 e0       	ldi	r25, 0x00	; 0
    267e:	fc 01       	movw	r30, r24
    2680:	2e 9f       	mul	r18, r30
    2682:	c0 01       	movw	r24, r0
    2684:	2f 9f       	mul	r18, r31
    2686:	90 0d       	add	r25, r0
    2688:	3e 9f       	mul	r19, r30
    268a:	90 0d       	add	r25, r0
    268c:	11 24       	eor	r1, r1
    268e:	fc 01       	movw	r30, r24
    2690:	ea 52       	subi	r30, 0x2A	; 42
    2692:	fe 4f       	sbci	r31, 0xFE	; 254
    2694:	80 81       	ld	r24, Z
    2696:	87 70       	andi	r24, 0x07	; 7
    2698:	88 62       	ori	r24, 0x28	; 40
    269a:	80 83       	st	Z, r24
MyMelodyBox[Number].Table[2].Note = f2  ;MyMelodyBox[Number].Table[2].Notelength  = 3;
    269c:	2d 8d       	ldd	r18, Y+29	; 0x1d
    269e:	3e 8d       	ldd	r19, Y+30	; 0x1e
    26a0:	8b ec       	ldi	r24, 0xCB	; 203
    26a2:	90 e0       	ldi	r25, 0x00	; 0
    26a4:	ac 01       	movw	r20, r24
    26a6:	24 9f       	mul	r18, r20
    26a8:	c0 01       	movw	r24, r0
    26aa:	25 9f       	mul	r18, r21
    26ac:	90 0d       	add	r25, r0
    26ae:	34 9f       	mul	r19, r20
    26b0:	90 0d       	add	r25, r0
    26b2:	11 24       	eor	r1, r1
    26b4:	fc 01       	movw	r30, r24
    26b6:	e9 52       	subi	r30, 0x29	; 41
    26b8:	fe 4f       	sbci	r31, 0xFE	; 254
    26ba:	8a eb       	ldi	r24, 0xBA	; 186
    26bc:	80 83       	st	Z, r24
    26be:	81 81       	ldd	r24, Z+1	; 0x01
    26c0:	88 7f       	andi	r24, 0xF8	; 248
    26c2:	82 60       	ori	r24, 0x02	; 2
    26c4:	81 83       	std	Z+1, r24	; 0x01
    26c6:	2d 8d       	ldd	r18, Y+29	; 0x1d
    26c8:	3e 8d       	ldd	r19, Y+30	; 0x1e
    26ca:	8b ec       	ldi	r24, 0xCB	; 203
    26cc:	90 e0       	ldi	r25, 0x00	; 0
    26ce:	fc 01       	movw	r30, r24
    26d0:	2e 9f       	mul	r18, r30
    26d2:	c0 01       	movw	r24, r0
    26d4:	2f 9f       	mul	r18, r31
    26d6:	90 0d       	add	r25, r0
    26d8:	3e 9f       	mul	r19, r30
    26da:	90 0d       	add	r25, r0
    26dc:	11 24       	eor	r1, r1
    26de:	fc 01       	movw	r30, r24
    26e0:	e8 52       	subi	r30, 0x28	; 40
    26e2:	fe 4f       	sbci	r31, 0xFE	; 254
    26e4:	80 81       	ld	r24, Z
    26e6:	87 70       	andi	r24, 0x07	; 7
    26e8:	88 61       	ori	r24, 0x18	; 24
    26ea:	80 83       	st	Z, r24
MyMelodyBox[Number].Table[3].Note = e2  ;MyMelodyBox[Number].Table[3].Notelength  = 3;
    26ec:	2d 8d       	ldd	r18, Y+29	; 0x1d
    26ee:	3e 8d       	ldd	r19, Y+30	; 0x1e
    26f0:	8b ec       	ldi	r24, 0xCB	; 203
    26f2:	90 e0       	ldi	r25, 0x00	; 0
    26f4:	ac 01       	movw	r20, r24
    26f6:	24 9f       	mul	r18, r20
    26f8:	c0 01       	movw	r24, r0
    26fa:	25 9f       	mul	r18, r21
    26fc:	90 0d       	add	r25, r0
    26fe:	34 9f       	mul	r19, r20
    2700:	90 0d       	add	r25, r0
    2702:	11 24       	eor	r1, r1
    2704:	fc 01       	movw	r30, r24
    2706:	e7 52       	subi	r30, 0x27	; 39
    2708:	fe 4f       	sbci	r31, 0xFE	; 254
    270a:	83 e9       	ldi	r24, 0x93	; 147
    270c:	80 83       	st	Z, r24
    270e:	81 81       	ldd	r24, Z+1	; 0x01
    2710:	88 7f       	andi	r24, 0xF8	; 248
    2712:	82 60       	ori	r24, 0x02	; 2
    2714:	81 83       	std	Z+1, r24	; 0x01
    2716:	2d 8d       	ldd	r18, Y+29	; 0x1d
    2718:	3e 8d       	ldd	r19, Y+30	; 0x1e
    271a:	8b ec       	ldi	r24, 0xCB	; 203
    271c:	90 e0       	ldi	r25, 0x00	; 0
    271e:	fc 01       	movw	r30, r24
    2720:	2e 9f       	mul	r18, r30
    2722:	c0 01       	movw	r24, r0
    2724:	2f 9f       	mul	r18, r31
    2726:	90 0d       	add	r25, r0
    2728:	3e 9f       	mul	r19, r30
    272a:	90 0d       	add	r25, r0
    272c:	11 24       	eor	r1, r1
    272e:	fc 01       	movw	r30, r24
    2730:	e6 52       	subi	r30, 0x26	; 38
    2732:	fe 4f       	sbci	r31, 0xFE	; 254
    2734:	80 81       	ld	r24, Z
    2736:	87 70       	andi	r24, 0x07	; 7
    2738:	88 61       	ori	r24, 0x18	; 24
    273a:	80 83       	st	Z, r24
MyMelodyBox[Number].Table[4].Note = d2  ;MyMelodyBox[Number].Table[4].Notelength  = 3;
    273c:	2d 8d       	ldd	r18, Y+29	; 0x1d
    273e:	3e 8d       	ldd	r19, Y+30	; 0x1e
    2740:	8b ec       	ldi	r24, 0xCB	; 203
    2742:	90 e0       	ldi	r25, 0x00	; 0
    2744:	ac 01       	movw	r20, r24
    2746:	24 9f       	mul	r18, r20
    2748:	c0 01       	movw	r24, r0
    274a:	25 9f       	mul	r18, r21
    274c:	90 0d       	add	r25, r0
    274e:	34 9f       	mul	r19, r20
    2750:	90 0d       	add	r25, r0
    2752:	11 24       	eor	r1, r1
    2754:	fc 01       	movw	r30, r24
    2756:	e5 52       	subi	r30, 0x25	; 37
    2758:	fe 4f       	sbci	r31, 0xFE	; 254
    275a:	8b e4       	ldi	r24, 0x4B	; 75
    275c:	80 83       	st	Z, r24
    275e:	81 81       	ldd	r24, Z+1	; 0x01
    2760:	88 7f       	andi	r24, 0xF8	; 248
    2762:	82 60       	ori	r24, 0x02	; 2
    2764:	81 83       	std	Z+1, r24	; 0x01
    2766:	2d 8d       	ldd	r18, Y+29	; 0x1d
    2768:	3e 8d       	ldd	r19, Y+30	; 0x1e
    276a:	8b ec       	ldi	r24, 0xCB	; 203
    276c:	90 e0       	ldi	r25, 0x00	; 0
    276e:	fc 01       	movw	r30, r24
    2770:	2e 9f       	mul	r18, r30
    2772:	c0 01       	movw	r24, r0
    2774:	2f 9f       	mul	r18, r31
    2776:	90 0d       	add	r25, r0
    2778:	3e 9f       	mul	r19, r30
    277a:	90 0d       	add	r25, r0
    277c:	11 24       	eor	r1, r1
    277e:	fc 01       	movw	r30, r24
    2780:	e4 52       	subi	r30, 0x24	; 36
    2782:	fe 4f       	sbci	r31, 0xFE	; 254
    2784:	80 81       	ld	r24, Z
    2786:	87 70       	andi	r24, 0x07	; 7
    2788:	88 61       	ori	r24, 0x18	; 24
    278a:	80 83       	st	Z, r24
MyMelodyBox[Number].Table[5].Note = c2  ;MyMelodyBox[Number].Table[5].Notelength  = 3;
    278c:	2d 8d       	ldd	r18, Y+29	; 0x1d
    278e:	3e 8d       	ldd	r19, Y+30	; 0x1e
    2790:	8b ec       	ldi	r24, 0xCB	; 203
    2792:	90 e0       	ldi	r25, 0x00	; 0
    2794:	ac 01       	movw	r20, r24
    2796:	24 9f       	mul	r18, r20
    2798:	c0 01       	movw	r24, r0
    279a:	25 9f       	mul	r18, r21
    279c:	90 0d       	add	r25, r0
    279e:	34 9f       	mul	r19, r20
    27a0:	90 0d       	add	r25, r0
    27a2:	11 24       	eor	r1, r1
    27a4:	fc 01       	movw	r30, r24
    27a6:	e3 52       	subi	r30, 0x23	; 35
    27a8:	fe 4f       	sbci	r31, 0xFE	; 254
    27aa:	8b e0       	ldi	r24, 0x0B	; 11
    27ac:	80 83       	st	Z, r24
    27ae:	81 81       	ldd	r24, Z+1	; 0x01
    27b0:	88 7f       	andi	r24, 0xF8	; 248
    27b2:	82 60       	ori	r24, 0x02	; 2
    27b4:	81 83       	std	Z+1, r24	; 0x01
    27b6:	2d 8d       	ldd	r18, Y+29	; 0x1d
    27b8:	3e 8d       	ldd	r19, Y+30	; 0x1e
    27ba:	8b ec       	ldi	r24, 0xCB	; 203
    27bc:	90 e0       	ldi	r25, 0x00	; 0
    27be:	fc 01       	movw	r30, r24
    27c0:	2e 9f       	mul	r18, r30
    27c2:	c0 01       	movw	r24, r0
    27c4:	2f 9f       	mul	r18, r31
    27c6:	90 0d       	add	r25, r0
    27c8:	3e 9f       	mul	r19, r30
    27ca:	90 0d       	add	r25, r0
    27cc:	11 24       	eor	r1, r1
    27ce:	fc 01       	movw	r30, r24
    27d0:	e2 52       	subi	r30, 0x22	; 34
    27d2:	fe 4f       	sbci	r31, 0xFE	; 254
    27d4:	80 81       	ld	r24, Z
    27d6:	87 70       	andi	r24, 0x07	; 7
    27d8:	88 61       	ori	r24, 0x18	; 24
    27da:	80 83       	st	Z, r24
MyMelodyBox[Number].Table[6].Note = g2 ;MyMelodyBox[Number].Table[6].Notelength  = 5; 
    27dc:	2d 8d       	ldd	r18, Y+29	; 0x1d
    27de:	3e 8d       	ldd	r19, Y+30	; 0x1e
    27e0:	8b ec       	ldi	r24, 0xCB	; 203
    27e2:	90 e0       	ldi	r25, 0x00	; 0
    27e4:	ac 01       	movw	r20, r24
    27e6:	24 9f       	mul	r18, r20
    27e8:	c0 01       	movw	r24, r0
    27ea:	25 9f       	mul	r18, r21
    27ec:	90 0d       	add	r25, r0
    27ee:	34 9f       	mul	r19, r20
    27f0:	90 0d       	add	r25, r0
    27f2:	11 24       	eor	r1, r1
    27f4:	fc 01       	movw	r30, r24
    27f6:	e1 52       	subi	r30, 0x21	; 33
    27f8:	fe 4f       	sbci	r31, 0xFE	; 254
    27fa:	80 e1       	ldi	r24, 0x10	; 16
    27fc:	80 83       	st	Z, r24
    27fe:	81 81       	ldd	r24, Z+1	; 0x01
    2800:	88 7f       	andi	r24, 0xF8	; 248
    2802:	83 60       	ori	r24, 0x03	; 3
    2804:	81 83       	std	Z+1, r24	; 0x01
    2806:	2d 8d       	ldd	r18, Y+29	; 0x1d
    2808:	3e 8d       	ldd	r19, Y+30	; 0x1e
    280a:	8b ec       	ldi	r24, 0xCB	; 203
    280c:	90 e0       	ldi	r25, 0x00	; 0
    280e:	fc 01       	movw	r30, r24
    2810:	2e 9f       	mul	r18, r30
    2812:	c0 01       	movw	r24, r0
    2814:	2f 9f       	mul	r18, r31
    2816:	90 0d       	add	r25, r0
    2818:	3e 9f       	mul	r19, r30
    281a:	90 0d       	add	r25, r0
    281c:	11 24       	eor	r1, r1
    281e:	fc 01       	movw	r30, r24
    2820:	e0 52       	subi	r30, 0x20	; 32
    2822:	fe 4f       	sbci	r31, 0xFE	; 254
    2824:	80 81       	ld	r24, Z
    2826:	87 70       	andi	r24, 0x07	; 7
    2828:	88 62       	ori	r24, 0x28	; 40
    282a:	80 83       	st	Z, r24
MyMelodyBox[Number].Table[7].Note = d2  ;MyMelodyBox[Number].Table[7].Notelength  = 3;
    282c:	2d 8d       	ldd	r18, Y+29	; 0x1d
    282e:	3e 8d       	ldd	r19, Y+30	; 0x1e
    2830:	8b ec       	ldi	r24, 0xCB	; 203
    2832:	90 e0       	ldi	r25, 0x00	; 0
    2834:	ac 01       	movw	r20, r24
    2836:	24 9f       	mul	r18, r20
    2838:	c0 01       	movw	r24, r0
    283a:	25 9f       	mul	r18, r21
    283c:	90 0d       	add	r25, r0
    283e:	34 9f       	mul	r19, r20
    2840:	90 0d       	add	r25, r0
    2842:	11 24       	eor	r1, r1
    2844:	fc 01       	movw	r30, r24
    2846:	ef 51       	subi	r30, 0x1F	; 31
    2848:	fe 4f       	sbci	r31, 0xFE	; 254
    284a:	8b e4       	ldi	r24, 0x4B	; 75
    284c:	80 83       	st	Z, r24
    284e:	81 81       	ldd	r24, Z+1	; 0x01
    2850:	88 7f       	andi	r24, 0xF8	; 248
    2852:	82 60       	ori	r24, 0x02	; 2
    2854:	81 83       	std	Z+1, r24	; 0x01
    2856:	2d 8d       	ldd	r18, Y+29	; 0x1d
    2858:	3e 8d       	ldd	r19, Y+30	; 0x1e
    285a:	8b ec       	ldi	r24, 0xCB	; 203
    285c:	90 e0       	ldi	r25, 0x00	; 0
    285e:	fc 01       	movw	r30, r24
    2860:	2e 9f       	mul	r18, r30
    2862:	c0 01       	movw	r24, r0
    2864:	2f 9f       	mul	r18, r31
    2866:	90 0d       	add	r25, r0
    2868:	3e 9f       	mul	r19, r30
    286a:	90 0d       	add	r25, r0
    286c:	11 24       	eor	r1, r1
    286e:	fc 01       	movw	r30, r24
    2870:	ee 51       	subi	r30, 0x1E	; 30
    2872:	fe 4f       	sbci	r31, 0xFE	; 254
    2874:	80 81       	ld	r24, Z
    2876:	87 70       	andi	r24, 0x07	; 7
    2878:	88 61       	ori	r24, 0x18	; 24
    287a:	80 83       	st	Z, r24
MyMelodyBox[Number].Table[8].Note = d2  ;MyMelodyBox[Number].Table[8].Notelength  = 5;
    287c:	2d 8d       	ldd	r18, Y+29	; 0x1d
    287e:	3e 8d       	ldd	r19, Y+30	; 0x1e
    2880:	8b ec       	ldi	r24, 0xCB	; 203
    2882:	90 e0       	ldi	r25, 0x00	; 0
    2884:	ac 01       	movw	r20, r24
    2886:	24 9f       	mul	r18, r20
    2888:	c0 01       	movw	r24, r0
    288a:	25 9f       	mul	r18, r21
    288c:	90 0d       	add	r25, r0
    288e:	34 9f       	mul	r19, r20
    2890:	90 0d       	add	r25, r0
    2892:	11 24       	eor	r1, r1
    2894:	fc 01       	movw	r30, r24
    2896:	ed 51       	subi	r30, 0x1D	; 29
    2898:	fe 4f       	sbci	r31, 0xFE	; 254
    289a:	8b e4       	ldi	r24, 0x4B	; 75
    289c:	80 83       	st	Z, r24
    289e:	81 81       	ldd	r24, Z+1	; 0x01
    28a0:	88 7f       	andi	r24, 0xF8	; 248
    28a2:	82 60       	ori	r24, 0x02	; 2
    28a4:	81 83       	std	Z+1, r24	; 0x01
    28a6:	2d 8d       	ldd	r18, Y+29	; 0x1d
    28a8:	3e 8d       	ldd	r19, Y+30	; 0x1e
    28aa:	8b ec       	ldi	r24, 0xCB	; 203
    28ac:	90 e0       	ldi	r25, 0x00	; 0
    28ae:	fc 01       	movw	r30, r24
    28b0:	2e 9f       	mul	r18, r30
    28b2:	c0 01       	movw	r24, r0
    28b4:	2f 9f       	mul	r18, r31
    28b6:	90 0d       	add	r25, r0
    28b8:	3e 9f       	mul	r19, r30
    28ba:	90 0d       	add	r25, r0
    28bc:	11 24       	eor	r1, r1
    28be:	fc 01       	movw	r30, r24
    28c0:	ec 51       	subi	r30, 0x1C	; 28
    28c2:	fe 4f       	sbci	r31, 0xFE	; 254
    28c4:	80 81       	ld	r24, Z
    28c6:	87 70       	andi	r24, 0x07	; 7
    28c8:	88 62       	ori	r24, 0x28	; 40
    28ca:	80 83       	st	Z, r24
MyMelodyBox[Number].Table[9].Note = g1 ;MyMelodyBox[Number].Table[9].Notelength  = 5;
    28cc:	2d 8d       	ldd	r18, Y+29	; 0x1d
    28ce:	3e 8d       	ldd	r19, Y+30	; 0x1e
    28d0:	8b ec       	ldi	r24, 0xCB	; 203
    28d2:	90 e0       	ldi	r25, 0x00	; 0
    28d4:	ac 01       	movw	r20, r24
    28d6:	24 9f       	mul	r18, r20
    28d8:	c0 01       	movw	r24, r0
    28da:	25 9f       	mul	r18, r21
    28dc:	90 0d       	add	r25, r0
    28de:	34 9f       	mul	r19, r20
    28e0:	90 0d       	add	r25, r0
    28e2:	11 24       	eor	r1, r1
    28e4:	fc 01       	movw	r30, r24
    28e6:	eb 51       	subi	r30, 0x1B	; 27
    28e8:	fe 4f       	sbci	r31, 0xFE	; 254
    28ea:	88 e8       	ldi	r24, 0x88	; 136
    28ec:	80 83       	st	Z, r24
    28ee:	81 81       	ldd	r24, Z+1	; 0x01
    28f0:	88 7f       	andi	r24, 0xF8	; 248
    28f2:	81 60       	ori	r24, 0x01	; 1
    28f4:	81 83       	std	Z+1, r24	; 0x01
    28f6:	2d 8d       	ldd	r18, Y+29	; 0x1d
    28f8:	3e 8d       	ldd	r19, Y+30	; 0x1e
    28fa:	8b ec       	ldi	r24, 0xCB	; 203
    28fc:	90 e0       	ldi	r25, 0x00	; 0
    28fe:	fc 01       	movw	r30, r24
    2900:	2e 9f       	mul	r18, r30
    2902:	c0 01       	movw	r24, r0
    2904:	2f 9f       	mul	r18, r31
    2906:	90 0d       	add	r25, r0
    2908:	3e 9f       	mul	r19, r30
    290a:	90 0d       	add	r25, r0
    290c:	11 24       	eor	r1, r1
    290e:	fc 01       	movw	r30, r24
    2910:	ea 51       	subi	r30, 0x1A	; 26
    2912:	fe 4f       	sbci	r31, 0xFE	; 254
    2914:	80 81       	ld	r24, Z
    2916:	87 70       	andi	r24, 0x07	; 7
    2918:	88 62       	ori	r24, 0x28	; 40
    291a:	80 83       	st	Z, r24
MyMelodyBox[Number].Table[10].Note= e2	 ;MyMelodyBox[Number].Table[10].Notelength = 5;
    291c:	2d 8d       	ldd	r18, Y+29	; 0x1d
    291e:	3e 8d       	ldd	r19, Y+30	; 0x1e
    2920:	8b ec       	ldi	r24, 0xCB	; 203
    2922:	90 e0       	ldi	r25, 0x00	; 0
    2924:	ac 01       	movw	r20, r24
    2926:	24 9f       	mul	r18, r20
    2928:	c0 01       	movw	r24, r0
    292a:	25 9f       	mul	r18, r21
    292c:	90 0d       	add	r25, r0
    292e:	34 9f       	mul	r19, r20
    2930:	90 0d       	add	r25, r0
    2932:	11 24       	eor	r1, r1
    2934:	fc 01       	movw	r30, r24
    2936:	e9 51       	subi	r30, 0x19	; 25
    2938:	fe 4f       	sbci	r31, 0xFE	; 254
    293a:	83 e9       	ldi	r24, 0x93	; 147
    293c:	80 83       	st	Z, r24
    293e:	81 81       	ldd	r24, Z+1	; 0x01
    2940:	88 7f       	andi	r24, 0xF8	; 248
    2942:	82 60       	ori	r24, 0x02	; 2
    2944:	81 83       	std	Z+1, r24	; 0x01
    2946:	2d 8d       	ldd	r18, Y+29	; 0x1d
    2948:	3e 8d       	ldd	r19, Y+30	; 0x1e
    294a:	8b ec       	ldi	r24, 0xCB	; 203
    294c:	90 e0       	ldi	r25, 0x00	; 0
    294e:	fc 01       	movw	r30, r24
    2950:	2e 9f       	mul	r18, r30
    2952:	c0 01       	movw	r24, r0
    2954:	2f 9f       	mul	r18, r31
    2956:	90 0d       	add	r25, r0
    2958:	3e 9f       	mul	r19, r30
    295a:	90 0d       	add	r25, r0
    295c:	11 24       	eor	r1, r1
    295e:	fc 01       	movw	r30, r24
    2960:	e8 51       	subi	r30, 0x18	; 24
    2962:	fe 4f       	sbci	r31, 0xFE	; 254
    2964:	80 81       	ld	r24, Z
    2966:	87 70       	andi	r24, 0x07	; 7
    2968:	88 62       	ori	r24, 0x28	; 40
    296a:	80 83       	st	Z, r24
MyMelodyBox[Number].Table[11].Note= f2	 ;MyMelodyBox[Number].Table[11].Notelength = 3;
    296c:	2d 8d       	ldd	r18, Y+29	; 0x1d
    296e:	3e 8d       	ldd	r19, Y+30	; 0x1e
    2970:	8b ec       	ldi	r24, 0xCB	; 203
    2972:	90 e0       	ldi	r25, 0x00	; 0
    2974:	ac 01       	movw	r20, r24
    2976:	24 9f       	mul	r18, r20
    2978:	c0 01       	movw	r24, r0
    297a:	25 9f       	mul	r18, r21
    297c:	90 0d       	add	r25, r0
    297e:	34 9f       	mul	r19, r20
    2980:	90 0d       	add	r25, r0
    2982:	11 24       	eor	r1, r1
    2984:	fc 01       	movw	r30, r24
    2986:	e7 51       	subi	r30, 0x17	; 23
    2988:	fe 4f       	sbci	r31, 0xFE	; 254
    298a:	8a eb       	ldi	r24, 0xBA	; 186
    298c:	80 83       	st	Z, r24
    298e:	81 81       	ldd	r24, Z+1	; 0x01
    2990:	88 7f       	andi	r24, 0xF8	; 248
    2992:	82 60       	ori	r24, 0x02	; 2
    2994:	81 83       	std	Z+1, r24	; 0x01
    2996:	2d 8d       	ldd	r18, Y+29	; 0x1d
    2998:	3e 8d       	ldd	r19, Y+30	; 0x1e
    299a:	8b ec       	ldi	r24, 0xCB	; 203
    299c:	90 e0       	ldi	r25, 0x00	; 0
    299e:	fc 01       	movw	r30, r24
    29a0:	2e 9f       	mul	r18, r30
    29a2:	c0 01       	movw	r24, r0
    29a4:	2f 9f       	mul	r18, r31
    29a6:	90 0d       	add	r25, r0
    29a8:	3e 9f       	mul	r19, r30
    29aa:	90 0d       	add	r25, r0
    29ac:	11 24       	eor	r1, r1
    29ae:	fc 01       	movw	r30, r24
    29b0:	e6 51       	subi	r30, 0x16	; 22
    29b2:	fe 4f       	sbci	r31, 0xFE	; 254
    29b4:	80 81       	ld	r24, Z
    29b6:	87 70       	andi	r24, 0x07	; 7
    29b8:	88 61       	ori	r24, 0x18	; 24
    29ba:	80 83       	st	Z, r24
MyMelodyBox[Number].Table[12].Note= e2  ;MyMelodyBox[Number].Table[12].Notelength = 3;
    29bc:	2d 8d       	ldd	r18, Y+29	; 0x1d
    29be:	3e 8d       	ldd	r19, Y+30	; 0x1e
    29c0:	8b ec       	ldi	r24, 0xCB	; 203
    29c2:	90 e0       	ldi	r25, 0x00	; 0
    29c4:	ac 01       	movw	r20, r24
    29c6:	24 9f       	mul	r18, r20
    29c8:	c0 01       	movw	r24, r0
    29ca:	25 9f       	mul	r18, r21
    29cc:	90 0d       	add	r25, r0
    29ce:	34 9f       	mul	r19, r20
    29d0:	90 0d       	add	r25, r0
    29d2:	11 24       	eor	r1, r1
    29d4:	fc 01       	movw	r30, r24
    29d6:	e5 51       	subi	r30, 0x15	; 21
    29d8:	fe 4f       	sbci	r31, 0xFE	; 254
    29da:	83 e9       	ldi	r24, 0x93	; 147
    29dc:	80 83       	st	Z, r24
    29de:	81 81       	ldd	r24, Z+1	; 0x01
    29e0:	88 7f       	andi	r24, 0xF8	; 248
    29e2:	82 60       	ori	r24, 0x02	; 2
    29e4:	81 83       	std	Z+1, r24	; 0x01
    29e6:	2d 8d       	ldd	r18, Y+29	; 0x1d
    29e8:	3e 8d       	ldd	r19, Y+30	; 0x1e
    29ea:	8b ec       	ldi	r24, 0xCB	; 203
    29ec:	90 e0       	ldi	r25, 0x00	; 0
    29ee:	fc 01       	movw	r30, r24
    29f0:	2e 9f       	mul	r18, r30
    29f2:	c0 01       	movw	r24, r0
    29f4:	2f 9f       	mul	r18, r31
    29f6:	90 0d       	add	r25, r0
    29f8:	3e 9f       	mul	r19, r30
    29fa:	90 0d       	add	r25, r0
    29fc:	11 24       	eor	r1, r1
    29fe:	fc 01       	movw	r30, r24
    2a00:	e4 51       	subi	r30, 0x14	; 20
    2a02:	fe 4f       	sbci	r31, 0xFE	; 254
    2a04:	80 81       	ld	r24, Z
    2a06:	87 70       	andi	r24, 0x07	; 7
    2a08:	88 61       	ori	r24, 0x18	; 24
    2a0a:	80 83       	st	Z, r24
MyMelodyBox[Number].Table[13].Note= d2	 ;MyMelodyBox[Number].Table[13].Notelength = 3;
    2a0c:	2d 8d       	ldd	r18, Y+29	; 0x1d
    2a0e:	3e 8d       	ldd	r19, Y+30	; 0x1e
    2a10:	8b ec       	ldi	r24, 0xCB	; 203
    2a12:	90 e0       	ldi	r25, 0x00	; 0
    2a14:	ac 01       	movw	r20, r24
    2a16:	24 9f       	mul	r18, r20
    2a18:	c0 01       	movw	r24, r0
    2a1a:	25 9f       	mul	r18, r21
    2a1c:	90 0d       	add	r25, r0
    2a1e:	34 9f       	mul	r19, r20
    2a20:	90 0d       	add	r25, r0
    2a22:	11 24       	eor	r1, r1
    2a24:	fc 01       	movw	r30, r24
    2a26:	e3 51       	subi	r30, 0x13	; 19
    2a28:	fe 4f       	sbci	r31, 0xFE	; 254
    2a2a:	8b e4       	ldi	r24, 0x4B	; 75
    2a2c:	80 83       	st	Z, r24
    2a2e:	81 81       	ldd	r24, Z+1	; 0x01
    2a30:	88 7f       	andi	r24, 0xF8	; 248
    2a32:	82 60       	ori	r24, 0x02	; 2
    2a34:	81 83       	std	Z+1, r24	; 0x01
    2a36:	2d 8d       	ldd	r18, Y+29	; 0x1d
    2a38:	3e 8d       	ldd	r19, Y+30	; 0x1e
    2a3a:	8b ec       	ldi	r24, 0xCB	; 203
    2a3c:	90 e0       	ldi	r25, 0x00	; 0
    2a3e:	fc 01       	movw	r30, r24
    2a40:	2e 9f       	mul	r18, r30
    2a42:	c0 01       	movw	r24, r0
    2a44:	2f 9f       	mul	r18, r31
    2a46:	90 0d       	add	r25, r0
    2a48:	3e 9f       	mul	r19, r30
    2a4a:	90 0d       	add	r25, r0
    2a4c:	11 24       	eor	r1, r1
    2a4e:	fc 01       	movw	r30, r24
    2a50:	e2 51       	subi	r30, 0x12	; 18
    2a52:	fe 4f       	sbci	r31, 0xFE	; 254
    2a54:	80 81       	ld	r24, Z
    2a56:	87 70       	andi	r24, 0x07	; 7
    2a58:	88 61       	ori	r24, 0x18	; 24
    2a5a:	80 83       	st	Z, r24
MyMelodyBox[Number].Table[14].Note= c2	 ;MyMelodyBox[Number].Table[14].Notelength = 3;
    2a5c:	2d 8d       	ldd	r18, Y+29	; 0x1d
    2a5e:	3e 8d       	ldd	r19, Y+30	; 0x1e
    2a60:	8b ec       	ldi	r24, 0xCB	; 203
    2a62:	90 e0       	ldi	r25, 0x00	; 0
    2a64:	ac 01       	movw	r20, r24
    2a66:	24 9f       	mul	r18, r20
    2a68:	c0 01       	movw	r24, r0
    2a6a:	25 9f       	mul	r18, r21
    2a6c:	90 0d       	add	r25, r0
    2a6e:	34 9f       	mul	r19, r20
    2a70:	90 0d       	add	r25, r0
    2a72:	11 24       	eor	r1, r1
    2a74:	fc 01       	movw	r30, r24
    2a76:	e1 51       	subi	r30, 0x11	; 17
    2a78:	fe 4f       	sbci	r31, 0xFE	; 254
    2a7a:	8b e0       	ldi	r24, 0x0B	; 11
    2a7c:	80 83       	st	Z, r24
    2a7e:	81 81       	ldd	r24, Z+1	; 0x01
    2a80:	88 7f       	andi	r24, 0xF8	; 248
    2a82:	82 60       	ori	r24, 0x02	; 2
    2a84:	81 83       	std	Z+1, r24	; 0x01
    2a86:	2d 8d       	ldd	r18, Y+29	; 0x1d
    2a88:	3e 8d       	ldd	r19, Y+30	; 0x1e
    2a8a:	8b ec       	ldi	r24, 0xCB	; 203
    2a8c:	90 e0       	ldi	r25, 0x00	; 0
    2a8e:	fc 01       	movw	r30, r24
    2a90:	2e 9f       	mul	r18, r30
    2a92:	c0 01       	movw	r24, r0
    2a94:	2f 9f       	mul	r18, r31
    2a96:	90 0d       	add	r25, r0
    2a98:	3e 9f       	mul	r19, r30
    2a9a:	90 0d       	add	r25, r0
    2a9c:	11 24       	eor	r1, r1
    2a9e:	fc 01       	movw	r30, r24
    2aa0:	e0 51       	subi	r30, 0x10	; 16
    2aa2:	fe 4f       	sbci	r31, 0xFE	; 254
    2aa4:	80 81       	ld	r24, Z
    2aa6:	87 70       	andi	r24, 0x07	; 7
    2aa8:	88 61       	ori	r24, 0x18	; 24
    2aaa:	80 83       	st	Z, r24
MyMelodyBox[Number].Table[15].Note= g2	 ;MyMelodyBox[Number].Table[15].Notelength = 5;	 
    2aac:	2d 8d       	ldd	r18, Y+29	; 0x1d
    2aae:	3e 8d       	ldd	r19, Y+30	; 0x1e
    2ab0:	8b ec       	ldi	r24, 0xCB	; 203
    2ab2:	90 e0       	ldi	r25, 0x00	; 0
    2ab4:	ac 01       	movw	r20, r24
    2ab6:	24 9f       	mul	r18, r20
    2ab8:	c0 01       	movw	r24, r0
    2aba:	25 9f       	mul	r18, r21
    2abc:	90 0d       	add	r25, r0
    2abe:	34 9f       	mul	r19, r20
    2ac0:	90 0d       	add	r25, r0
    2ac2:	11 24       	eor	r1, r1
    2ac4:	fc 01       	movw	r30, r24
    2ac6:	ef 50       	subi	r30, 0x0F	; 15
    2ac8:	fe 4f       	sbci	r31, 0xFE	; 254
    2aca:	80 e1       	ldi	r24, 0x10	; 16
    2acc:	80 83       	st	Z, r24
    2ace:	81 81       	ldd	r24, Z+1	; 0x01
    2ad0:	88 7f       	andi	r24, 0xF8	; 248
    2ad2:	83 60       	ori	r24, 0x03	; 3
    2ad4:	81 83       	std	Z+1, r24	; 0x01
    2ad6:	2d 8d       	ldd	r18, Y+29	; 0x1d
    2ad8:	3e 8d       	ldd	r19, Y+30	; 0x1e
    2ada:	8b ec       	ldi	r24, 0xCB	; 203
    2adc:	90 e0       	ldi	r25, 0x00	; 0
    2ade:	fc 01       	movw	r30, r24
    2ae0:	2e 9f       	mul	r18, r30
    2ae2:	c0 01       	movw	r24, r0
    2ae4:	2f 9f       	mul	r18, r31
    2ae6:	90 0d       	add	r25, r0
    2ae8:	3e 9f       	mul	r19, r30
    2aea:	90 0d       	add	r25, r0
    2aec:	11 24       	eor	r1, r1
    2aee:	fc 01       	movw	r30, r24
    2af0:	ee 50       	subi	r30, 0x0E	; 14
    2af2:	fe 4f       	sbci	r31, 0xFE	; 254
    2af4:	80 81       	ld	r24, Z
    2af6:	87 70       	andi	r24, 0x07	; 7
    2af8:	88 62       	ori	r24, 0x28	; 40
    2afa:	80 83       	st	Z, r24
MyMelodyBox[Number].Table[16].Note= a2	 ;MyMelodyBox[Number].Table[16].Notelength = 3;
    2afc:	2d 8d       	ldd	r18, Y+29	; 0x1d
    2afe:	3e 8d       	ldd	r19, Y+30	; 0x1e
    2b00:	8b ec       	ldi	r24, 0xCB	; 203
    2b02:	90 e0       	ldi	r25, 0x00	; 0
    2b04:	ac 01       	movw	r20, r24
    2b06:	24 9f       	mul	r18, r20
    2b08:	c0 01       	movw	r24, r0
    2b0a:	25 9f       	mul	r18, r21
    2b0c:	90 0d       	add	r25, r0
    2b0e:	34 9f       	mul	r19, r20
    2b10:	90 0d       	add	r25, r0
    2b12:	11 24       	eor	r1, r1
    2b14:	fc 01       	movw	r30, r24
    2b16:	ed 50       	subi	r30, 0x0D	; 13
    2b18:	fe 4f       	sbci	r31, 0xFE	; 254
    2b1a:	80 e7       	ldi	r24, 0x70	; 112
    2b1c:	80 83       	st	Z, r24
    2b1e:	81 81       	ldd	r24, Z+1	; 0x01
    2b20:	88 7f       	andi	r24, 0xF8	; 248
    2b22:	83 60       	ori	r24, 0x03	; 3
    2b24:	81 83       	std	Z+1, r24	; 0x01
    2b26:	2d 8d       	ldd	r18, Y+29	; 0x1d
    2b28:	3e 8d       	ldd	r19, Y+30	; 0x1e
    2b2a:	8b ec       	ldi	r24, 0xCB	; 203
    2b2c:	90 e0       	ldi	r25, 0x00	; 0
    2b2e:	fc 01       	movw	r30, r24
    2b30:	2e 9f       	mul	r18, r30
    2b32:	c0 01       	movw	r24, r0
    2b34:	2f 9f       	mul	r18, r31
    2b36:	90 0d       	add	r25, r0
    2b38:	3e 9f       	mul	r19, r30
    2b3a:	90 0d       	add	r25, r0
    2b3c:	11 24       	eor	r1, r1
    2b3e:	fc 01       	movw	r30, r24
    2b40:	ec 50       	subi	r30, 0x0C	; 12
    2b42:	fe 4f       	sbci	r31, 0xFE	; 254
    2b44:	80 81       	ld	r24, Z
    2b46:	87 70       	andi	r24, 0x07	; 7
    2b48:	88 61       	ori	r24, 0x18	; 24
    2b4a:	80 83       	st	Z, r24
MyMelodyBox[Number].Table[17].Note= h2	 ;MyMelodyBox[Number].Table[17].Notelength = 3;
    2b4c:	2d 8d       	ldd	r18, Y+29	; 0x1d
    2b4e:	3e 8d       	ldd	r19, Y+30	; 0x1e
    2b50:	8b ec       	ldi	r24, 0xCB	; 203
    2b52:	90 e0       	ldi	r25, 0x00	; 0
    2b54:	ac 01       	movw	r20, r24
    2b56:	24 9f       	mul	r18, r20
    2b58:	c0 01       	movw	r24, r0
    2b5a:	25 9f       	mul	r18, r21
    2b5c:	90 0d       	add	r25, r0
    2b5e:	34 9f       	mul	r19, r20
    2b60:	90 0d       	add	r25, r0
    2b62:	11 24       	eor	r1, r1
    2b64:	fc 01       	movw	r30, r24
    2b66:	eb 50       	subi	r30, 0x0B	; 11
    2b68:	fe 4f       	sbci	r31, 0xFE	; 254
    2b6a:	8a ed       	ldi	r24, 0xDA	; 218
    2b6c:	80 83       	st	Z, r24
    2b6e:	81 81       	ldd	r24, Z+1	; 0x01
    2b70:	88 7f       	andi	r24, 0xF8	; 248
    2b72:	83 60       	ori	r24, 0x03	; 3
    2b74:	81 83       	std	Z+1, r24	; 0x01
    2b76:	2d 8d       	ldd	r18, Y+29	; 0x1d
    2b78:	3e 8d       	ldd	r19, Y+30	; 0x1e
    2b7a:	8b ec       	ldi	r24, 0xCB	; 203
    2b7c:	90 e0       	ldi	r25, 0x00	; 0
    2b7e:	fc 01       	movw	r30, r24
    2b80:	2e 9f       	mul	r18, r30
    2b82:	c0 01       	movw	r24, r0
    2b84:	2f 9f       	mul	r18, r31
    2b86:	90 0d       	add	r25, r0
    2b88:	3e 9f       	mul	r19, r30
    2b8a:	90 0d       	add	r25, r0
    2b8c:	11 24       	eor	r1, r1
    2b8e:	fc 01       	movw	r30, r24
    2b90:	ea 50       	subi	r30, 0x0A	; 10
    2b92:	fe 4f       	sbci	r31, 0xFE	; 254
    2b94:	80 81       	ld	r24, Z
    2b96:	87 70       	andi	r24, 0x07	; 7
    2b98:	88 61       	ori	r24, 0x18	; 24
    2b9a:	80 83       	st	Z, r24
MyMelodyBox[Number].Table[18].Note= c3	;MyMelodyBox[Number].Table[18].Notelength = 5;
    2b9c:	2d 8d       	ldd	r18, Y+29	; 0x1d
    2b9e:	3e 8d       	ldd	r19, Y+30	; 0x1e
    2ba0:	8b ec       	ldi	r24, 0xCB	; 203
    2ba2:	90 e0       	ldi	r25, 0x00	; 0
    2ba4:	ac 01       	movw	r20, r24
    2ba6:	24 9f       	mul	r18, r20
    2ba8:	c0 01       	movw	r24, r0
    2baa:	25 9f       	mul	r18, r21
    2bac:	90 0d       	add	r25, r0
    2bae:	34 9f       	mul	r19, r20
    2bb0:	90 0d       	add	r25, r0
    2bb2:	11 24       	eor	r1, r1
    2bb4:	fc 01       	movw	r30, r24
    2bb6:	e9 50       	subi	r30, 0x09	; 9
    2bb8:	fe 4f       	sbci	r31, 0xFE	; 254
    2bba:	86 e1       	ldi	r24, 0x16	; 22
    2bbc:	80 83       	st	Z, r24
    2bbe:	81 81       	ldd	r24, Z+1	; 0x01
    2bc0:	88 7f       	andi	r24, 0xF8	; 248
    2bc2:	84 60       	ori	r24, 0x04	; 4
    2bc4:	81 83       	std	Z+1, r24	; 0x01
    2bc6:	2d 8d       	ldd	r18, Y+29	; 0x1d
    2bc8:	3e 8d       	ldd	r19, Y+30	; 0x1e
    2bca:	8b ec       	ldi	r24, 0xCB	; 203
    2bcc:	90 e0       	ldi	r25, 0x00	; 0
    2bce:	fc 01       	movw	r30, r24
    2bd0:	2e 9f       	mul	r18, r30
    2bd2:	c0 01       	movw	r24, r0
    2bd4:	2f 9f       	mul	r18, r31
    2bd6:	90 0d       	add	r25, r0
    2bd8:	3e 9f       	mul	r19, r30
    2bda:	90 0d       	add	r25, r0
    2bdc:	11 24       	eor	r1, r1
    2bde:	fc 01       	movw	r30, r24
    2be0:	e8 50       	subi	r30, 0x08	; 8
    2be2:	fe 4f       	sbci	r31, 0xFE	; 254
    2be4:	80 81       	ld	r24, Z
    2be6:	87 70       	andi	r24, 0x07	; 7
    2be8:	88 62       	ori	r24, 0x28	; 40
    2bea:	80 83       	st	Z, r24
MyMelodyBox[Number].Table[19].Note= h2 	 ;MyMelodyBox[Number].Table[19].Notelength = 4;
    2bec:	2d 8d       	ldd	r18, Y+29	; 0x1d
    2bee:	3e 8d       	ldd	r19, Y+30	; 0x1e
    2bf0:	8b ec       	ldi	r24, 0xCB	; 203
    2bf2:	90 e0       	ldi	r25, 0x00	; 0
    2bf4:	ac 01       	movw	r20, r24
    2bf6:	24 9f       	mul	r18, r20
    2bf8:	c0 01       	movw	r24, r0
    2bfa:	25 9f       	mul	r18, r21
    2bfc:	90 0d       	add	r25, r0
    2bfe:	34 9f       	mul	r19, r20
    2c00:	90 0d       	add	r25, r0
    2c02:	11 24       	eor	r1, r1
    2c04:	fc 01       	movw	r30, r24
    2c06:	e7 50       	subi	r30, 0x07	; 7
    2c08:	fe 4f       	sbci	r31, 0xFE	; 254
    2c0a:	8a ed       	ldi	r24, 0xDA	; 218
    2c0c:	80 83       	st	Z, r24
    2c0e:	81 81       	ldd	r24, Z+1	; 0x01
    2c10:	88 7f       	andi	r24, 0xF8	; 248
    2c12:	83 60       	ori	r24, 0x03	; 3
    2c14:	81 83       	std	Z+1, r24	; 0x01
    2c16:	2d 8d       	ldd	r18, Y+29	; 0x1d
    2c18:	3e 8d       	ldd	r19, Y+30	; 0x1e
    2c1a:	8b ec       	ldi	r24, 0xCB	; 203
    2c1c:	90 e0       	ldi	r25, 0x00	; 0
    2c1e:	fc 01       	movw	r30, r24
    2c20:	2e 9f       	mul	r18, r30
    2c22:	c0 01       	movw	r24, r0
    2c24:	2f 9f       	mul	r18, r31
    2c26:	90 0d       	add	r25, r0
    2c28:	3e 9f       	mul	r19, r30
    2c2a:	90 0d       	add	r25, r0
    2c2c:	11 24       	eor	r1, r1
    2c2e:	fc 01       	movw	r30, r24
    2c30:	e6 50       	subi	r30, 0x06	; 6
    2c32:	fe 4f       	sbci	r31, 0xFE	; 254
    2c34:	80 81       	ld	r24, Z
    2c36:	87 70       	andi	r24, 0x07	; 7
    2c38:	80 62       	ori	r24, 0x20	; 32
    2c3a:	80 83       	st	Z, r24
MyMelodyBox[Number].Table[20].Note= a2 	 ;MyMelodyBox[Number].Table[20].Notelength = 4;
    2c3c:	2d 8d       	ldd	r18, Y+29	; 0x1d
    2c3e:	3e 8d       	ldd	r19, Y+30	; 0x1e
    2c40:	8b ec       	ldi	r24, 0xCB	; 203
    2c42:	90 e0       	ldi	r25, 0x00	; 0
    2c44:	ac 01       	movw	r20, r24
    2c46:	24 9f       	mul	r18, r20
    2c48:	c0 01       	movw	r24, r0
    2c4a:	25 9f       	mul	r18, r21
    2c4c:	90 0d       	add	r25, r0
    2c4e:	34 9f       	mul	r19, r20
    2c50:	90 0d       	add	r25, r0
    2c52:	11 24       	eor	r1, r1
    2c54:	fc 01       	movw	r30, r24
    2c56:	e5 50       	subi	r30, 0x05	; 5
    2c58:	fe 4f       	sbci	r31, 0xFE	; 254
    2c5a:	80 e7       	ldi	r24, 0x70	; 112
    2c5c:	80 83       	st	Z, r24
    2c5e:	81 81       	ldd	r24, Z+1	; 0x01
    2c60:	88 7f       	andi	r24, 0xF8	; 248
    2c62:	83 60       	ori	r24, 0x03	; 3
    2c64:	81 83       	std	Z+1, r24	; 0x01
    2c66:	2d 8d       	ldd	r18, Y+29	; 0x1d
    2c68:	3e 8d       	ldd	r19, Y+30	; 0x1e
    2c6a:	8b ec       	ldi	r24, 0xCB	; 203
    2c6c:	90 e0       	ldi	r25, 0x00	; 0
    2c6e:	fc 01       	movw	r30, r24
    2c70:	2e 9f       	mul	r18, r30
    2c72:	c0 01       	movw	r24, r0
    2c74:	2f 9f       	mul	r18, r31
    2c76:	90 0d       	add	r25, r0
    2c78:	3e 9f       	mul	r19, r30
    2c7a:	90 0d       	add	r25, r0
    2c7c:	11 24       	eor	r1, r1
    2c7e:	fc 01       	movw	r30, r24
    2c80:	e4 50       	subi	r30, 0x04	; 4
    2c82:	fe 4f       	sbci	r31, 0xFE	; 254
    2c84:	80 81       	ld	r24, Z
    2c86:	87 70       	andi	r24, 0x07	; 7
    2c88:	80 62       	ori	r24, 0x20	; 32
    2c8a:	80 83       	st	Z, r24
MyMelodyBox[Number].Table[21].Note= g2	 ;MyMelodyBox[Number].Table[21].Notelength = 5;
    2c8c:	2d 8d       	ldd	r18, Y+29	; 0x1d
    2c8e:	3e 8d       	ldd	r19, Y+30	; 0x1e
    2c90:	8b ec       	ldi	r24, 0xCB	; 203
    2c92:	90 e0       	ldi	r25, 0x00	; 0
    2c94:	ac 01       	movw	r20, r24
    2c96:	24 9f       	mul	r18, r20
    2c98:	c0 01       	movw	r24, r0
    2c9a:	25 9f       	mul	r18, r21
    2c9c:	90 0d       	add	r25, r0
    2c9e:	34 9f       	mul	r19, r20
    2ca0:	90 0d       	add	r25, r0
    2ca2:	11 24       	eor	r1, r1
    2ca4:	fc 01       	movw	r30, r24
    2ca6:	e3 50       	subi	r30, 0x03	; 3
    2ca8:	fe 4f       	sbci	r31, 0xFE	; 254
    2caa:	80 e1       	ldi	r24, 0x10	; 16
    2cac:	80 83       	st	Z, r24
    2cae:	81 81       	ldd	r24, Z+1	; 0x01
    2cb0:	88 7f       	andi	r24, 0xF8	; 248
    2cb2:	83 60       	ori	r24, 0x03	; 3
    2cb4:	81 83       	std	Z+1, r24	; 0x01
    2cb6:	2d 8d       	ldd	r18, Y+29	; 0x1d
    2cb8:	3e 8d       	ldd	r19, Y+30	; 0x1e
    2cba:	8b ec       	ldi	r24, 0xCB	; 203
    2cbc:	90 e0       	ldi	r25, 0x00	; 0
    2cbe:	fc 01       	movw	r30, r24
    2cc0:	2e 9f       	mul	r18, r30
    2cc2:	c0 01       	movw	r24, r0
    2cc4:	2f 9f       	mul	r18, r31
    2cc6:	90 0d       	add	r25, r0
    2cc8:	3e 9f       	mul	r19, r30
    2cca:	90 0d       	add	r25, r0
    2ccc:	11 24       	eor	r1, r1
    2cce:	fc 01       	movw	r30, r24
    2cd0:	e2 50       	subi	r30, 0x02	; 2
    2cd2:	fe 4f       	sbci	r31, 0xFE	; 254
    2cd4:	80 81       	ld	r24, Z
    2cd6:	87 70       	andi	r24, 0x07	; 7
    2cd8:	88 62       	ori	r24, 0x28	; 40
    2cda:	80 83       	st	Z, r24
MyMelodyBox[Number].Table[22].Note= e2   ;MyMelodyBox[Number].Table[22].Notelength = 5;
    2cdc:	2d 8d       	ldd	r18, Y+29	; 0x1d
    2cde:	3e 8d       	ldd	r19, Y+30	; 0x1e
    2ce0:	8b ec       	ldi	r24, 0xCB	; 203
    2ce2:	90 e0       	ldi	r25, 0x00	; 0
    2ce4:	ac 01       	movw	r20, r24
    2ce6:	24 9f       	mul	r18, r20
    2ce8:	c0 01       	movw	r24, r0
    2cea:	25 9f       	mul	r18, r21
    2cec:	90 0d       	add	r25, r0
    2cee:	34 9f       	mul	r19, r20
    2cf0:	90 0d       	add	r25, r0
    2cf2:	11 24       	eor	r1, r1
    2cf4:	fc 01       	movw	r30, r24
    2cf6:	e1 50       	subi	r30, 0x01	; 1
    2cf8:	fe 4f       	sbci	r31, 0xFE	; 254
    2cfa:	83 e9       	ldi	r24, 0x93	; 147
    2cfc:	80 83       	st	Z, r24
    2cfe:	81 81       	ldd	r24, Z+1	; 0x01
    2d00:	88 7f       	andi	r24, 0xF8	; 248
    2d02:	82 60       	ori	r24, 0x02	; 2
    2d04:	81 83       	std	Z+1, r24	; 0x01
    2d06:	2d 8d       	ldd	r18, Y+29	; 0x1d
    2d08:	3e 8d       	ldd	r19, Y+30	; 0x1e
    2d0a:	8b ec       	ldi	r24, 0xCB	; 203
    2d0c:	90 e0       	ldi	r25, 0x00	; 0
    2d0e:	fc 01       	movw	r30, r24
    2d10:	2e 9f       	mul	r18, r30
    2d12:	c0 01       	movw	r24, r0
    2d14:	2f 9f       	mul	r18, r31
    2d16:	90 0d       	add	r25, r0
    2d18:	3e 9f       	mul	r19, r30
    2d1a:	90 0d       	add	r25, r0
    2d1c:	11 24       	eor	r1, r1
    2d1e:	fc 01       	movw	r30, r24
    2d20:	e0 50       	subi	r30, 0x00	; 0
    2d22:	fe 4f       	sbci	r31, 0xFE	; 254
    2d24:	80 81       	ld	r24, Z
    2d26:	87 70       	andi	r24, 0x07	; 7
    2d28:	88 62       	ori	r24, 0x28	; 40
    2d2a:	80 83       	st	Z, r24
MyMelodyBox[Number].Table[23].Note = a2	 ;MyMelodyBox[Number].Table[23].Notelength = 5;
    2d2c:	2d 8d       	ldd	r18, Y+29	; 0x1d
    2d2e:	3e 8d       	ldd	r19, Y+30	; 0x1e
    2d30:	8b ec       	ldi	r24, 0xCB	; 203
    2d32:	90 e0       	ldi	r25, 0x00	; 0
    2d34:	ac 01       	movw	r20, r24
    2d36:	24 9f       	mul	r18, r20
    2d38:	c0 01       	movw	r24, r0
    2d3a:	25 9f       	mul	r18, r21
    2d3c:	90 0d       	add	r25, r0
    2d3e:	34 9f       	mul	r19, r20
    2d40:	90 0d       	add	r25, r0
    2d42:	11 24       	eor	r1, r1
    2d44:	fc 01       	movw	r30, r24
    2d46:	ef 5f       	subi	r30, 0xFF	; 255
    2d48:	fd 4f       	sbci	r31, 0xFD	; 253
    2d4a:	80 e7       	ldi	r24, 0x70	; 112
    2d4c:	80 83       	st	Z, r24
    2d4e:	81 81       	ldd	r24, Z+1	; 0x01
    2d50:	88 7f       	andi	r24, 0xF8	; 248
    2d52:	83 60       	ori	r24, 0x03	; 3
    2d54:	81 83       	std	Z+1, r24	; 0x01
    2d56:	2d 8d       	ldd	r18, Y+29	; 0x1d
    2d58:	3e 8d       	ldd	r19, Y+30	; 0x1e
    2d5a:	8b ec       	ldi	r24, 0xCB	; 203
    2d5c:	90 e0       	ldi	r25, 0x00	; 0
    2d5e:	fc 01       	movw	r30, r24
    2d60:	2e 9f       	mul	r18, r30
    2d62:	c0 01       	movw	r24, r0
    2d64:	2f 9f       	mul	r18, r31
    2d66:	90 0d       	add	r25, r0
    2d68:	3e 9f       	mul	r19, r30
    2d6a:	90 0d       	add	r25, r0
    2d6c:	11 24       	eor	r1, r1
    2d6e:	fc 01       	movw	r30, r24
    2d70:	ee 5f       	subi	r30, 0xFE	; 254
    2d72:	fd 4f       	sbci	r31, 0xFD	; 253
    2d74:	80 81       	ld	r24, Z
    2d76:	87 70       	andi	r24, 0x07	; 7
    2d78:	88 62       	ori	r24, 0x28	; 40
    2d7a:	80 83       	st	Z, r24
MyMelodyBox[Number].Table[24].Note = g2	 ;MyMelodyBox[Number].Table[24].Notelength = 3;
    2d7c:	2d 8d       	ldd	r18, Y+29	; 0x1d
    2d7e:	3e 8d       	ldd	r19, Y+30	; 0x1e
    2d80:	8b ec       	ldi	r24, 0xCB	; 203
    2d82:	90 e0       	ldi	r25, 0x00	; 0
    2d84:	ac 01       	movw	r20, r24
    2d86:	24 9f       	mul	r18, r20
    2d88:	c0 01       	movw	r24, r0
    2d8a:	25 9f       	mul	r18, r21
    2d8c:	90 0d       	add	r25, r0
    2d8e:	34 9f       	mul	r19, r20
    2d90:	90 0d       	add	r25, r0
    2d92:	11 24       	eor	r1, r1
    2d94:	fc 01       	movw	r30, r24
    2d96:	ed 5f       	subi	r30, 0xFD	; 253
    2d98:	fd 4f       	sbci	r31, 0xFD	; 253
    2d9a:	80 e1       	ldi	r24, 0x10	; 16
    2d9c:	80 83       	st	Z, r24
    2d9e:	81 81       	ldd	r24, Z+1	; 0x01
    2da0:	88 7f       	andi	r24, 0xF8	; 248
    2da2:	83 60       	ori	r24, 0x03	; 3
    2da4:	81 83       	std	Z+1, r24	; 0x01
    2da6:	2d 8d       	ldd	r18, Y+29	; 0x1d
    2da8:	3e 8d       	ldd	r19, Y+30	; 0x1e
    2daa:	8b ec       	ldi	r24, 0xCB	; 203
    2dac:	90 e0       	ldi	r25, 0x00	; 0
    2dae:	fc 01       	movw	r30, r24
    2db0:	2e 9f       	mul	r18, r30
    2db2:	c0 01       	movw	r24, r0
    2db4:	2f 9f       	mul	r18, r31
    2db6:	90 0d       	add	r25, r0
    2db8:	3e 9f       	mul	r19, r30
    2dba:	90 0d       	add	r25, r0
    2dbc:	11 24       	eor	r1, r1
    2dbe:	fc 01       	movw	r30, r24
    2dc0:	ec 5f       	subi	r30, 0xFC	; 252
    2dc2:	fd 4f       	sbci	r31, 0xFD	; 253
    2dc4:	80 81       	ld	r24, Z
    2dc6:	87 70       	andi	r24, 0x07	; 7
    2dc8:	88 61       	ori	r24, 0x18	; 24
    2dca:	80 83       	st	Z, r24
MyMelodyBox[Number].Table[25].Note = f2	 ;MyMelodyBox[Number].Table[25].Notelength = 3;
    2dcc:	2d 8d       	ldd	r18, Y+29	; 0x1d
    2dce:	3e 8d       	ldd	r19, Y+30	; 0x1e
    2dd0:	8b ec       	ldi	r24, 0xCB	; 203
    2dd2:	90 e0       	ldi	r25, 0x00	; 0
    2dd4:	ac 01       	movw	r20, r24
    2dd6:	24 9f       	mul	r18, r20
    2dd8:	c0 01       	movw	r24, r0
    2dda:	25 9f       	mul	r18, r21
    2ddc:	90 0d       	add	r25, r0
    2dde:	34 9f       	mul	r19, r20
    2de0:	90 0d       	add	r25, r0
    2de2:	11 24       	eor	r1, r1
    2de4:	fc 01       	movw	r30, r24
    2de6:	eb 5f       	subi	r30, 0xFB	; 251
    2de8:	fd 4f       	sbci	r31, 0xFD	; 253
    2dea:	8a eb       	ldi	r24, 0xBA	; 186
    2dec:	80 83       	st	Z, r24
    2dee:	81 81       	ldd	r24, Z+1	; 0x01
    2df0:	88 7f       	andi	r24, 0xF8	; 248
    2df2:	82 60       	ori	r24, 0x02	; 2
    2df4:	81 83       	std	Z+1, r24	; 0x01
    2df6:	2d 8d       	ldd	r18, Y+29	; 0x1d
    2df8:	3e 8d       	ldd	r19, Y+30	; 0x1e
    2dfa:	8b ec       	ldi	r24, 0xCB	; 203
    2dfc:	90 e0       	ldi	r25, 0x00	; 0
    2dfe:	fc 01       	movw	r30, r24
    2e00:	2e 9f       	mul	r18, r30
    2e02:	c0 01       	movw	r24, r0
    2e04:	2f 9f       	mul	r18, r31
    2e06:	90 0d       	add	r25, r0
    2e08:	3e 9f       	mul	r19, r30
    2e0a:	90 0d       	add	r25, r0
    2e0c:	11 24       	eor	r1, r1
    2e0e:	fc 01       	movw	r30, r24
    2e10:	ea 5f       	subi	r30, 0xFA	; 250
    2e12:	fd 4f       	sbci	r31, 0xFD	; 253
    2e14:	80 81       	ld	r24, Z
    2e16:	87 70       	andi	r24, 0x07	; 7
    2e18:	88 61       	ori	r24, 0x18	; 24
    2e1a:	80 83       	st	Z, r24
MyMelodyBox[Number].Table[26].Note = e2   ;MyMelodyBox[Number].Table[26].Notelength  = 5;
    2e1c:	2d 8d       	ldd	r18, Y+29	; 0x1d
    2e1e:	3e 8d       	ldd	r19, Y+30	; 0x1e
    2e20:	8b ec       	ldi	r24, 0xCB	; 203
    2e22:	90 e0       	ldi	r25, 0x00	; 0
    2e24:	ac 01       	movw	r20, r24
    2e26:	24 9f       	mul	r18, r20
    2e28:	c0 01       	movw	r24, r0
    2e2a:	25 9f       	mul	r18, r21
    2e2c:	90 0d       	add	r25, r0
    2e2e:	34 9f       	mul	r19, r20
    2e30:	90 0d       	add	r25, r0
    2e32:	11 24       	eor	r1, r1
    2e34:	fc 01       	movw	r30, r24
    2e36:	e9 5f       	subi	r30, 0xF9	; 249
    2e38:	fd 4f       	sbci	r31, 0xFD	; 253
    2e3a:	83 e9       	ldi	r24, 0x93	; 147
    2e3c:	80 83       	st	Z, r24
    2e3e:	81 81       	ldd	r24, Z+1	; 0x01
    2e40:	88 7f       	andi	r24, 0xF8	; 248
    2e42:	82 60       	ori	r24, 0x02	; 2
    2e44:	81 83       	std	Z+1, r24	; 0x01
    2e46:	2d 8d       	ldd	r18, Y+29	; 0x1d
    2e48:	3e 8d       	ldd	r19, Y+30	; 0x1e
    2e4a:	8b ec       	ldi	r24, 0xCB	; 203
    2e4c:	90 e0       	ldi	r25, 0x00	; 0
    2e4e:	fc 01       	movw	r30, r24
    2e50:	2e 9f       	mul	r18, r30
    2e52:	c0 01       	movw	r24, r0
    2e54:	2f 9f       	mul	r18, r31
    2e56:	90 0d       	add	r25, r0
    2e58:	3e 9f       	mul	r19, r30
    2e5a:	90 0d       	add	r25, r0
    2e5c:	11 24       	eor	r1, r1
    2e5e:	fc 01       	movw	r30, r24
    2e60:	e8 5f       	subi	r30, 0xF8	; 248
    2e62:	fd 4f       	sbci	r31, 0xFD	; 253
    2e64:	80 81       	ld	r24, Z
    2e66:	87 70       	andi	r24, 0x07	; 7
    2e68:	88 62       	ori	r24, 0x28	; 40
    2e6a:	80 83       	st	Z, r24
MyMelodyBox[Number].Table[27].Note = d2   ;MyMelodyBox[Number].Table[27].Notelength  = 5;
    2e6c:	2d 8d       	ldd	r18, Y+29	; 0x1d
    2e6e:	3e 8d       	ldd	r19, Y+30	; 0x1e
    2e70:	8b ec       	ldi	r24, 0xCB	; 203
    2e72:	90 e0       	ldi	r25, 0x00	; 0
    2e74:	ac 01       	movw	r20, r24
    2e76:	24 9f       	mul	r18, r20
    2e78:	c0 01       	movw	r24, r0
    2e7a:	25 9f       	mul	r18, r21
    2e7c:	90 0d       	add	r25, r0
    2e7e:	34 9f       	mul	r19, r20
    2e80:	90 0d       	add	r25, r0
    2e82:	11 24       	eor	r1, r1
    2e84:	fc 01       	movw	r30, r24
    2e86:	e7 5f       	subi	r30, 0xF7	; 247
    2e88:	fd 4f       	sbci	r31, 0xFD	; 253
    2e8a:	8b e4       	ldi	r24, 0x4B	; 75
    2e8c:	80 83       	st	Z, r24
    2e8e:	81 81       	ldd	r24, Z+1	; 0x01
    2e90:	88 7f       	andi	r24, 0xF8	; 248
    2e92:	82 60       	ori	r24, 0x02	; 2
    2e94:	81 83       	std	Z+1, r24	; 0x01
    2e96:	2d 8d       	ldd	r18, Y+29	; 0x1d
    2e98:	3e 8d       	ldd	r19, Y+30	; 0x1e
    2e9a:	8b ec       	ldi	r24, 0xCB	; 203
    2e9c:	90 e0       	ldi	r25, 0x00	; 0
    2e9e:	fc 01       	movw	r30, r24
    2ea0:	2e 9f       	mul	r18, r30
    2ea2:	c0 01       	movw	r24, r0
    2ea4:	2f 9f       	mul	r18, r31
    2ea6:	90 0d       	add	r25, r0
    2ea8:	3e 9f       	mul	r19, r30
    2eaa:	90 0d       	add	r25, r0
    2eac:	11 24       	eor	r1, r1
    2eae:	fc 01       	movw	r30, r24
    2eb0:	e6 5f       	subi	r30, 0xF6	; 246
    2eb2:	fd 4f       	sbci	r31, 0xFD	; 253
    2eb4:	80 81       	ld	r24, Z
    2eb6:	87 70       	andi	r24, 0x07	; 7
    2eb8:	88 62       	ori	r24, 0x28	; 40
    2eba:	80 83       	st	Z, r24
MyMelodyBox[Number].Table[28].Note = c2   ;MyMelodyBox[Number].Table[28].Notelength  = 3;
    2ebc:	2d 8d       	ldd	r18, Y+29	; 0x1d
    2ebe:	3e 8d       	ldd	r19, Y+30	; 0x1e
    2ec0:	8b ec       	ldi	r24, 0xCB	; 203
    2ec2:	90 e0       	ldi	r25, 0x00	; 0
    2ec4:	ac 01       	movw	r20, r24
    2ec6:	24 9f       	mul	r18, r20
    2ec8:	c0 01       	movw	r24, r0
    2eca:	25 9f       	mul	r18, r21
    2ecc:	90 0d       	add	r25, r0
    2ece:	34 9f       	mul	r19, r20
    2ed0:	90 0d       	add	r25, r0
    2ed2:	11 24       	eor	r1, r1
    2ed4:	fc 01       	movw	r30, r24
    2ed6:	e5 5f       	subi	r30, 0xF5	; 245
    2ed8:	fd 4f       	sbci	r31, 0xFD	; 253
    2eda:	8b e0       	ldi	r24, 0x0B	; 11
    2edc:	80 83       	st	Z, r24
    2ede:	81 81       	ldd	r24, Z+1	; 0x01
    2ee0:	88 7f       	andi	r24, 0xF8	; 248
    2ee2:	82 60       	ori	r24, 0x02	; 2
    2ee4:	81 83       	std	Z+1, r24	; 0x01
    2ee6:	2d 8d       	ldd	r18, Y+29	; 0x1d
    2ee8:	3e 8d       	ldd	r19, Y+30	; 0x1e
    2eea:	8b ec       	ldi	r24, 0xCB	; 203
    2eec:	90 e0       	ldi	r25, 0x00	; 0
    2eee:	fc 01       	movw	r30, r24
    2ef0:	2e 9f       	mul	r18, r30
    2ef2:	c0 01       	movw	r24, r0
    2ef4:	2f 9f       	mul	r18, r31
    2ef6:	90 0d       	add	r25, r0
    2ef8:	3e 9f       	mul	r19, r30
    2efa:	90 0d       	add	r25, r0
    2efc:	11 24       	eor	r1, r1
    2efe:	fc 01       	movw	r30, r24
    2f00:	e4 5f       	subi	r30, 0xF4	; 244
    2f02:	fd 4f       	sbci	r31, 0xFD	; 253
    2f04:	80 81       	ld	r24, Z
    2f06:	87 70       	andi	r24, 0x07	; 7
    2f08:	88 61       	ori	r24, 0x18	; 24
    2f0a:	80 83       	st	Z, r24
MyMelodyBox[Number].Table[29].Note = h1   ;MyMelodyBox[Number].Table[29].Notelength  = 3;
    2f0c:	2d 8d       	ldd	r18, Y+29	; 0x1d
    2f0e:	3e 8d       	ldd	r19, Y+30	; 0x1e
    2f10:	8b ec       	ldi	r24, 0xCB	; 203
    2f12:	90 e0       	ldi	r25, 0x00	; 0
    2f14:	ac 01       	movw	r20, r24
    2f16:	24 9f       	mul	r18, r20
    2f18:	c0 01       	movw	r24, r0
    2f1a:	25 9f       	mul	r18, r21
    2f1c:	90 0d       	add	r25, r0
    2f1e:	34 9f       	mul	r19, r20
    2f20:	90 0d       	add	r25, r0
    2f22:	11 24       	eor	r1, r1
    2f24:	fc 01       	movw	r30, r24
    2f26:	e3 5f       	subi	r30, 0xF3	; 243
    2f28:	fd 4f       	sbci	r31, 0xFD	; 253
    2f2a:	8d ee       	ldi	r24, 0xED	; 237
    2f2c:	80 83       	st	Z, r24
    2f2e:	81 81       	ldd	r24, Z+1	; 0x01
    2f30:	88 7f       	andi	r24, 0xF8	; 248
    2f32:	81 60       	ori	r24, 0x01	; 1
    2f34:	81 83       	std	Z+1, r24	; 0x01
    2f36:	2d 8d       	ldd	r18, Y+29	; 0x1d
    2f38:	3e 8d       	ldd	r19, Y+30	; 0x1e
    2f3a:	8b ec       	ldi	r24, 0xCB	; 203
    2f3c:	90 e0       	ldi	r25, 0x00	; 0
    2f3e:	fc 01       	movw	r30, r24
    2f40:	2e 9f       	mul	r18, r30
    2f42:	c0 01       	movw	r24, r0
    2f44:	2f 9f       	mul	r18, r31
    2f46:	90 0d       	add	r25, r0
    2f48:	3e 9f       	mul	r19, r30
    2f4a:	90 0d       	add	r25, r0
    2f4c:	11 24       	eor	r1, r1
    2f4e:	fc 01       	movw	r30, r24
    2f50:	e2 5f       	subi	r30, 0xF2	; 242
    2f52:	fd 4f       	sbci	r31, 0xFD	; 253
    2f54:	80 81       	ld	r24, Z
    2f56:	87 70       	andi	r24, 0x07	; 7
    2f58:	88 61       	ori	r24, 0x18	; 24
    2f5a:	80 83       	st	Z, r24
MyMelodyBox[Number].Table[30].Note = c2   ;MyMelodyBox[Number].Table[30].Notelength  = 3; 
    2f5c:	2d 8d       	ldd	r18, Y+29	; 0x1d
    2f5e:	3e 8d       	ldd	r19, Y+30	; 0x1e
    2f60:	8b ec       	ldi	r24, 0xCB	; 203
    2f62:	90 e0       	ldi	r25, 0x00	; 0
    2f64:	ac 01       	movw	r20, r24
    2f66:	24 9f       	mul	r18, r20
    2f68:	c0 01       	movw	r24, r0
    2f6a:	25 9f       	mul	r18, r21
    2f6c:	90 0d       	add	r25, r0
    2f6e:	34 9f       	mul	r19, r20
    2f70:	90 0d       	add	r25, r0
    2f72:	11 24       	eor	r1, r1
    2f74:	fc 01       	movw	r30, r24
    2f76:	e1 5f       	subi	r30, 0xF1	; 241
    2f78:	fd 4f       	sbci	r31, 0xFD	; 253
    2f7a:	8b e0       	ldi	r24, 0x0B	; 11
    2f7c:	80 83       	st	Z, r24
    2f7e:	81 81       	ldd	r24, Z+1	; 0x01
    2f80:	88 7f       	andi	r24, 0xF8	; 248
    2f82:	82 60       	ori	r24, 0x02	; 2
    2f84:	81 83       	std	Z+1, r24	; 0x01
    2f86:	2d 8d       	ldd	r18, Y+29	; 0x1d
    2f88:	3e 8d       	ldd	r19, Y+30	; 0x1e
    2f8a:	8b ec       	ldi	r24, 0xCB	; 203
    2f8c:	90 e0       	ldi	r25, 0x00	; 0
    2f8e:	fc 01       	movw	r30, r24
    2f90:	2e 9f       	mul	r18, r30
    2f92:	c0 01       	movw	r24, r0
    2f94:	2f 9f       	mul	r18, r31
    2f96:	90 0d       	add	r25, r0
    2f98:	3e 9f       	mul	r19, r30
    2f9a:	90 0d       	add	r25, r0
    2f9c:	11 24       	eor	r1, r1
    2f9e:	fc 01       	movw	r30, r24
    2fa0:	e0 5f       	subi	r30, 0xF0	; 240
    2fa2:	fd 4f       	sbci	r31, 0xFD	; 253
    2fa4:	80 81       	ld	r24, Z
    2fa6:	87 70       	andi	r24, 0x07	; 7
    2fa8:	88 61       	ori	r24, 0x18	; 24
    2faa:	80 83       	st	Z, r24
MyMelodyBox[Number].Table[31].Note = e2   ;MyMelodyBox[Number].Table[31].Notelength  = 3;
    2fac:	2d 8d       	ldd	r18, Y+29	; 0x1d
    2fae:	3e 8d       	ldd	r19, Y+30	; 0x1e
    2fb0:	8b ec       	ldi	r24, 0xCB	; 203
    2fb2:	90 e0       	ldi	r25, 0x00	; 0
    2fb4:	ac 01       	movw	r20, r24
    2fb6:	24 9f       	mul	r18, r20
    2fb8:	c0 01       	movw	r24, r0
    2fba:	25 9f       	mul	r18, r21
    2fbc:	90 0d       	add	r25, r0
    2fbe:	34 9f       	mul	r19, r20
    2fc0:	90 0d       	add	r25, r0
    2fc2:	11 24       	eor	r1, r1
    2fc4:	fc 01       	movw	r30, r24
    2fc6:	ef 5e       	subi	r30, 0xEF	; 239
    2fc8:	fd 4f       	sbci	r31, 0xFD	; 253
    2fca:	83 e9       	ldi	r24, 0x93	; 147
    2fcc:	80 83       	st	Z, r24
    2fce:	81 81       	ldd	r24, Z+1	; 0x01
    2fd0:	88 7f       	andi	r24, 0xF8	; 248
    2fd2:	82 60       	ori	r24, 0x02	; 2
    2fd4:	81 83       	std	Z+1, r24	; 0x01
    2fd6:	2d 8d       	ldd	r18, Y+29	; 0x1d
    2fd8:	3e 8d       	ldd	r19, Y+30	; 0x1e
    2fda:	8b ec       	ldi	r24, 0xCB	; 203
    2fdc:	90 e0       	ldi	r25, 0x00	; 0
    2fde:	fc 01       	movw	r30, r24
    2fe0:	2e 9f       	mul	r18, r30
    2fe2:	c0 01       	movw	r24, r0
    2fe4:	2f 9f       	mul	r18, r31
    2fe6:	90 0d       	add	r25, r0
    2fe8:	3e 9f       	mul	r19, r30
    2fea:	90 0d       	add	r25, r0
    2fec:	11 24       	eor	r1, r1
    2fee:	fc 01       	movw	r30, r24
    2ff0:	ee 5e       	subi	r30, 0xEE	; 238
    2ff2:	fd 4f       	sbci	r31, 0xFD	; 253
    2ff4:	80 81       	ld	r24, Z
    2ff6:	87 70       	andi	r24, 0x07	; 7
    2ff8:	88 61       	ori	r24, 0x18	; 24
    2ffa:	80 83       	st	Z, r24
MyMelodyBox[Number].Table[32].Note= d2  ;MyMelodyBox[Number].Table[32].Notelength  = 5;
    2ffc:	2d 8d       	ldd	r18, Y+29	; 0x1d
    2ffe:	3e 8d       	ldd	r19, Y+30	; 0x1e
    3000:	8b ec       	ldi	r24, 0xCB	; 203
    3002:	90 e0       	ldi	r25, 0x00	; 0
    3004:	ac 01       	movw	r20, r24
    3006:	24 9f       	mul	r18, r20
    3008:	c0 01       	movw	r24, r0
    300a:	25 9f       	mul	r18, r21
    300c:	90 0d       	add	r25, r0
    300e:	34 9f       	mul	r19, r20
    3010:	90 0d       	add	r25, r0
    3012:	11 24       	eor	r1, r1
    3014:	fc 01       	movw	r30, r24
    3016:	ed 5e       	subi	r30, 0xED	; 237
    3018:	fd 4f       	sbci	r31, 0xFD	; 253
    301a:	8b e4       	ldi	r24, 0x4B	; 75
    301c:	80 83       	st	Z, r24
    301e:	81 81       	ldd	r24, Z+1	; 0x01
    3020:	88 7f       	andi	r24, 0xF8	; 248
    3022:	82 60       	ori	r24, 0x02	; 2
    3024:	81 83       	std	Z+1, r24	; 0x01
    3026:	2d 8d       	ldd	r18, Y+29	; 0x1d
    3028:	3e 8d       	ldd	r19, Y+30	; 0x1e
    302a:	8b ec       	ldi	r24, 0xCB	; 203
    302c:	90 e0       	ldi	r25, 0x00	; 0
    302e:	fc 01       	movw	r30, r24
    3030:	2e 9f       	mul	r18, r30
    3032:	c0 01       	movw	r24, r0
    3034:	2f 9f       	mul	r18, r31
    3036:	90 0d       	add	r25, r0
    3038:	3e 9f       	mul	r19, r30
    303a:	90 0d       	add	r25, r0
    303c:	11 24       	eor	r1, r1
    303e:	fc 01       	movw	r30, r24
    3040:	ec 5e       	subi	r30, 0xEC	; 236
    3042:	fd 4f       	sbci	r31, 0xFD	; 253
    3044:	80 81       	ld	r24, Z
    3046:	87 70       	andi	r24, 0x07	; 7
    3048:	88 62       	ori	r24, 0x28	; 40
    304a:	80 83       	st	Z, r24
MyMelodyBox[Number].Table[33].Note= a1 ;MyMelodyBox[Number].Table[33].Notelength  = 3;
    304c:	2d 8d       	ldd	r18, Y+29	; 0x1d
    304e:	3e 8d       	ldd	r19, Y+30	; 0x1e
    3050:	8b ec       	ldi	r24, 0xCB	; 203
    3052:	90 e0       	ldi	r25, 0x00	; 0
    3054:	ac 01       	movw	r20, r24
    3056:	24 9f       	mul	r18, r20
    3058:	c0 01       	movw	r24, r0
    305a:	25 9f       	mul	r18, r21
    305c:	90 0d       	add	r25, r0
    305e:	34 9f       	mul	r19, r20
    3060:	90 0d       	add	r25, r0
    3062:	11 24       	eor	r1, r1
    3064:	fc 01       	movw	r30, r24
    3066:	eb 5e       	subi	r30, 0xEB	; 235
    3068:	fd 4f       	sbci	r31, 0xFD	; 253
    306a:	88 eb       	ldi	r24, 0xB8	; 184
    306c:	80 83       	st	Z, r24
    306e:	81 81       	ldd	r24, Z+1	; 0x01
    3070:	88 7f       	andi	r24, 0xF8	; 248
    3072:	81 60       	ori	r24, 0x01	; 1
    3074:	81 83       	std	Z+1, r24	; 0x01
    3076:	2d 8d       	ldd	r18, Y+29	; 0x1d
    3078:	3e 8d       	ldd	r19, Y+30	; 0x1e
    307a:	8b ec       	ldi	r24, 0xCB	; 203
    307c:	90 e0       	ldi	r25, 0x00	; 0
    307e:	fc 01       	movw	r30, r24
    3080:	2e 9f       	mul	r18, r30
    3082:	c0 01       	movw	r24, r0
    3084:	2f 9f       	mul	r18, r31
    3086:	90 0d       	add	r25, r0
    3088:	3e 9f       	mul	r19, r30
    308a:	90 0d       	add	r25, r0
    308c:	11 24       	eor	r1, r1
    308e:	fc 01       	movw	r30, r24
    3090:	ea 5e       	subi	r30, 0xEA	; 234
    3092:	fd 4f       	sbci	r31, 0xFD	; 253
    3094:	80 81       	ld	r24, Z
    3096:	87 70       	andi	r24, 0x07	; 7
    3098:	88 61       	ori	r24, 0x18	; 24
    309a:	80 83       	st	Z, r24
MyMelodyBox[Number].Table[34].Note= c2 ;MyMelodyBox[Number].Table[34].Notelength = 3;
    309c:	2d 8d       	ldd	r18, Y+29	; 0x1d
    309e:	3e 8d       	ldd	r19, Y+30	; 0x1e
    30a0:	8b ec       	ldi	r24, 0xCB	; 203
    30a2:	90 e0       	ldi	r25, 0x00	; 0
    30a4:	ac 01       	movw	r20, r24
    30a6:	24 9f       	mul	r18, r20
    30a8:	c0 01       	movw	r24, r0
    30aa:	25 9f       	mul	r18, r21
    30ac:	90 0d       	add	r25, r0
    30ae:	34 9f       	mul	r19, r20
    30b0:	90 0d       	add	r25, r0
    30b2:	11 24       	eor	r1, r1
    30b4:	fc 01       	movw	r30, r24
    30b6:	e9 5e       	subi	r30, 0xE9	; 233
    30b8:	fd 4f       	sbci	r31, 0xFD	; 253
    30ba:	8b e0       	ldi	r24, 0x0B	; 11
    30bc:	80 83       	st	Z, r24
    30be:	81 81       	ldd	r24, Z+1	; 0x01
    30c0:	88 7f       	andi	r24, 0xF8	; 248
    30c2:	82 60       	ori	r24, 0x02	; 2
    30c4:	81 83       	std	Z+1, r24	; 0x01
    30c6:	2d 8d       	ldd	r18, Y+29	; 0x1d
    30c8:	3e 8d       	ldd	r19, Y+30	; 0x1e
    30ca:	8b ec       	ldi	r24, 0xCB	; 203
    30cc:	90 e0       	ldi	r25, 0x00	; 0
    30ce:	fc 01       	movw	r30, r24
    30d0:	2e 9f       	mul	r18, r30
    30d2:	c0 01       	movw	r24, r0
    30d4:	2f 9f       	mul	r18, r31
    30d6:	90 0d       	add	r25, r0
    30d8:	3e 9f       	mul	r19, r30
    30da:	90 0d       	add	r25, r0
    30dc:	11 24       	eor	r1, r1
    30de:	fc 01       	movw	r30, r24
    30e0:	e8 5e       	subi	r30, 0xE8	; 232
    30e2:	fd 4f       	sbci	r31, 0xFD	; 253
    30e4:	80 81       	ld	r24, Z
    30e6:	87 70       	andi	r24, 0x07	; 7
    30e8:	88 61       	ori	r24, 0x18	; 24
    30ea:	80 83       	st	Z, r24
MyMelodyBox[Number].Table[35].Note= c2 ;MyMelodyBox[Number].Table[35].Notelength = 10;
    30ec:	2d 8d       	ldd	r18, Y+29	; 0x1d
    30ee:	3e 8d       	ldd	r19, Y+30	; 0x1e
    30f0:	8b ec       	ldi	r24, 0xCB	; 203
    30f2:	90 e0       	ldi	r25, 0x00	; 0
    30f4:	ac 01       	movw	r20, r24
    30f6:	24 9f       	mul	r18, r20
    30f8:	c0 01       	movw	r24, r0
    30fa:	25 9f       	mul	r18, r21
    30fc:	90 0d       	add	r25, r0
    30fe:	34 9f       	mul	r19, r20
    3100:	90 0d       	add	r25, r0
    3102:	11 24       	eor	r1, r1
    3104:	fc 01       	movw	r30, r24
    3106:	e7 5e       	subi	r30, 0xE7	; 231
    3108:	fd 4f       	sbci	r31, 0xFD	; 253
    310a:	8b e0       	ldi	r24, 0x0B	; 11
    310c:	80 83       	st	Z, r24
    310e:	81 81       	ldd	r24, Z+1	; 0x01
    3110:	88 7f       	andi	r24, 0xF8	; 248
    3112:	82 60       	ori	r24, 0x02	; 2
    3114:	81 83       	std	Z+1, r24	; 0x01
    3116:	2d 8d       	ldd	r18, Y+29	; 0x1d
    3118:	3e 8d       	ldd	r19, Y+30	; 0x1e
    311a:	8b ec       	ldi	r24, 0xCB	; 203
    311c:	90 e0       	ldi	r25, 0x00	; 0
    311e:	fc 01       	movw	r30, r24
    3120:	2e 9f       	mul	r18, r30
    3122:	c0 01       	movw	r24, r0
    3124:	2f 9f       	mul	r18, r31
    3126:	90 0d       	add	r25, r0
    3128:	3e 9f       	mul	r19, r30
    312a:	90 0d       	add	r25, r0
    312c:	11 24       	eor	r1, r1
    312e:	fc 01       	movw	r30, r24
    3130:	e6 5e       	subi	r30, 0xE6	; 230
    3132:	fd 4f       	sbci	r31, 0xFD	; 253
    3134:	80 81       	ld	r24, Z
    3136:	87 70       	andi	r24, 0x07	; 7
    3138:	80 65       	ori	r24, 0x50	; 80
    313a:	80 83       	st	Z, r24
MyMelodyBox[Number].Table[36].Note= d2 ;MyMelodyBox[Number].Table[36].Notelength = 7;
    313c:	2d 8d       	ldd	r18, Y+29	; 0x1d
    313e:	3e 8d       	ldd	r19, Y+30	; 0x1e
    3140:	8b ec       	ldi	r24, 0xCB	; 203
    3142:	90 e0       	ldi	r25, 0x00	; 0
    3144:	ac 01       	movw	r20, r24
    3146:	24 9f       	mul	r18, r20
    3148:	c0 01       	movw	r24, r0
    314a:	25 9f       	mul	r18, r21
    314c:	90 0d       	add	r25, r0
    314e:	34 9f       	mul	r19, r20
    3150:	90 0d       	add	r25, r0
    3152:	11 24       	eor	r1, r1
    3154:	fc 01       	movw	r30, r24
    3156:	e5 5e       	subi	r30, 0xE5	; 229
    3158:	fd 4f       	sbci	r31, 0xFD	; 253
    315a:	8b e4       	ldi	r24, 0x4B	; 75
    315c:	80 83       	st	Z, r24
    315e:	81 81       	ldd	r24, Z+1	; 0x01
    3160:	88 7f       	andi	r24, 0xF8	; 248
    3162:	82 60       	ori	r24, 0x02	; 2
    3164:	81 83       	std	Z+1, r24	; 0x01
    3166:	2d 8d       	ldd	r18, Y+29	; 0x1d
    3168:	3e 8d       	ldd	r19, Y+30	; 0x1e
    316a:	8b ec       	ldi	r24, 0xCB	; 203
    316c:	90 e0       	ldi	r25, 0x00	; 0
    316e:	fc 01       	movw	r30, r24
    3170:	2e 9f       	mul	r18, r30
    3172:	c0 01       	movw	r24, r0
    3174:	2f 9f       	mul	r18, r31
    3176:	90 0d       	add	r25, r0
    3178:	3e 9f       	mul	r19, r30
    317a:	90 0d       	add	r25, r0
    317c:	11 24       	eor	r1, r1
    317e:	fc 01       	movw	r30, r24
    3180:	e4 5e       	subi	r30, 0xE4	; 228
    3182:	fd 4f       	sbci	r31, 0xFD	; 253
    3184:	80 81       	ld	r24, Z
    3186:	87 70       	andi	r24, 0x07	; 7
    3188:	88 63       	ori	r24, 0x38	; 56
    318a:	80 83       	st	Z, r24
MyMelodyBox[Number].Table[37].Note= g2 ;MyMelodyBox[Number].Table[37].Notelength = 3;
    318c:	2d 8d       	ldd	r18, Y+29	; 0x1d
    318e:	3e 8d       	ldd	r19, Y+30	; 0x1e
    3190:	8b ec       	ldi	r24, 0xCB	; 203
    3192:	90 e0       	ldi	r25, 0x00	; 0
    3194:	ac 01       	movw	r20, r24
    3196:	24 9f       	mul	r18, r20
    3198:	c0 01       	movw	r24, r0
    319a:	25 9f       	mul	r18, r21
    319c:	90 0d       	add	r25, r0
    319e:	34 9f       	mul	r19, r20
    31a0:	90 0d       	add	r25, r0
    31a2:	11 24       	eor	r1, r1
    31a4:	fc 01       	movw	r30, r24
    31a6:	e3 5e       	subi	r30, 0xE3	; 227
    31a8:	fd 4f       	sbci	r31, 0xFD	; 253
    31aa:	80 e1       	ldi	r24, 0x10	; 16
    31ac:	80 83       	st	Z, r24
    31ae:	81 81       	ldd	r24, Z+1	; 0x01
    31b0:	88 7f       	andi	r24, 0xF8	; 248
    31b2:	83 60       	ori	r24, 0x03	; 3
    31b4:	81 83       	std	Z+1, r24	; 0x01
    31b6:	2d 8d       	ldd	r18, Y+29	; 0x1d
    31b8:	3e 8d       	ldd	r19, Y+30	; 0x1e
    31ba:	8b ec       	ldi	r24, 0xCB	; 203
    31bc:	90 e0       	ldi	r25, 0x00	; 0
    31be:	fc 01       	movw	r30, r24
    31c0:	2e 9f       	mul	r18, r30
    31c2:	c0 01       	movw	r24, r0
    31c4:	2f 9f       	mul	r18, r31
    31c6:	90 0d       	add	r25, r0
    31c8:	3e 9f       	mul	r19, r30
    31ca:	90 0d       	add	r25, r0
    31cc:	11 24       	eor	r1, r1
    31ce:	fc 01       	movw	r30, r24
    31d0:	e2 5e       	subi	r30, 0xE2	; 226
    31d2:	fd 4f       	sbci	r31, 0xFD	; 253
    31d4:	80 81       	ld	r24, Z
    31d6:	87 70       	andi	r24, 0x07	; 7
    31d8:	88 61       	ori	r24, 0x18	; 24
    31da:	80 83       	st	Z, r24
MyMelodyBox[Number].Table[38].Note= a2	 ;MyMelodyBox[Number].Table[38].Notelength = 5;
    31dc:	2d 8d       	ldd	r18, Y+29	; 0x1d
    31de:	3e 8d       	ldd	r19, Y+30	; 0x1e
    31e0:	8b ec       	ldi	r24, 0xCB	; 203
    31e2:	90 e0       	ldi	r25, 0x00	; 0
    31e4:	ac 01       	movw	r20, r24
    31e6:	24 9f       	mul	r18, r20
    31e8:	c0 01       	movw	r24, r0
    31ea:	25 9f       	mul	r18, r21
    31ec:	90 0d       	add	r25, r0
    31ee:	34 9f       	mul	r19, r20
    31f0:	90 0d       	add	r25, r0
    31f2:	11 24       	eor	r1, r1
    31f4:	fc 01       	movw	r30, r24
    31f6:	e1 5e       	subi	r30, 0xE1	; 225
    31f8:	fd 4f       	sbci	r31, 0xFD	; 253
    31fa:	80 e7       	ldi	r24, 0x70	; 112
    31fc:	80 83       	st	Z, r24
    31fe:	81 81       	ldd	r24, Z+1	; 0x01
    3200:	88 7f       	andi	r24, 0xF8	; 248
    3202:	83 60       	ori	r24, 0x03	; 3
    3204:	81 83       	std	Z+1, r24	; 0x01
    3206:	2d 8d       	ldd	r18, Y+29	; 0x1d
    3208:	3e 8d       	ldd	r19, Y+30	; 0x1e
    320a:	8b ec       	ldi	r24, 0xCB	; 203
    320c:	90 e0       	ldi	r25, 0x00	; 0
    320e:	fc 01       	movw	r30, r24
    3210:	2e 9f       	mul	r18, r30
    3212:	c0 01       	movw	r24, r0
    3214:	2f 9f       	mul	r18, r31
    3216:	90 0d       	add	r25, r0
    3218:	3e 9f       	mul	r19, r30
    321a:	90 0d       	add	r25, r0
    321c:	11 24       	eor	r1, r1
    321e:	fc 01       	movw	r30, r24
    3220:	e0 5e       	subi	r30, 0xE0	; 224
    3222:	fd 4f       	sbci	r31, 0xFD	; 253
    3224:	80 81       	ld	r24, Z
    3226:	87 70       	andi	r24, 0x07	; 7
    3228:	88 62       	ori	r24, 0x28	; 40
    322a:	80 83       	st	Z, r24
MyMelodyBox[Number].Table[39].Note= g2 ;MyMelodyBox[Number].Table[39].Notelength = 3;	 
    322c:	2d 8d       	ldd	r18, Y+29	; 0x1d
    322e:	3e 8d       	ldd	r19, Y+30	; 0x1e
    3230:	8b ec       	ldi	r24, 0xCB	; 203
    3232:	90 e0       	ldi	r25, 0x00	; 0
    3234:	ac 01       	movw	r20, r24
    3236:	24 9f       	mul	r18, r20
    3238:	c0 01       	movw	r24, r0
    323a:	25 9f       	mul	r18, r21
    323c:	90 0d       	add	r25, r0
    323e:	34 9f       	mul	r19, r20
    3240:	90 0d       	add	r25, r0
    3242:	11 24       	eor	r1, r1
    3244:	fc 01       	movw	r30, r24
    3246:	ef 5d       	subi	r30, 0xDF	; 223
    3248:	fd 4f       	sbci	r31, 0xFD	; 253
    324a:	80 e1       	ldi	r24, 0x10	; 16
    324c:	80 83       	st	Z, r24
    324e:	81 81       	ldd	r24, Z+1	; 0x01
    3250:	88 7f       	andi	r24, 0xF8	; 248
    3252:	83 60       	ori	r24, 0x03	; 3
    3254:	81 83       	std	Z+1, r24	; 0x01
    3256:	2d 8d       	ldd	r18, Y+29	; 0x1d
    3258:	3e 8d       	ldd	r19, Y+30	; 0x1e
    325a:	8b ec       	ldi	r24, 0xCB	; 203
    325c:	90 e0       	ldi	r25, 0x00	; 0
    325e:	fc 01       	movw	r30, r24
    3260:	2e 9f       	mul	r18, r30
    3262:	c0 01       	movw	r24, r0
    3264:	2f 9f       	mul	r18, r31
    3266:	90 0d       	add	r25, r0
    3268:	3e 9f       	mul	r19, r30
    326a:	90 0d       	add	r25, r0
    326c:	11 24       	eor	r1, r1
    326e:	fc 01       	movw	r30, r24
    3270:	ee 5d       	subi	r30, 0xDE	; 222
    3272:	fd 4f       	sbci	r31, 0xFD	; 253
    3274:	80 81       	ld	r24, Z
    3276:	87 70       	andi	r24, 0x07	; 7
    3278:	88 61       	ori	r24, 0x18	; 24
    327a:	80 83       	st	Z, r24
MyMelodyBox[Number].Table[40].Note= a2 ;MyMelodyBox[Number].Table[40].Notelength = 3;
    327c:	2d 8d       	ldd	r18, Y+29	; 0x1d
    327e:	3e 8d       	ldd	r19, Y+30	; 0x1e
    3280:	8b ec       	ldi	r24, 0xCB	; 203
    3282:	90 e0       	ldi	r25, 0x00	; 0
    3284:	ac 01       	movw	r20, r24
    3286:	24 9f       	mul	r18, r20
    3288:	c0 01       	movw	r24, r0
    328a:	25 9f       	mul	r18, r21
    328c:	90 0d       	add	r25, r0
    328e:	34 9f       	mul	r19, r20
    3290:	90 0d       	add	r25, r0
    3292:	11 24       	eor	r1, r1
    3294:	fc 01       	movw	r30, r24
    3296:	ed 5d       	subi	r30, 0xDD	; 221
    3298:	fd 4f       	sbci	r31, 0xFD	; 253
    329a:	80 e7       	ldi	r24, 0x70	; 112
    329c:	80 83       	st	Z, r24
    329e:	81 81       	ldd	r24, Z+1	; 0x01
    32a0:	88 7f       	andi	r24, 0xF8	; 248
    32a2:	83 60       	ori	r24, 0x03	; 3
    32a4:	81 83       	std	Z+1, r24	; 0x01
    32a6:	2d 8d       	ldd	r18, Y+29	; 0x1d
    32a8:	3e 8d       	ldd	r19, Y+30	; 0x1e
    32aa:	8b ec       	ldi	r24, 0xCB	; 203
    32ac:	90 e0       	ldi	r25, 0x00	; 0
    32ae:	fc 01       	movw	r30, r24
    32b0:	2e 9f       	mul	r18, r30
    32b2:	c0 01       	movw	r24, r0
    32b4:	2f 9f       	mul	r18, r31
    32b6:	90 0d       	add	r25, r0
    32b8:	3e 9f       	mul	r19, r30
    32ba:	90 0d       	add	r25, r0
    32bc:	11 24       	eor	r1, r1
    32be:	fc 01       	movw	r30, r24
    32c0:	ec 5d       	subi	r30, 0xDC	; 220
    32c2:	fd 4f       	sbci	r31, 0xFD	; 253
    32c4:	80 81       	ld	r24, Z
    32c6:	87 70       	andi	r24, 0x07	; 7
    32c8:	88 61       	ori	r24, 0x18	; 24
    32ca:	80 83       	st	Z, r24
MyMelodyBox[Number].Table[41].Note= g2	 ;MyMelodyBox[Number].Table[41].Notelength = 5;
    32cc:	2d 8d       	ldd	r18, Y+29	; 0x1d
    32ce:	3e 8d       	ldd	r19, Y+30	; 0x1e
    32d0:	8b ec       	ldi	r24, 0xCB	; 203
    32d2:	90 e0       	ldi	r25, 0x00	; 0
    32d4:	ac 01       	movw	r20, r24
    32d6:	24 9f       	mul	r18, r20
    32d8:	c0 01       	movw	r24, r0
    32da:	25 9f       	mul	r18, r21
    32dc:	90 0d       	add	r25, r0
    32de:	34 9f       	mul	r19, r20
    32e0:	90 0d       	add	r25, r0
    32e2:	11 24       	eor	r1, r1
    32e4:	fc 01       	movw	r30, r24
    32e6:	eb 5d       	subi	r30, 0xDB	; 219
    32e8:	fd 4f       	sbci	r31, 0xFD	; 253
    32ea:	80 e1       	ldi	r24, 0x10	; 16
    32ec:	80 83       	st	Z, r24
    32ee:	81 81       	ldd	r24, Z+1	; 0x01
    32f0:	88 7f       	andi	r24, 0xF8	; 248
    32f2:	83 60       	ori	r24, 0x03	; 3
    32f4:	81 83       	std	Z+1, r24	; 0x01
    32f6:	2d 8d       	ldd	r18, Y+29	; 0x1d
    32f8:	3e 8d       	ldd	r19, Y+30	; 0x1e
    32fa:	8b ec       	ldi	r24, 0xCB	; 203
    32fc:	90 e0       	ldi	r25, 0x00	; 0
    32fe:	fc 01       	movw	r30, r24
    3300:	2e 9f       	mul	r18, r30
    3302:	c0 01       	movw	r24, r0
    3304:	2f 9f       	mul	r18, r31
    3306:	90 0d       	add	r25, r0
    3308:	3e 9f       	mul	r19, r30
    330a:	90 0d       	add	r25, r0
    330c:	11 24       	eor	r1, r1
    330e:	fc 01       	movw	r30, r24
    3310:	ea 5d       	subi	r30, 0xDA	; 218
    3312:	fd 4f       	sbci	r31, 0xFD	; 253
    3314:	80 81       	ld	r24, Z
    3316:	87 70       	andi	r24, 0x07	; 7
    3318:	88 62       	ori	r24, 0x28	; 40
    331a:	80 83       	st	Z, r24
MyMelodyBox[Number].Table[42].Note = d2	 ;MyMelodyBox[Number].Table[42].Notelength = 3;
    331c:	2d 8d       	ldd	r18, Y+29	; 0x1d
    331e:	3e 8d       	ldd	r19, Y+30	; 0x1e
    3320:	8b ec       	ldi	r24, 0xCB	; 203
    3322:	90 e0       	ldi	r25, 0x00	; 0
    3324:	ac 01       	movw	r20, r24
    3326:	24 9f       	mul	r18, r20
    3328:	c0 01       	movw	r24, r0
    332a:	25 9f       	mul	r18, r21
    332c:	90 0d       	add	r25, r0
    332e:	34 9f       	mul	r19, r20
    3330:	90 0d       	add	r25, r0
    3332:	11 24       	eor	r1, r1
    3334:	fc 01       	movw	r30, r24
    3336:	e9 5d       	subi	r30, 0xD9	; 217
    3338:	fd 4f       	sbci	r31, 0xFD	; 253
    333a:	8b e4       	ldi	r24, 0x4B	; 75
    333c:	80 83       	st	Z, r24
    333e:	81 81       	ldd	r24, Z+1	; 0x01
    3340:	88 7f       	andi	r24, 0xF8	; 248
    3342:	82 60       	ori	r24, 0x02	; 2
    3344:	81 83       	std	Z+1, r24	; 0x01
    3346:	2d 8d       	ldd	r18, Y+29	; 0x1d
    3348:	3e 8d       	ldd	r19, Y+30	; 0x1e
    334a:	8b ec       	ldi	r24, 0xCB	; 203
    334c:	90 e0       	ldi	r25, 0x00	; 0
    334e:	fc 01       	movw	r30, r24
    3350:	2e 9f       	mul	r18, r30
    3352:	c0 01       	movw	r24, r0
    3354:	2f 9f       	mul	r18, r31
    3356:	90 0d       	add	r25, r0
    3358:	3e 9f       	mul	r19, r30
    335a:	90 0d       	add	r25, r0
    335c:	11 24       	eor	r1, r1
    335e:	fc 01       	movw	r30, r24
    3360:	e8 5d       	subi	r30, 0xD8	; 216
    3362:	fd 4f       	sbci	r31, 0xFD	; 253
    3364:	80 81       	ld	r24, Z
    3366:	87 70       	andi	r24, 0x07	; 7
    3368:	88 61       	ori	r24, 0x18	; 24
    336a:	80 83       	st	Z, r24
MyMelodyBox[Number].Table[43].Note = f2	 ;MyMelodyBox[Number].Table[43].Notelength = 3;
    336c:	2d 8d       	ldd	r18, Y+29	; 0x1d
    336e:	3e 8d       	ldd	r19, Y+30	; 0x1e
    3370:	8b ec       	ldi	r24, 0xCB	; 203
    3372:	90 e0       	ldi	r25, 0x00	; 0
    3374:	ac 01       	movw	r20, r24
    3376:	24 9f       	mul	r18, r20
    3378:	c0 01       	movw	r24, r0
    337a:	25 9f       	mul	r18, r21
    337c:	90 0d       	add	r25, r0
    337e:	34 9f       	mul	r19, r20
    3380:	90 0d       	add	r25, r0
    3382:	11 24       	eor	r1, r1
    3384:	fc 01       	movw	r30, r24
    3386:	e7 5d       	subi	r30, 0xD7	; 215
    3388:	fd 4f       	sbci	r31, 0xFD	; 253
    338a:	8a eb       	ldi	r24, 0xBA	; 186
    338c:	80 83       	st	Z, r24
    338e:	81 81       	ldd	r24, Z+1	; 0x01
    3390:	88 7f       	andi	r24, 0xF8	; 248
    3392:	82 60       	ori	r24, 0x02	; 2
    3394:	81 83       	std	Z+1, r24	; 0x01
    3396:	2d 8d       	ldd	r18, Y+29	; 0x1d
    3398:	3e 8d       	ldd	r19, Y+30	; 0x1e
    339a:	8b ec       	ldi	r24, 0xCB	; 203
    339c:	90 e0       	ldi	r25, 0x00	; 0
    339e:	fc 01       	movw	r30, r24
    33a0:	2e 9f       	mul	r18, r30
    33a2:	c0 01       	movw	r24, r0
    33a4:	2f 9f       	mul	r18, r31
    33a6:	90 0d       	add	r25, r0
    33a8:	3e 9f       	mul	r19, r30
    33aa:	90 0d       	add	r25, r0
    33ac:	11 24       	eor	r1, r1
    33ae:	fc 01       	movw	r30, r24
    33b0:	e6 5d       	subi	r30, 0xD6	; 214
    33b2:	fd 4f       	sbci	r31, 0xFD	; 253
    33b4:	80 81       	ld	r24, Z
    33b6:	87 70       	andi	r24, 0x07	; 7
    33b8:	88 61       	ori	r24, 0x18	; 24
    33ba:	80 83       	st	Z, r24
MyMelodyBox[Number].Table[44].Note = f2	 ;MyMelodyBox[Number].Table[44].Notelength = 5;
    33bc:	2d 8d       	ldd	r18, Y+29	; 0x1d
    33be:	3e 8d       	ldd	r19, Y+30	; 0x1e
    33c0:	8b ec       	ldi	r24, 0xCB	; 203
    33c2:	90 e0       	ldi	r25, 0x00	; 0
    33c4:	ac 01       	movw	r20, r24
    33c6:	24 9f       	mul	r18, r20
    33c8:	c0 01       	movw	r24, r0
    33ca:	25 9f       	mul	r18, r21
    33cc:	90 0d       	add	r25, r0
    33ce:	34 9f       	mul	r19, r20
    33d0:	90 0d       	add	r25, r0
    33d2:	11 24       	eor	r1, r1
    33d4:	fc 01       	movw	r30, r24
    33d6:	e5 5d       	subi	r30, 0xD5	; 213
    33d8:	fd 4f       	sbci	r31, 0xFD	; 253
    33da:	8a eb       	ldi	r24, 0xBA	; 186
    33dc:	80 83       	st	Z, r24
    33de:	81 81       	ldd	r24, Z+1	; 0x01
    33e0:	88 7f       	andi	r24, 0xF8	; 248
    33e2:	82 60       	ori	r24, 0x02	; 2
    33e4:	81 83       	std	Z+1, r24	; 0x01
    33e6:	2d 8d       	ldd	r18, Y+29	; 0x1d
    33e8:	3e 8d       	ldd	r19, Y+30	; 0x1e
    33ea:	8b ec       	ldi	r24, 0xCB	; 203
    33ec:	90 e0       	ldi	r25, 0x00	; 0
    33ee:	fc 01       	movw	r30, r24
    33f0:	2e 9f       	mul	r18, r30
    33f2:	c0 01       	movw	r24, r0
    33f4:	2f 9f       	mul	r18, r31
    33f6:	90 0d       	add	r25, r0
    33f8:	3e 9f       	mul	r19, r30
    33fa:	90 0d       	add	r25, r0
    33fc:	11 24       	eor	r1, r1
    33fe:	fc 01       	movw	r30, r24
    3400:	e4 5d       	subi	r30, 0xD4	; 212
    3402:	fd 4f       	sbci	r31, 0xFD	; 253
    3404:	80 81       	ld	r24, Z
    3406:	87 70       	andi	r24, 0x07	; 7
    3408:	88 62       	ori	r24, 0x28	; 40
    340a:	80 83       	st	Z, r24
MyMelodyBox[Number].Table[45].Note = e2   ;MyMelodyBox[Number].Table[45].Notelength = 3;
    340c:	2d 8d       	ldd	r18, Y+29	; 0x1d
    340e:	3e 8d       	ldd	r19, Y+30	; 0x1e
    3410:	8b ec       	ldi	r24, 0xCB	; 203
    3412:	90 e0       	ldi	r25, 0x00	; 0
    3414:	ac 01       	movw	r20, r24
    3416:	24 9f       	mul	r18, r20
    3418:	c0 01       	movw	r24, r0
    341a:	25 9f       	mul	r18, r21
    341c:	90 0d       	add	r25, r0
    341e:	34 9f       	mul	r19, r20
    3420:	90 0d       	add	r25, r0
    3422:	11 24       	eor	r1, r1
    3424:	fc 01       	movw	r30, r24
    3426:	e3 5d       	subi	r30, 0xD3	; 211
    3428:	fd 4f       	sbci	r31, 0xFD	; 253
    342a:	83 e9       	ldi	r24, 0x93	; 147
    342c:	80 83       	st	Z, r24
    342e:	81 81       	ldd	r24, Z+1	; 0x01
    3430:	88 7f       	andi	r24, 0xF8	; 248
    3432:	82 60       	ori	r24, 0x02	; 2
    3434:	81 83       	std	Z+1, r24	; 0x01
    3436:	2d 8d       	ldd	r18, Y+29	; 0x1d
    3438:	3e 8d       	ldd	r19, Y+30	; 0x1e
    343a:	8b ec       	ldi	r24, 0xCB	; 203
    343c:	90 e0       	ldi	r25, 0x00	; 0
    343e:	fc 01       	movw	r30, r24
    3440:	2e 9f       	mul	r18, r30
    3442:	c0 01       	movw	r24, r0
    3444:	2f 9f       	mul	r18, r31
    3446:	90 0d       	add	r25, r0
    3448:	3e 9f       	mul	r19, r30
    344a:	90 0d       	add	r25, r0
    344c:	11 24       	eor	r1, r1
    344e:	fc 01       	movw	r30, r24
    3450:	e2 5d       	subi	r30, 0xD2	; 210
    3452:	fd 4f       	sbci	r31, 0xFD	; 253
    3454:	80 81       	ld	r24, Z
    3456:	87 70       	andi	r24, 0x07	; 7
    3458:	88 61       	ori	r24, 0x18	; 24
    345a:	80 83       	st	Z, r24
MyMelodyBox[Number].Table[46].Note = d2 ;MyMelodyBox[Number].Table[46].Notelength = 3;
    345c:	2d 8d       	ldd	r18, Y+29	; 0x1d
    345e:	3e 8d       	ldd	r19, Y+30	; 0x1e
    3460:	8b ec       	ldi	r24, 0xCB	; 203
    3462:	90 e0       	ldi	r25, 0x00	; 0
    3464:	ac 01       	movw	r20, r24
    3466:	24 9f       	mul	r18, r20
    3468:	c0 01       	movw	r24, r0
    346a:	25 9f       	mul	r18, r21
    346c:	90 0d       	add	r25, r0
    346e:	34 9f       	mul	r19, r20
    3470:	90 0d       	add	r25, r0
    3472:	11 24       	eor	r1, r1
    3474:	fc 01       	movw	r30, r24
    3476:	e1 5d       	subi	r30, 0xD1	; 209
    3478:	fd 4f       	sbci	r31, 0xFD	; 253
    347a:	8b e4       	ldi	r24, 0x4B	; 75
    347c:	80 83       	st	Z, r24
    347e:	81 81       	ldd	r24, Z+1	; 0x01
    3480:	88 7f       	andi	r24, 0xF8	; 248
    3482:	82 60       	ori	r24, 0x02	; 2
    3484:	81 83       	std	Z+1, r24	; 0x01
    3486:	2d 8d       	ldd	r18, Y+29	; 0x1d
    3488:	3e 8d       	ldd	r19, Y+30	; 0x1e
    348a:	8b ec       	ldi	r24, 0xCB	; 203
    348c:	90 e0       	ldi	r25, 0x00	; 0
    348e:	fc 01       	movw	r30, r24
    3490:	2e 9f       	mul	r18, r30
    3492:	c0 01       	movw	r24, r0
    3494:	2f 9f       	mul	r18, r31
    3496:	90 0d       	add	r25, r0
    3498:	3e 9f       	mul	r19, r30
    349a:	90 0d       	add	r25, r0
    349c:	11 24       	eor	r1, r1
    349e:	fc 01       	movw	r30, r24
    34a0:	e0 5d       	subi	r30, 0xD0	; 208
    34a2:	fd 4f       	sbci	r31, 0xFD	; 253
    34a4:	80 81       	ld	r24, Z
    34a6:	87 70       	andi	r24, 0x07	; 7
    34a8:	88 61       	ori	r24, 0x18	; 24
    34aa:	80 83       	st	Z, r24
MyMelodyBox[Number].Table[47].Note = cis2 ;MyMelodyBox[Number].Table[47].Notelength = 5;
    34ac:	2d 8d       	ldd	r18, Y+29	; 0x1d
    34ae:	3e 8d       	ldd	r19, Y+30	; 0x1e
    34b0:	8b ec       	ldi	r24, 0xCB	; 203
    34b2:	90 e0       	ldi	r25, 0x00	; 0
    34b4:	ac 01       	movw	r20, r24
    34b6:	24 9f       	mul	r18, r20
    34b8:	c0 01       	movw	r24, r0
    34ba:	25 9f       	mul	r18, r21
    34bc:	90 0d       	add	r25, r0
    34be:	34 9f       	mul	r19, r20
    34c0:	90 0d       	add	r25, r0
    34c2:	11 24       	eor	r1, r1
    34c4:	fc 01       	movw	r30, r24
    34c6:	ef 5c       	subi	r30, 0xCF	; 207
    34c8:	fd 4f       	sbci	r31, 0xFD	; 253
    34ca:	8a e2       	ldi	r24, 0x2A	; 42
    34cc:	80 83       	st	Z, r24
    34ce:	81 81       	ldd	r24, Z+1	; 0x01
    34d0:	88 7f       	andi	r24, 0xF8	; 248
    34d2:	82 60       	ori	r24, 0x02	; 2
    34d4:	81 83       	std	Z+1, r24	; 0x01
    34d6:	2d 8d       	ldd	r18, Y+29	; 0x1d
    34d8:	3e 8d       	ldd	r19, Y+30	; 0x1e
    34da:	8b ec       	ldi	r24, 0xCB	; 203
    34dc:	90 e0       	ldi	r25, 0x00	; 0
    34de:	fc 01       	movw	r30, r24
    34e0:	2e 9f       	mul	r18, r30
    34e2:	c0 01       	movw	r24, r0
    34e4:	2f 9f       	mul	r18, r31
    34e6:	90 0d       	add	r25, r0
    34e8:	3e 9f       	mul	r19, r30
    34ea:	90 0d       	add	r25, r0
    34ec:	11 24       	eor	r1, r1
    34ee:	fc 01       	movw	r30, r24
    34f0:	ee 5c       	subi	r30, 0xCE	; 206
    34f2:	fd 4f       	sbci	r31, 0xFD	; 253
    34f4:	80 81       	ld	r24, Z
    34f6:	87 70       	andi	r24, 0x07	; 7
    34f8:	88 62       	ori	r24, 0x28	; 40
    34fa:	80 83       	st	Z, r24
MyMelodyBox[Number].Table[48].Note = d2 ;MyMelodyBox[Number].Table[48].Notelength = 3;
    34fc:	2d 8d       	ldd	r18, Y+29	; 0x1d
    34fe:	3e 8d       	ldd	r19, Y+30	; 0x1e
    3500:	8b ec       	ldi	r24, 0xCB	; 203
    3502:	90 e0       	ldi	r25, 0x00	; 0
    3504:	ac 01       	movw	r20, r24
    3506:	24 9f       	mul	r18, r20
    3508:	c0 01       	movw	r24, r0
    350a:	25 9f       	mul	r18, r21
    350c:	90 0d       	add	r25, r0
    350e:	34 9f       	mul	r19, r20
    3510:	90 0d       	add	r25, r0
    3512:	11 24       	eor	r1, r1
    3514:	fc 01       	movw	r30, r24
    3516:	ed 5c       	subi	r30, 0xCD	; 205
    3518:	fd 4f       	sbci	r31, 0xFD	; 253
    351a:	8b e4       	ldi	r24, 0x4B	; 75
    351c:	80 83       	st	Z, r24
    351e:	81 81       	ldd	r24, Z+1	; 0x01
    3520:	88 7f       	andi	r24, 0xF8	; 248
    3522:	82 60       	ori	r24, 0x02	; 2
    3524:	81 83       	std	Z+1, r24	; 0x01
    3526:	2d 8d       	ldd	r18, Y+29	; 0x1d
    3528:	3e 8d       	ldd	r19, Y+30	; 0x1e
    352a:	8b ec       	ldi	r24, 0xCB	; 203
    352c:	90 e0       	ldi	r25, 0x00	; 0
    352e:	fc 01       	movw	r30, r24
    3530:	2e 9f       	mul	r18, r30
    3532:	c0 01       	movw	r24, r0
    3534:	2f 9f       	mul	r18, r31
    3536:	90 0d       	add	r25, r0
    3538:	3e 9f       	mul	r19, r30
    353a:	90 0d       	add	r25, r0
    353c:	11 24       	eor	r1, r1
    353e:	fc 01       	movw	r30, r24
    3540:	ec 5c       	subi	r30, 0xCC	; 204
    3542:	fd 4f       	sbci	r31, 0xFD	; 253
    3544:	80 81       	ld	r24, Z
    3546:	87 70       	andi	r24, 0x07	; 7
    3548:	88 61       	ori	r24, 0x18	; 24
    354a:	80 83       	st	Z, r24
MyMelodyBox[Number].Table[49].Note = e2 ;MyMelodyBox[Number].Table[49].Notelength = 3;
    354c:	2d 8d       	ldd	r18, Y+29	; 0x1d
    354e:	3e 8d       	ldd	r19, Y+30	; 0x1e
    3550:	8b ec       	ldi	r24, 0xCB	; 203
    3552:	90 e0       	ldi	r25, 0x00	; 0
    3554:	ac 01       	movw	r20, r24
    3556:	24 9f       	mul	r18, r20
    3558:	c0 01       	movw	r24, r0
    355a:	25 9f       	mul	r18, r21
    355c:	90 0d       	add	r25, r0
    355e:	34 9f       	mul	r19, r20
    3560:	90 0d       	add	r25, r0
    3562:	11 24       	eor	r1, r1
    3564:	fc 01       	movw	r30, r24
    3566:	eb 5c       	subi	r30, 0xCB	; 203
    3568:	fd 4f       	sbci	r31, 0xFD	; 253
    356a:	83 e9       	ldi	r24, 0x93	; 147
    356c:	80 83       	st	Z, r24
    356e:	81 81       	ldd	r24, Z+1	; 0x01
    3570:	88 7f       	andi	r24, 0xF8	; 248
    3572:	82 60       	ori	r24, 0x02	; 2
    3574:	81 83       	std	Z+1, r24	; 0x01
    3576:	2d 8d       	ldd	r18, Y+29	; 0x1d
    3578:	3e 8d       	ldd	r19, Y+30	; 0x1e
    357a:	8b ec       	ldi	r24, 0xCB	; 203
    357c:	90 e0       	ldi	r25, 0x00	; 0
    357e:	fc 01       	movw	r30, r24
    3580:	2e 9f       	mul	r18, r30
    3582:	c0 01       	movw	r24, r0
    3584:	2f 9f       	mul	r18, r31
    3586:	90 0d       	add	r25, r0
    3588:	3e 9f       	mul	r19, r30
    358a:	90 0d       	add	r25, r0
    358c:	11 24       	eor	r1, r1
    358e:	fc 01       	movw	r30, r24
    3590:	ea 5c       	subi	r30, 0xCA	; 202
    3592:	fd 4f       	sbci	r31, 0xFD	; 253
    3594:	80 81       	ld	r24, Z
    3596:	87 70       	andi	r24, 0x07	; 7
    3598:	88 61       	ori	r24, 0x18	; 24
    359a:	80 83       	st	Z, r24
MyMelodyBox[Number].Table[50].Note = f2 ;MyMelodyBox[Number].Table[50].Notelength = 5;
    359c:	2d 8d       	ldd	r18, Y+29	; 0x1d
    359e:	3e 8d       	ldd	r19, Y+30	; 0x1e
    35a0:	8b ec       	ldi	r24, 0xCB	; 203
    35a2:	90 e0       	ldi	r25, 0x00	; 0
    35a4:	ac 01       	movw	r20, r24
    35a6:	24 9f       	mul	r18, r20
    35a8:	c0 01       	movw	r24, r0
    35aa:	25 9f       	mul	r18, r21
    35ac:	90 0d       	add	r25, r0
    35ae:	34 9f       	mul	r19, r20
    35b0:	90 0d       	add	r25, r0
    35b2:	11 24       	eor	r1, r1
    35b4:	fc 01       	movw	r30, r24
    35b6:	e9 5c       	subi	r30, 0xC9	; 201
    35b8:	fd 4f       	sbci	r31, 0xFD	; 253
    35ba:	8a eb       	ldi	r24, 0xBA	; 186
    35bc:	80 83       	st	Z, r24
    35be:	81 81       	ldd	r24, Z+1	; 0x01
    35c0:	88 7f       	andi	r24, 0xF8	; 248
    35c2:	82 60       	ori	r24, 0x02	; 2
    35c4:	81 83       	std	Z+1, r24	; 0x01
    35c6:	2d 8d       	ldd	r18, Y+29	; 0x1d
    35c8:	3e 8d       	ldd	r19, Y+30	; 0x1e
    35ca:	8b ec       	ldi	r24, 0xCB	; 203
    35cc:	90 e0       	ldi	r25, 0x00	; 0
    35ce:	fc 01       	movw	r30, r24
    35d0:	2e 9f       	mul	r18, r30
    35d2:	c0 01       	movw	r24, r0
    35d4:	2f 9f       	mul	r18, r31
    35d6:	90 0d       	add	r25, r0
    35d8:	3e 9f       	mul	r19, r30
    35da:	90 0d       	add	r25, r0
    35dc:	11 24       	eor	r1, r1
    35de:	fc 01       	movw	r30, r24
    35e0:	e8 5c       	subi	r30, 0xC8	; 200
    35e2:	fd 4f       	sbci	r31, 0xFD	; 253
    35e4:	80 81       	ld	r24, Z
    35e6:	87 70       	andi	r24, 0x07	; 7
    35e8:	88 62       	ori	r24, 0x28	; 40
    35ea:	80 83       	st	Z, r24
MyMelodyBox[Number].Table[51].Note = e2 ;MyMelodyBox[Number].Table[51].Notelength = 3;
    35ec:	2d 8d       	ldd	r18, Y+29	; 0x1d
    35ee:	3e 8d       	ldd	r19, Y+30	; 0x1e
    35f0:	8b ec       	ldi	r24, 0xCB	; 203
    35f2:	90 e0       	ldi	r25, 0x00	; 0
    35f4:	ac 01       	movw	r20, r24
    35f6:	24 9f       	mul	r18, r20
    35f8:	c0 01       	movw	r24, r0
    35fa:	25 9f       	mul	r18, r21
    35fc:	90 0d       	add	r25, r0
    35fe:	34 9f       	mul	r19, r20
    3600:	90 0d       	add	r25, r0
    3602:	11 24       	eor	r1, r1
    3604:	fc 01       	movw	r30, r24
    3606:	e7 5c       	subi	r30, 0xC7	; 199
    3608:	fd 4f       	sbci	r31, 0xFD	; 253
    360a:	83 e9       	ldi	r24, 0x93	; 147
    360c:	80 83       	st	Z, r24
    360e:	81 81       	ldd	r24, Z+1	; 0x01
    3610:	88 7f       	andi	r24, 0xF8	; 248
    3612:	82 60       	ori	r24, 0x02	; 2
    3614:	81 83       	std	Z+1, r24	; 0x01
    3616:	2d 8d       	ldd	r18, Y+29	; 0x1d
    3618:	3e 8d       	ldd	r19, Y+30	; 0x1e
    361a:	8b ec       	ldi	r24, 0xCB	; 203
    361c:	90 e0       	ldi	r25, 0x00	; 0
    361e:	fc 01       	movw	r30, r24
    3620:	2e 9f       	mul	r18, r30
    3622:	c0 01       	movw	r24, r0
    3624:	2f 9f       	mul	r18, r31
    3626:	90 0d       	add	r25, r0
    3628:	3e 9f       	mul	r19, r30
    362a:	90 0d       	add	r25, r0
    362c:	11 24       	eor	r1, r1
    362e:	fc 01       	movw	r30, r24
    3630:	e6 5c       	subi	r30, 0xC6	; 198
    3632:	fd 4f       	sbci	r31, 0xFD	; 253
    3634:	80 81       	ld	r24, Z
    3636:	87 70       	andi	r24, 0x07	; 7
    3638:	88 61       	ori	r24, 0x18	; 24
    363a:	80 83       	st	Z, r24
MyMelodyBox[Number].Table[52].Note = d2 ;MyMelodyBox[Number].Table[52].Notelength = 3;
    363c:	2d 8d       	ldd	r18, Y+29	; 0x1d
    363e:	3e 8d       	ldd	r19, Y+30	; 0x1e
    3640:	8b ec       	ldi	r24, 0xCB	; 203
    3642:	90 e0       	ldi	r25, 0x00	; 0
    3644:	ac 01       	movw	r20, r24
    3646:	24 9f       	mul	r18, r20
    3648:	c0 01       	movw	r24, r0
    364a:	25 9f       	mul	r18, r21
    364c:	90 0d       	add	r25, r0
    364e:	34 9f       	mul	r19, r20
    3650:	90 0d       	add	r25, r0
    3652:	11 24       	eor	r1, r1
    3654:	fc 01       	movw	r30, r24
    3656:	e5 5c       	subi	r30, 0xC5	; 197
    3658:	fd 4f       	sbci	r31, 0xFD	; 253
    365a:	8b e4       	ldi	r24, 0x4B	; 75
    365c:	80 83       	st	Z, r24
    365e:	81 81       	ldd	r24, Z+1	; 0x01
    3660:	88 7f       	andi	r24, 0xF8	; 248
    3662:	82 60       	ori	r24, 0x02	; 2
    3664:	81 83       	std	Z+1, r24	; 0x01
    3666:	2d 8d       	ldd	r18, Y+29	; 0x1d
    3668:	3e 8d       	ldd	r19, Y+30	; 0x1e
    366a:	8b ec       	ldi	r24, 0xCB	; 203
    366c:	90 e0       	ldi	r25, 0x00	; 0
    366e:	fc 01       	movw	r30, r24
    3670:	2e 9f       	mul	r18, r30
    3672:	c0 01       	movw	r24, r0
    3674:	2f 9f       	mul	r18, r31
    3676:	90 0d       	add	r25, r0
    3678:	3e 9f       	mul	r19, r30
    367a:	90 0d       	add	r25, r0
    367c:	11 24       	eor	r1, r1
    367e:	fc 01       	movw	r30, r24
    3680:	e4 5c       	subi	r30, 0xC4	; 196
    3682:	fd 4f       	sbci	r31, 0xFD	; 253
    3684:	80 81       	ld	r24, Z
    3686:	87 70       	andi	r24, 0x07	; 7
    3688:	88 61       	ori	r24, 0x18	; 24
    368a:	80 83       	st	Z, r24
MyMelodyBox[Number].Table[53].Note = c2 ;MyMelodyBox[Number].Table[53].Notelength = 5;
    368c:	2d 8d       	ldd	r18, Y+29	; 0x1d
    368e:	3e 8d       	ldd	r19, Y+30	; 0x1e
    3690:	8b ec       	ldi	r24, 0xCB	; 203
    3692:	90 e0       	ldi	r25, 0x00	; 0
    3694:	ac 01       	movw	r20, r24
    3696:	24 9f       	mul	r18, r20
    3698:	c0 01       	movw	r24, r0
    369a:	25 9f       	mul	r18, r21
    369c:	90 0d       	add	r25, r0
    369e:	34 9f       	mul	r19, r20
    36a0:	90 0d       	add	r25, r0
    36a2:	11 24       	eor	r1, r1
    36a4:	fc 01       	movw	r30, r24
    36a6:	e3 5c       	subi	r30, 0xC3	; 195
    36a8:	fd 4f       	sbci	r31, 0xFD	; 253
    36aa:	8b e0       	ldi	r24, 0x0B	; 11
    36ac:	80 83       	st	Z, r24
    36ae:	81 81       	ldd	r24, Z+1	; 0x01
    36b0:	88 7f       	andi	r24, 0xF8	; 248
    36b2:	82 60       	ori	r24, 0x02	; 2
    36b4:	81 83       	std	Z+1, r24	; 0x01
    36b6:	2d 8d       	ldd	r18, Y+29	; 0x1d
    36b8:	3e 8d       	ldd	r19, Y+30	; 0x1e
    36ba:	8b ec       	ldi	r24, 0xCB	; 203
    36bc:	90 e0       	ldi	r25, 0x00	; 0
    36be:	fc 01       	movw	r30, r24
    36c0:	2e 9f       	mul	r18, r30
    36c2:	c0 01       	movw	r24, r0
    36c4:	2f 9f       	mul	r18, r31
    36c6:	90 0d       	add	r25, r0
    36c8:	3e 9f       	mul	r19, r30
    36ca:	90 0d       	add	r25, r0
    36cc:	11 24       	eor	r1, r1
    36ce:	fc 01       	movw	r30, r24
    36d0:	e2 5c       	subi	r30, 0xC2	; 194
    36d2:	fd 4f       	sbci	r31, 0xFD	; 253
    36d4:	80 81       	ld	r24, Z
    36d6:	87 70       	andi	r24, 0x07	; 7
    36d8:	88 62       	ori	r24, 0x28	; 40
    36da:	80 83       	st	Z, r24
MyMelodyBox[Number].Table[54].Note = d2 ;MyMelodyBox[Number].Table[54].Notelength = 5;
    36dc:	2d 8d       	ldd	r18, Y+29	; 0x1d
    36de:	3e 8d       	ldd	r19, Y+30	; 0x1e
    36e0:	8b ec       	ldi	r24, 0xCB	; 203
    36e2:	90 e0       	ldi	r25, 0x00	; 0
    36e4:	ac 01       	movw	r20, r24
    36e6:	24 9f       	mul	r18, r20
    36e8:	c0 01       	movw	r24, r0
    36ea:	25 9f       	mul	r18, r21
    36ec:	90 0d       	add	r25, r0
    36ee:	34 9f       	mul	r19, r20
    36f0:	90 0d       	add	r25, r0
    36f2:	11 24       	eor	r1, r1
    36f4:	fc 01       	movw	r30, r24
    36f6:	e1 5c       	subi	r30, 0xC1	; 193
    36f8:	fd 4f       	sbci	r31, 0xFD	; 253
    36fa:	8b e4       	ldi	r24, 0x4B	; 75
    36fc:	80 83       	st	Z, r24
    36fe:	81 81       	ldd	r24, Z+1	; 0x01
    3700:	88 7f       	andi	r24, 0xF8	; 248
    3702:	82 60       	ori	r24, 0x02	; 2
    3704:	81 83       	std	Z+1, r24	; 0x01
    3706:	2d 8d       	ldd	r18, Y+29	; 0x1d
    3708:	3e 8d       	ldd	r19, Y+30	; 0x1e
    370a:	8b ec       	ldi	r24, 0xCB	; 203
    370c:	90 e0       	ldi	r25, 0x00	; 0
    370e:	fc 01       	movw	r30, r24
    3710:	2e 9f       	mul	r18, r30
    3712:	c0 01       	movw	r24, r0
    3714:	2f 9f       	mul	r18, r31
    3716:	90 0d       	add	r25, r0
    3718:	3e 9f       	mul	r19, r30
    371a:	90 0d       	add	r25, r0
    371c:	11 24       	eor	r1, r1
    371e:	fc 01       	movw	r30, r24
    3720:	e0 5c       	subi	r30, 0xC0	; 192
    3722:	fd 4f       	sbci	r31, 0xFD	; 253
    3724:	80 81       	ld	r24, Z
    3726:	87 70       	andi	r24, 0x07	; 7
    3728:	88 62       	ori	r24, 0x28	; 40
    372a:	80 83       	st	Z, r24
MyMelodyBox[Number].Table[55].Note = c2 ;MyMelodyBox[Number].Table[55].Notelength = 20;
    372c:	2d 8d       	ldd	r18, Y+29	; 0x1d
    372e:	3e 8d       	ldd	r19, Y+30	; 0x1e
    3730:	8b ec       	ldi	r24, 0xCB	; 203
    3732:	90 e0       	ldi	r25, 0x00	; 0
    3734:	ac 01       	movw	r20, r24
    3736:	24 9f       	mul	r18, r20
    3738:	c0 01       	movw	r24, r0
    373a:	25 9f       	mul	r18, r21
    373c:	90 0d       	add	r25, r0
    373e:	34 9f       	mul	r19, r20
    3740:	90 0d       	add	r25, r0
    3742:	11 24       	eor	r1, r1
    3744:	fc 01       	movw	r30, r24
    3746:	ef 5b       	subi	r30, 0xBF	; 191
    3748:	fd 4f       	sbci	r31, 0xFD	; 253
    374a:	8b e0       	ldi	r24, 0x0B	; 11
    374c:	80 83       	st	Z, r24
    374e:	81 81       	ldd	r24, Z+1	; 0x01
    3750:	88 7f       	andi	r24, 0xF8	; 248
    3752:	82 60       	ori	r24, 0x02	; 2
    3754:	81 83       	std	Z+1, r24	; 0x01
    3756:	2d 8d       	ldd	r18, Y+29	; 0x1d
    3758:	3e 8d       	ldd	r19, Y+30	; 0x1e
    375a:	8b ec       	ldi	r24, 0xCB	; 203
    375c:	90 e0       	ldi	r25, 0x00	; 0
    375e:	fc 01       	movw	r30, r24
    3760:	2e 9f       	mul	r18, r30
    3762:	c0 01       	movw	r24, r0
    3764:	2f 9f       	mul	r18, r31
    3766:	90 0d       	add	r25, r0
    3768:	3e 9f       	mul	r19, r30
    376a:	90 0d       	add	r25, r0
    376c:	11 24       	eor	r1, r1
    376e:	fc 01       	movw	r30, r24
    3770:	ee 5b       	subi	r30, 0xBE	; 190
    3772:	fd 4f       	sbci	r31, 0xFD	; 253
    3774:	80 81       	ld	r24, Z
    3776:	87 70       	andi	r24, 0x07	; 7
    3778:	80 6a       	ori	r24, 0xA0	; 160
    377a:	80 83       	st	Z, r24

//********************************************************************************************

Number = 2;
    377c:	82 e0       	ldi	r24, 0x02	; 2
    377e:	90 e0       	ldi	r25, 0x00	; 0
    3780:	9e 8f       	std	Y+30, r25	; 0x1e
    3782:	8d 8f       	std	Y+29, r24	; 0x1d

MyMelodyBox[Number].title = "Starlight";
    3784:	2d 8d       	ldd	r18, Y+29	; 0x1d
    3786:	3e 8d       	ldd	r19, Y+30	; 0x1e
    3788:	8b ec       	ldi	r24, 0xCB	; 203
    378a:	90 e0       	ldi	r25, 0x00	; 0
    378c:	ac 01       	movw	r20, r24
    378e:	24 9f       	mul	r18, r20
    3790:	c0 01       	movw	r24, r0
    3792:	25 9f       	mul	r18, r21
    3794:	90 0d       	add	r25, r0
    3796:	34 9f       	mul	r19, r20
    3798:	90 0d       	add	r25, r0
    379a:	11 24       	eor	r1, r1
    379c:	fc 01       	movw	r30, r24
    379e:	e4 56       	subi	r30, 0x64	; 100
    37a0:	fd 4f       	sbci	r31, 0xFD	; 253
    37a2:	8f e8       	ldi	r24, 0x8F	; 143
    37a4:	90 e0       	ldi	r25, 0x00	; 0
    37a6:	91 83       	std	Z+1, r25	; 0x01
    37a8:	80 83       	st	Z, r24
MyMelodyBox[Number].length = 45;
    37aa:	2d 8d       	ldd	r18, Y+29	; 0x1d
    37ac:	3e 8d       	ldd	r19, Y+30	; 0x1e
    37ae:	8b ec       	ldi	r24, 0xCB	; 203
    37b0:	90 e0       	ldi	r25, 0x00	; 0
    37b2:	fc 01       	movw	r30, r24
    37b4:	2e 9f       	mul	r18, r30
    37b6:	c0 01       	movw	r24, r0
    37b8:	2f 9f       	mul	r18, r31
    37ba:	90 0d       	add	r25, r0
    37bc:	3e 9f       	mul	r19, r30
    37be:	90 0d       	add	r25, r0
    37c0:	11 24       	eor	r1, r1
    37c2:	fc 01       	movw	r30, r24
    37c4:	e5 56       	subi	r30, 0x65	; 101
    37c6:	fd 4f       	sbci	r31, 0xFD	; 253
    37c8:	80 81       	ld	r24, Z
    37ca:	80 78       	andi	r24, 0x80	; 128
    37cc:	8d 62       	ori	r24, 0x2D	; 45
    37ce:	80 83       	st	Z, r24
MyMelodyBox[Number].Table[0].Note = g1   ;MyMelodyBox[Number].Table[0].Notelength  = 5; 
    37d0:	2d 8d       	ldd	r18, Y+29	; 0x1d
    37d2:	3e 8d       	ldd	r19, Y+30	; 0x1e
    37d4:	8b ec       	ldi	r24, 0xCB	; 203
    37d6:	90 e0       	ldi	r25, 0x00	; 0
    37d8:	ac 01       	movw	r20, r24
    37da:	24 9f       	mul	r18, r20
    37dc:	c0 01       	movw	r24, r0
    37de:	25 9f       	mul	r18, r21
    37e0:	90 0d       	add	r25, r0
    37e2:	34 9f       	mul	r19, r20
    37e4:	90 0d       	add	r25, r0
    37e6:	11 24       	eor	r1, r1
    37e8:	fc 01       	movw	r30, r24
    37ea:	ed 52       	subi	r30, 0x2D	; 45
    37ec:	fe 4f       	sbci	r31, 0xFE	; 254
    37ee:	88 e8       	ldi	r24, 0x88	; 136
    37f0:	80 83       	st	Z, r24
    37f2:	81 81       	ldd	r24, Z+1	; 0x01
    37f4:	88 7f       	andi	r24, 0xF8	; 248
    37f6:	81 60       	ori	r24, 0x01	; 1
    37f8:	81 83       	std	Z+1, r24	; 0x01
    37fa:	2d 8d       	ldd	r18, Y+29	; 0x1d
    37fc:	3e 8d       	ldd	r19, Y+30	; 0x1e
    37fe:	8b ec       	ldi	r24, 0xCB	; 203
    3800:	90 e0       	ldi	r25, 0x00	; 0
    3802:	fc 01       	movw	r30, r24
    3804:	2e 9f       	mul	r18, r30
    3806:	c0 01       	movw	r24, r0
    3808:	2f 9f       	mul	r18, r31
    380a:	90 0d       	add	r25, r0
    380c:	3e 9f       	mul	r19, r30
    380e:	90 0d       	add	r25, r0
    3810:	11 24       	eor	r1, r1
    3812:	fc 01       	movw	r30, r24
    3814:	ec 52       	subi	r30, 0x2C	; 44
    3816:	fe 4f       	sbci	r31, 0xFE	; 254
    3818:	80 81       	ld	r24, Z
    381a:	87 70       	andi	r24, 0x07	; 7
    381c:	88 62       	ori	r24, 0x28	; 40
    381e:	80 83       	st	Z, r24
MyMelodyBox[Number].Table[1].Note = a1   ;MyMelodyBox[Number].Table[1].Notelength  = 5;
    3820:	2d 8d       	ldd	r18, Y+29	; 0x1d
    3822:	3e 8d       	ldd	r19, Y+30	; 0x1e
    3824:	8b ec       	ldi	r24, 0xCB	; 203
    3826:	90 e0       	ldi	r25, 0x00	; 0
    3828:	ac 01       	movw	r20, r24
    382a:	24 9f       	mul	r18, r20
    382c:	c0 01       	movw	r24, r0
    382e:	25 9f       	mul	r18, r21
    3830:	90 0d       	add	r25, r0
    3832:	34 9f       	mul	r19, r20
    3834:	90 0d       	add	r25, r0
    3836:	11 24       	eor	r1, r1
    3838:	fc 01       	movw	r30, r24
    383a:	eb 52       	subi	r30, 0x2B	; 43
    383c:	fe 4f       	sbci	r31, 0xFE	; 254
    383e:	88 eb       	ldi	r24, 0xB8	; 184
    3840:	80 83       	st	Z, r24
    3842:	81 81       	ldd	r24, Z+1	; 0x01
    3844:	88 7f       	andi	r24, 0xF8	; 248
    3846:	81 60       	ori	r24, 0x01	; 1
    3848:	81 83       	std	Z+1, r24	; 0x01
    384a:	2d 8d       	ldd	r18, Y+29	; 0x1d
    384c:	3e 8d       	ldd	r19, Y+30	; 0x1e
    384e:	8b ec       	ldi	r24, 0xCB	; 203
    3850:	90 e0       	ldi	r25, 0x00	; 0
    3852:	fc 01       	movw	r30, r24
    3854:	2e 9f       	mul	r18, r30
    3856:	c0 01       	movw	r24, r0
    3858:	2f 9f       	mul	r18, r31
    385a:	90 0d       	add	r25, r0
    385c:	3e 9f       	mul	r19, r30
    385e:	90 0d       	add	r25, r0
    3860:	11 24       	eor	r1, r1
    3862:	fc 01       	movw	r30, r24
    3864:	ea 52       	subi	r30, 0x2A	; 42
    3866:	fe 4f       	sbci	r31, 0xFE	; 254
    3868:	80 81       	ld	r24, Z
    386a:	87 70       	andi	r24, 0x07	; 7
    386c:	88 62       	ori	r24, 0x28	; 40
    386e:	80 83       	st	Z, r24
MyMelodyBox[Number].Table[2].Note = g2   ;MyMelodyBox[Number].Table[2].Notelength  = 5;
    3870:	2d 8d       	ldd	r18, Y+29	; 0x1d
    3872:	3e 8d       	ldd	r19, Y+30	; 0x1e
    3874:	8b ec       	ldi	r24, 0xCB	; 203
    3876:	90 e0       	ldi	r25, 0x00	; 0
    3878:	ac 01       	movw	r20, r24
    387a:	24 9f       	mul	r18, r20
    387c:	c0 01       	movw	r24, r0
    387e:	25 9f       	mul	r18, r21
    3880:	90 0d       	add	r25, r0
    3882:	34 9f       	mul	r19, r20
    3884:	90 0d       	add	r25, r0
    3886:	11 24       	eor	r1, r1
    3888:	fc 01       	movw	r30, r24
    388a:	e9 52       	subi	r30, 0x29	; 41
    388c:	fe 4f       	sbci	r31, 0xFE	; 254
    388e:	80 e1       	ldi	r24, 0x10	; 16
    3890:	80 83       	st	Z, r24
    3892:	81 81       	ldd	r24, Z+1	; 0x01
    3894:	88 7f       	andi	r24, 0xF8	; 248
    3896:	83 60       	ori	r24, 0x03	; 3
    3898:	81 83       	std	Z+1, r24	; 0x01
    389a:	2d 8d       	ldd	r18, Y+29	; 0x1d
    389c:	3e 8d       	ldd	r19, Y+30	; 0x1e
    389e:	8b ec       	ldi	r24, 0xCB	; 203
    38a0:	90 e0       	ldi	r25, 0x00	; 0
    38a2:	fc 01       	movw	r30, r24
    38a4:	2e 9f       	mul	r18, r30
    38a6:	c0 01       	movw	r24, r0
    38a8:	2f 9f       	mul	r18, r31
    38aa:	90 0d       	add	r25, r0
    38ac:	3e 9f       	mul	r19, r30
    38ae:	90 0d       	add	r25, r0
    38b0:	11 24       	eor	r1, r1
    38b2:	fc 01       	movw	r30, r24
    38b4:	e8 52       	subi	r30, 0x28	; 40
    38b6:	fe 4f       	sbci	r31, 0xFE	; 254
    38b8:	80 81       	ld	r24, Z
    38ba:	87 70       	andi	r24, 0x07	; 7
    38bc:	88 62       	ori	r24, 0x28	; 40
    38be:	80 83       	st	Z, r24
MyMelodyBox[Number].Table[3].Note = e2   ;MyMelodyBox[Number].Table[3].Notelength  = 7;
    38c0:	2d 8d       	ldd	r18, Y+29	; 0x1d
    38c2:	3e 8d       	ldd	r19, Y+30	; 0x1e
    38c4:	8b ec       	ldi	r24, 0xCB	; 203
    38c6:	90 e0       	ldi	r25, 0x00	; 0
    38c8:	ac 01       	movw	r20, r24
    38ca:	24 9f       	mul	r18, r20
    38cc:	c0 01       	movw	r24, r0
    38ce:	25 9f       	mul	r18, r21
    38d0:	90 0d       	add	r25, r0
    38d2:	34 9f       	mul	r19, r20
    38d4:	90 0d       	add	r25, r0
    38d6:	11 24       	eor	r1, r1
    38d8:	fc 01       	movw	r30, r24
    38da:	e7 52       	subi	r30, 0x27	; 39
    38dc:	fe 4f       	sbci	r31, 0xFE	; 254
    38de:	83 e9       	ldi	r24, 0x93	; 147
    38e0:	80 83       	st	Z, r24
    38e2:	81 81       	ldd	r24, Z+1	; 0x01
    38e4:	88 7f       	andi	r24, 0xF8	; 248
    38e6:	82 60       	ori	r24, 0x02	; 2
    38e8:	81 83       	std	Z+1, r24	; 0x01
    38ea:	2d 8d       	ldd	r18, Y+29	; 0x1d
    38ec:	3e 8d       	ldd	r19, Y+30	; 0x1e
    38ee:	8b ec       	ldi	r24, 0xCB	; 203
    38f0:	90 e0       	ldi	r25, 0x00	; 0
    38f2:	fc 01       	movw	r30, r24
    38f4:	2e 9f       	mul	r18, r30
    38f6:	c0 01       	movw	r24, r0
    38f8:	2f 9f       	mul	r18, r31
    38fa:	90 0d       	add	r25, r0
    38fc:	3e 9f       	mul	r19, r30
    38fe:	90 0d       	add	r25, r0
    3900:	11 24       	eor	r1, r1
    3902:	fc 01       	movw	r30, r24
    3904:	e6 52       	subi	r30, 0x26	; 38
    3906:	fe 4f       	sbci	r31, 0xFE	; 254
    3908:	80 81       	ld	r24, Z
    390a:	87 70       	andi	r24, 0x07	; 7
    390c:	88 63       	ori	r24, 0x38	; 56
    390e:	80 83       	st	Z, r24
MyMelodyBox[Number].Table[4].Note = e2   ;MyMelodyBox[Number].Table[4].Notelength  = 2;
    3910:	2d 8d       	ldd	r18, Y+29	; 0x1d
    3912:	3e 8d       	ldd	r19, Y+30	; 0x1e
    3914:	8b ec       	ldi	r24, 0xCB	; 203
    3916:	90 e0       	ldi	r25, 0x00	; 0
    3918:	ac 01       	movw	r20, r24
    391a:	24 9f       	mul	r18, r20
    391c:	c0 01       	movw	r24, r0
    391e:	25 9f       	mul	r18, r21
    3920:	90 0d       	add	r25, r0
    3922:	34 9f       	mul	r19, r20
    3924:	90 0d       	add	r25, r0
    3926:	11 24       	eor	r1, r1
    3928:	fc 01       	movw	r30, r24
    392a:	e5 52       	subi	r30, 0x25	; 37
    392c:	fe 4f       	sbci	r31, 0xFE	; 254
    392e:	83 e9       	ldi	r24, 0x93	; 147
    3930:	80 83       	st	Z, r24
    3932:	81 81       	ldd	r24, Z+1	; 0x01
    3934:	88 7f       	andi	r24, 0xF8	; 248
    3936:	82 60       	ori	r24, 0x02	; 2
    3938:	81 83       	std	Z+1, r24	; 0x01
    393a:	2d 8d       	ldd	r18, Y+29	; 0x1d
    393c:	3e 8d       	ldd	r19, Y+30	; 0x1e
    393e:	8b ec       	ldi	r24, 0xCB	; 203
    3940:	90 e0       	ldi	r25, 0x00	; 0
    3942:	fc 01       	movw	r30, r24
    3944:	2e 9f       	mul	r18, r30
    3946:	c0 01       	movw	r24, r0
    3948:	2f 9f       	mul	r18, r31
    394a:	90 0d       	add	r25, r0
    394c:	3e 9f       	mul	r19, r30
    394e:	90 0d       	add	r25, r0
    3950:	11 24       	eor	r1, r1
    3952:	fc 01       	movw	r30, r24
    3954:	e4 52       	subi	r30, 0x24	; 36
    3956:	fe 4f       	sbci	r31, 0xFE	; 254
    3958:	80 81       	ld	r24, Z
    395a:	87 70       	andi	r24, 0x07	; 7
    395c:	80 61       	ori	r24, 0x10	; 16
    395e:	80 83       	st	Z, r24
MyMelodyBox[Number].Table[5].Note = f2   ;MyMelodyBox[Number].Table[5].Notelength  = 2;
    3960:	2d 8d       	ldd	r18, Y+29	; 0x1d
    3962:	3e 8d       	ldd	r19, Y+30	; 0x1e
    3964:	8b ec       	ldi	r24, 0xCB	; 203
    3966:	90 e0       	ldi	r25, 0x00	; 0
    3968:	ac 01       	movw	r20, r24
    396a:	24 9f       	mul	r18, r20
    396c:	c0 01       	movw	r24, r0
    396e:	25 9f       	mul	r18, r21
    3970:	90 0d       	add	r25, r0
    3972:	34 9f       	mul	r19, r20
    3974:	90 0d       	add	r25, r0
    3976:	11 24       	eor	r1, r1
    3978:	fc 01       	movw	r30, r24
    397a:	e3 52       	subi	r30, 0x23	; 35
    397c:	fe 4f       	sbci	r31, 0xFE	; 254
    397e:	8a eb       	ldi	r24, 0xBA	; 186
    3980:	80 83       	st	Z, r24
    3982:	81 81       	ldd	r24, Z+1	; 0x01
    3984:	88 7f       	andi	r24, 0xF8	; 248
    3986:	82 60       	ori	r24, 0x02	; 2
    3988:	81 83       	std	Z+1, r24	; 0x01
    398a:	2d 8d       	ldd	r18, Y+29	; 0x1d
    398c:	3e 8d       	ldd	r19, Y+30	; 0x1e
    398e:	8b ec       	ldi	r24, 0xCB	; 203
    3990:	90 e0       	ldi	r25, 0x00	; 0
    3992:	fc 01       	movw	r30, r24
    3994:	2e 9f       	mul	r18, r30
    3996:	c0 01       	movw	r24, r0
    3998:	2f 9f       	mul	r18, r31
    399a:	90 0d       	add	r25, r0
    399c:	3e 9f       	mul	r19, r30
    399e:	90 0d       	add	r25, r0
    39a0:	11 24       	eor	r1, r1
    39a2:	fc 01       	movw	r30, r24
    39a4:	e2 52       	subi	r30, 0x22	; 34
    39a6:	fe 4f       	sbci	r31, 0xFE	; 254
    39a8:	80 81       	ld	r24, Z
    39aa:	87 70       	andi	r24, 0x07	; 7
    39ac:	80 61       	ori	r24, 0x10	; 16
    39ae:	80 83       	st	Z, r24
MyMelodyBox[Number].Table[6].Note = g2   ;MyMelodyBox[Number].Table[6].Notelength  = 4; 
    39b0:	2d 8d       	ldd	r18, Y+29	; 0x1d
    39b2:	3e 8d       	ldd	r19, Y+30	; 0x1e
    39b4:	8b ec       	ldi	r24, 0xCB	; 203
    39b6:	90 e0       	ldi	r25, 0x00	; 0
    39b8:	ac 01       	movw	r20, r24
    39ba:	24 9f       	mul	r18, r20
    39bc:	c0 01       	movw	r24, r0
    39be:	25 9f       	mul	r18, r21
    39c0:	90 0d       	add	r25, r0
    39c2:	34 9f       	mul	r19, r20
    39c4:	90 0d       	add	r25, r0
    39c6:	11 24       	eor	r1, r1
    39c8:	fc 01       	movw	r30, r24
    39ca:	e1 52       	subi	r30, 0x21	; 33
    39cc:	fe 4f       	sbci	r31, 0xFE	; 254
    39ce:	80 e1       	ldi	r24, 0x10	; 16
    39d0:	80 83       	st	Z, r24
    39d2:	81 81       	ldd	r24, Z+1	; 0x01
    39d4:	88 7f       	andi	r24, 0xF8	; 248
    39d6:	83 60       	ori	r24, 0x03	; 3
    39d8:	81 83       	std	Z+1, r24	; 0x01
    39da:	2d 8d       	ldd	r18, Y+29	; 0x1d
    39dc:	3e 8d       	ldd	r19, Y+30	; 0x1e
    39de:	8b ec       	ldi	r24, 0xCB	; 203
    39e0:	90 e0       	ldi	r25, 0x00	; 0
    39e2:	fc 01       	movw	r30, r24
    39e4:	2e 9f       	mul	r18, r30
    39e6:	c0 01       	movw	r24, r0
    39e8:	2f 9f       	mul	r18, r31
    39ea:	90 0d       	add	r25, r0
    39ec:	3e 9f       	mul	r19, r30
    39ee:	90 0d       	add	r25, r0
    39f0:	11 24       	eor	r1, r1
    39f2:	fc 01       	movw	r30, r24
    39f4:	e0 52       	subi	r30, 0x20	; 32
    39f6:	fe 4f       	sbci	r31, 0xFE	; 254
    39f8:	80 81       	ld	r24, Z
    39fa:	87 70       	andi	r24, 0x07	; 7
    39fc:	80 62       	ori	r24, 0x20	; 32
    39fe:	80 83       	st	Z, r24
MyMelodyBox[Number].Table[7].Note = a2   ;MyMelodyBox[Number].Table[7].Notelength  = 4;
    3a00:	2d 8d       	ldd	r18, Y+29	; 0x1d
    3a02:	3e 8d       	ldd	r19, Y+30	; 0x1e
    3a04:	8b ec       	ldi	r24, 0xCB	; 203
    3a06:	90 e0       	ldi	r25, 0x00	; 0
    3a08:	ac 01       	movw	r20, r24
    3a0a:	24 9f       	mul	r18, r20
    3a0c:	c0 01       	movw	r24, r0
    3a0e:	25 9f       	mul	r18, r21
    3a10:	90 0d       	add	r25, r0
    3a12:	34 9f       	mul	r19, r20
    3a14:	90 0d       	add	r25, r0
    3a16:	11 24       	eor	r1, r1
    3a18:	fc 01       	movw	r30, r24
    3a1a:	ef 51       	subi	r30, 0x1F	; 31
    3a1c:	fe 4f       	sbci	r31, 0xFE	; 254
    3a1e:	80 e7       	ldi	r24, 0x70	; 112
    3a20:	80 83       	st	Z, r24
    3a22:	81 81       	ldd	r24, Z+1	; 0x01
    3a24:	88 7f       	andi	r24, 0xF8	; 248
    3a26:	83 60       	ori	r24, 0x03	; 3
    3a28:	81 83       	std	Z+1, r24	; 0x01
    3a2a:	2d 8d       	ldd	r18, Y+29	; 0x1d
    3a2c:	3e 8d       	ldd	r19, Y+30	; 0x1e
    3a2e:	8b ec       	ldi	r24, 0xCB	; 203
    3a30:	90 e0       	ldi	r25, 0x00	; 0
    3a32:	fc 01       	movw	r30, r24
    3a34:	2e 9f       	mul	r18, r30
    3a36:	c0 01       	movw	r24, r0
    3a38:	2f 9f       	mul	r18, r31
    3a3a:	90 0d       	add	r25, r0
    3a3c:	3e 9f       	mul	r19, r30
    3a3e:	90 0d       	add	r25, r0
    3a40:	11 24       	eor	r1, r1
    3a42:	fc 01       	movw	r30, r24
    3a44:	ee 51       	subi	r30, 0x1E	; 30
    3a46:	fe 4f       	sbci	r31, 0xFE	; 254
    3a48:	80 81       	ld	r24, Z
    3a4a:	87 70       	andi	r24, 0x07	; 7
    3a4c:	80 62       	ori	r24, 0x20	; 32
    3a4e:	80 83       	st	Z, r24
MyMelodyBox[Number].Table[8].Note=  b2   ;MyMelodyBox[Number].Table[8].Notelength  = 3;
    3a50:	2d 8d       	ldd	r18, Y+29	; 0x1d
    3a52:	3e 8d       	ldd	r19, Y+30	; 0x1e
    3a54:	8b ec       	ldi	r24, 0xCB	; 203
    3a56:	90 e0       	ldi	r25, 0x00	; 0
    3a58:	ac 01       	movw	r20, r24
    3a5a:	24 9f       	mul	r18, r20
    3a5c:	c0 01       	movw	r24, r0
    3a5e:	25 9f       	mul	r18, r21
    3a60:	90 0d       	add	r25, r0
    3a62:	34 9f       	mul	r19, r20
    3a64:	90 0d       	add	r25, r0
    3a66:	11 24       	eor	r1, r1
    3a68:	fc 01       	movw	r30, r24
    3a6a:	ed 51       	subi	r30, 0x1D	; 29
    3a6c:	fe 4f       	sbci	r31, 0xFE	; 254
    3a6e:	84 ea       	ldi	r24, 0xA4	; 164
    3a70:	80 83       	st	Z, r24
    3a72:	81 81       	ldd	r24, Z+1	; 0x01
    3a74:	88 7f       	andi	r24, 0xF8	; 248
    3a76:	83 60       	ori	r24, 0x03	; 3
    3a78:	81 83       	std	Z+1, r24	; 0x01
    3a7a:	2d 8d       	ldd	r18, Y+29	; 0x1d
    3a7c:	3e 8d       	ldd	r19, Y+30	; 0x1e
    3a7e:	8b ec       	ldi	r24, 0xCB	; 203
    3a80:	90 e0       	ldi	r25, 0x00	; 0
    3a82:	fc 01       	movw	r30, r24
    3a84:	2e 9f       	mul	r18, r30
    3a86:	c0 01       	movw	r24, r0
    3a88:	2f 9f       	mul	r18, r31
    3a8a:	90 0d       	add	r25, r0
    3a8c:	3e 9f       	mul	r19, r30
    3a8e:	90 0d       	add	r25, r0
    3a90:	11 24       	eor	r1, r1
    3a92:	fc 01       	movw	r30, r24
    3a94:	ec 51       	subi	r30, 0x1C	; 28
    3a96:	fe 4f       	sbci	r31, 0xFE	; 254
    3a98:	80 81       	ld	r24, Z
    3a9a:	87 70       	andi	r24, 0x07	; 7
    3a9c:	88 61       	ori	r24, 0x18	; 24
    3a9e:	80 83       	st	Z, r24
MyMelodyBox[Number].Table[9].Note=  a2   ;MyMelodyBox[Number].Table[9].Notelength  = 5;
    3aa0:	2d 8d       	ldd	r18, Y+29	; 0x1d
    3aa2:	3e 8d       	ldd	r19, Y+30	; 0x1e
    3aa4:	8b ec       	ldi	r24, 0xCB	; 203
    3aa6:	90 e0       	ldi	r25, 0x00	; 0
    3aa8:	ac 01       	movw	r20, r24
    3aaa:	24 9f       	mul	r18, r20
    3aac:	c0 01       	movw	r24, r0
    3aae:	25 9f       	mul	r18, r21
    3ab0:	90 0d       	add	r25, r0
    3ab2:	34 9f       	mul	r19, r20
    3ab4:	90 0d       	add	r25, r0
    3ab6:	11 24       	eor	r1, r1
    3ab8:	fc 01       	movw	r30, r24
    3aba:	eb 51       	subi	r30, 0x1B	; 27
    3abc:	fe 4f       	sbci	r31, 0xFE	; 254
    3abe:	80 e7       	ldi	r24, 0x70	; 112
    3ac0:	80 83       	st	Z, r24
    3ac2:	81 81       	ldd	r24, Z+1	; 0x01
    3ac4:	88 7f       	andi	r24, 0xF8	; 248
    3ac6:	83 60       	ori	r24, 0x03	; 3
    3ac8:	81 83       	std	Z+1, r24	; 0x01
    3aca:	2d 8d       	ldd	r18, Y+29	; 0x1d
    3acc:	3e 8d       	ldd	r19, Y+30	; 0x1e
    3ace:	8b ec       	ldi	r24, 0xCB	; 203
    3ad0:	90 e0       	ldi	r25, 0x00	; 0
    3ad2:	fc 01       	movw	r30, r24
    3ad4:	2e 9f       	mul	r18, r30
    3ad6:	c0 01       	movw	r24, r0
    3ad8:	2f 9f       	mul	r18, r31
    3ada:	90 0d       	add	r25, r0
    3adc:	3e 9f       	mul	r19, r30
    3ade:	90 0d       	add	r25, r0
    3ae0:	11 24       	eor	r1, r1
    3ae2:	fc 01       	movw	r30, r24
    3ae4:	ea 51       	subi	r30, 0x1A	; 26
    3ae6:	fe 4f       	sbci	r31, 0xFE	; 254
    3ae8:	80 81       	ld	r24, Z
    3aea:	87 70       	andi	r24, 0x07	; 7
    3aec:	88 62       	ori	r24, 0x28	; 40
    3aee:	80 83       	st	Z, r24
MyMelodyBox[Number].Table[10].Note= g2 	 ;MyMelodyBox[Number].Table[10].Notelength = 5;
    3af0:	2d 8d       	ldd	r18, Y+29	; 0x1d
    3af2:	3e 8d       	ldd	r19, Y+30	; 0x1e
    3af4:	8b ec       	ldi	r24, 0xCB	; 203
    3af6:	90 e0       	ldi	r25, 0x00	; 0
    3af8:	ac 01       	movw	r20, r24
    3afa:	24 9f       	mul	r18, r20
    3afc:	c0 01       	movw	r24, r0
    3afe:	25 9f       	mul	r18, r21
    3b00:	90 0d       	add	r25, r0
    3b02:	34 9f       	mul	r19, r20
    3b04:	90 0d       	add	r25, r0
    3b06:	11 24       	eor	r1, r1
    3b08:	fc 01       	movw	r30, r24
    3b0a:	e9 51       	subi	r30, 0x19	; 25
    3b0c:	fe 4f       	sbci	r31, 0xFE	; 254
    3b0e:	80 e1       	ldi	r24, 0x10	; 16
    3b10:	80 83       	st	Z, r24
    3b12:	81 81       	ldd	r24, Z+1	; 0x01
    3b14:	88 7f       	andi	r24, 0xF8	; 248
    3b16:	83 60       	ori	r24, 0x03	; 3
    3b18:	81 83       	std	Z+1, r24	; 0x01
    3b1a:	2d 8d       	ldd	r18, Y+29	; 0x1d
    3b1c:	3e 8d       	ldd	r19, Y+30	; 0x1e
    3b1e:	8b ec       	ldi	r24, 0xCB	; 203
    3b20:	90 e0       	ldi	r25, 0x00	; 0
    3b22:	fc 01       	movw	r30, r24
    3b24:	2e 9f       	mul	r18, r30
    3b26:	c0 01       	movw	r24, r0
    3b28:	2f 9f       	mul	r18, r31
    3b2a:	90 0d       	add	r25, r0
    3b2c:	3e 9f       	mul	r19, r30
    3b2e:	90 0d       	add	r25, r0
    3b30:	11 24       	eor	r1, r1
    3b32:	fc 01       	movw	r30, r24
    3b34:	e8 51       	subi	r30, 0x18	; 24
    3b36:	fe 4f       	sbci	r31, 0xFE	; 254
    3b38:	80 81       	ld	r24, Z
    3b3a:	87 70       	andi	r24, 0x07	; 7
    3b3c:	88 62       	ori	r24, 0x28	; 40
    3b3e:	80 83       	st	Z, r24
MyMelodyBox[Number].Table[11].Note= f2 	 ;MyMelodyBox[Number].Table[11].Notelength = 7;
    3b40:	2d 8d       	ldd	r18, Y+29	; 0x1d
    3b42:	3e 8d       	ldd	r19, Y+30	; 0x1e
    3b44:	8b ec       	ldi	r24, 0xCB	; 203
    3b46:	90 e0       	ldi	r25, 0x00	; 0
    3b48:	ac 01       	movw	r20, r24
    3b4a:	24 9f       	mul	r18, r20
    3b4c:	c0 01       	movw	r24, r0
    3b4e:	25 9f       	mul	r18, r21
    3b50:	90 0d       	add	r25, r0
    3b52:	34 9f       	mul	r19, r20
    3b54:	90 0d       	add	r25, r0
    3b56:	11 24       	eor	r1, r1
    3b58:	fc 01       	movw	r30, r24
    3b5a:	e7 51       	subi	r30, 0x17	; 23
    3b5c:	fe 4f       	sbci	r31, 0xFE	; 254
    3b5e:	8a eb       	ldi	r24, 0xBA	; 186
    3b60:	80 83       	st	Z, r24
    3b62:	81 81       	ldd	r24, Z+1	; 0x01
    3b64:	88 7f       	andi	r24, 0xF8	; 248
    3b66:	82 60       	ori	r24, 0x02	; 2
    3b68:	81 83       	std	Z+1, r24	; 0x01
    3b6a:	2d 8d       	ldd	r18, Y+29	; 0x1d
    3b6c:	3e 8d       	ldd	r19, Y+30	; 0x1e
    3b6e:	8b ec       	ldi	r24, 0xCB	; 203
    3b70:	90 e0       	ldi	r25, 0x00	; 0
    3b72:	fc 01       	movw	r30, r24
    3b74:	2e 9f       	mul	r18, r30
    3b76:	c0 01       	movw	r24, r0
    3b78:	2f 9f       	mul	r18, r31
    3b7a:	90 0d       	add	r25, r0
    3b7c:	3e 9f       	mul	r19, r30
    3b7e:	90 0d       	add	r25, r0
    3b80:	11 24       	eor	r1, r1
    3b82:	fc 01       	movw	r30, r24
    3b84:	e6 51       	subi	r30, 0x16	; 22
    3b86:	fe 4f       	sbci	r31, 0xFE	; 254
    3b88:	80 81       	ld	r24, Z
    3b8a:	87 70       	andi	r24, 0x07	; 7
    3b8c:	88 63       	ori	r24, 0x38	; 56
    3b8e:	80 83       	st	Z, r24
MyMelodyBox[Number].Table[12].Note= f2   ;MyMelodyBox[Number].Table[12].Notelength = 3;
    3b90:	2d 8d       	ldd	r18, Y+29	; 0x1d
    3b92:	3e 8d       	ldd	r19, Y+30	; 0x1e
    3b94:	8b ec       	ldi	r24, 0xCB	; 203
    3b96:	90 e0       	ldi	r25, 0x00	; 0
    3b98:	ac 01       	movw	r20, r24
    3b9a:	24 9f       	mul	r18, r20
    3b9c:	c0 01       	movw	r24, r0
    3b9e:	25 9f       	mul	r18, r21
    3ba0:	90 0d       	add	r25, r0
    3ba2:	34 9f       	mul	r19, r20
    3ba4:	90 0d       	add	r25, r0
    3ba6:	11 24       	eor	r1, r1
    3ba8:	fc 01       	movw	r30, r24
    3baa:	e5 51       	subi	r30, 0x15	; 21
    3bac:	fe 4f       	sbci	r31, 0xFE	; 254
    3bae:	8a eb       	ldi	r24, 0xBA	; 186
    3bb0:	80 83       	st	Z, r24
    3bb2:	81 81       	ldd	r24, Z+1	; 0x01
    3bb4:	88 7f       	andi	r24, 0xF8	; 248
    3bb6:	82 60       	ori	r24, 0x02	; 2
    3bb8:	81 83       	std	Z+1, r24	; 0x01
    3bba:	2d 8d       	ldd	r18, Y+29	; 0x1d
    3bbc:	3e 8d       	ldd	r19, Y+30	; 0x1e
    3bbe:	8b ec       	ldi	r24, 0xCB	; 203
    3bc0:	90 e0       	ldi	r25, 0x00	; 0
    3bc2:	fc 01       	movw	r30, r24
    3bc4:	2e 9f       	mul	r18, r30
    3bc6:	c0 01       	movw	r24, r0
    3bc8:	2f 9f       	mul	r18, r31
    3bca:	90 0d       	add	r25, r0
    3bcc:	3e 9f       	mul	r19, r30
    3bce:	90 0d       	add	r25, r0
    3bd0:	11 24       	eor	r1, r1
    3bd2:	fc 01       	movw	r30, r24
    3bd4:	e4 51       	subi	r30, 0x14	; 20
    3bd6:	fe 4f       	sbci	r31, 0xFE	; 254
    3bd8:	80 81       	ld	r24, Z
    3bda:	87 70       	andi	r24, 0x07	; 7
    3bdc:	88 61       	ori	r24, 0x18	; 24
    3bde:	80 83       	st	Z, r24
MyMelodyBox[Number].Table[13].Note= e2 	 ;MyMelodyBox[Number].Table[13].Notelength = 3;
    3be0:	2d 8d       	ldd	r18, Y+29	; 0x1d
    3be2:	3e 8d       	ldd	r19, Y+30	; 0x1e
    3be4:	8b ec       	ldi	r24, 0xCB	; 203
    3be6:	90 e0       	ldi	r25, 0x00	; 0
    3be8:	ac 01       	movw	r20, r24
    3bea:	24 9f       	mul	r18, r20
    3bec:	c0 01       	movw	r24, r0
    3bee:	25 9f       	mul	r18, r21
    3bf0:	90 0d       	add	r25, r0
    3bf2:	34 9f       	mul	r19, r20
    3bf4:	90 0d       	add	r25, r0
    3bf6:	11 24       	eor	r1, r1
    3bf8:	fc 01       	movw	r30, r24
    3bfa:	e3 51       	subi	r30, 0x13	; 19
    3bfc:	fe 4f       	sbci	r31, 0xFE	; 254
    3bfe:	83 e9       	ldi	r24, 0x93	; 147
    3c00:	80 83       	st	Z, r24
    3c02:	81 81       	ldd	r24, Z+1	; 0x01
    3c04:	88 7f       	andi	r24, 0xF8	; 248
    3c06:	82 60       	ori	r24, 0x02	; 2
    3c08:	81 83       	std	Z+1, r24	; 0x01
    3c0a:	2d 8d       	ldd	r18, Y+29	; 0x1d
    3c0c:	3e 8d       	ldd	r19, Y+30	; 0x1e
    3c0e:	8b ec       	ldi	r24, 0xCB	; 203
    3c10:	90 e0       	ldi	r25, 0x00	; 0
    3c12:	fc 01       	movw	r30, r24
    3c14:	2e 9f       	mul	r18, r30
    3c16:	c0 01       	movw	r24, r0
    3c18:	2f 9f       	mul	r18, r31
    3c1a:	90 0d       	add	r25, r0
    3c1c:	3e 9f       	mul	r19, r30
    3c1e:	90 0d       	add	r25, r0
    3c20:	11 24       	eor	r1, r1
    3c22:	fc 01       	movw	r30, r24
    3c24:	e2 51       	subi	r30, 0x12	; 18
    3c26:	fe 4f       	sbci	r31, 0xFE	; 254
    3c28:	80 81       	ld	r24, Z
    3c2a:	87 70       	andi	r24, 0x07	; 7
    3c2c:	88 61       	ori	r24, 0x18	; 24
    3c2e:	80 83       	st	Z, r24
MyMelodyBox[Number].Table[14].Note= f2 	 ;MyMelodyBox[Number].Table[14].Notelength = 7;
    3c30:	2d 8d       	ldd	r18, Y+29	; 0x1d
    3c32:	3e 8d       	ldd	r19, Y+30	; 0x1e
    3c34:	8b ec       	ldi	r24, 0xCB	; 203
    3c36:	90 e0       	ldi	r25, 0x00	; 0
    3c38:	ac 01       	movw	r20, r24
    3c3a:	24 9f       	mul	r18, r20
    3c3c:	c0 01       	movw	r24, r0
    3c3e:	25 9f       	mul	r18, r21
    3c40:	90 0d       	add	r25, r0
    3c42:	34 9f       	mul	r19, r20
    3c44:	90 0d       	add	r25, r0
    3c46:	11 24       	eor	r1, r1
    3c48:	fc 01       	movw	r30, r24
    3c4a:	e1 51       	subi	r30, 0x11	; 17
    3c4c:	fe 4f       	sbci	r31, 0xFE	; 254
    3c4e:	8a eb       	ldi	r24, 0xBA	; 186
    3c50:	80 83       	st	Z, r24
    3c52:	81 81       	ldd	r24, Z+1	; 0x01
    3c54:	88 7f       	andi	r24, 0xF8	; 248
    3c56:	82 60       	ori	r24, 0x02	; 2
    3c58:	81 83       	std	Z+1, r24	; 0x01
    3c5a:	2d 8d       	ldd	r18, Y+29	; 0x1d
    3c5c:	3e 8d       	ldd	r19, Y+30	; 0x1e
    3c5e:	8b ec       	ldi	r24, 0xCB	; 203
    3c60:	90 e0       	ldi	r25, 0x00	; 0
    3c62:	fc 01       	movw	r30, r24
    3c64:	2e 9f       	mul	r18, r30
    3c66:	c0 01       	movw	r24, r0
    3c68:	2f 9f       	mul	r18, r31
    3c6a:	90 0d       	add	r25, r0
    3c6c:	3e 9f       	mul	r19, r30
    3c6e:	90 0d       	add	r25, r0
    3c70:	11 24       	eor	r1, r1
    3c72:	fc 01       	movw	r30, r24
    3c74:	e0 51       	subi	r30, 0x10	; 16
    3c76:	fe 4f       	sbci	r31, 0xFE	; 254
    3c78:	80 81       	ld	r24, Z
    3c7a:	87 70       	andi	r24, 0x07	; 7
    3c7c:	88 63       	ori	r24, 0x38	; 56
    3c7e:	80 83       	st	Z, r24
MyMelodyBox[Number].Table[15].Note= d2 	 ;MyMelodyBox[Number].Table[15].Notelength = 5;	 
    3c80:	2d 8d       	ldd	r18, Y+29	; 0x1d
    3c82:	3e 8d       	ldd	r19, Y+30	; 0x1e
    3c84:	8b ec       	ldi	r24, 0xCB	; 203
    3c86:	90 e0       	ldi	r25, 0x00	; 0
    3c88:	ac 01       	movw	r20, r24
    3c8a:	24 9f       	mul	r18, r20
    3c8c:	c0 01       	movw	r24, r0
    3c8e:	25 9f       	mul	r18, r21
    3c90:	90 0d       	add	r25, r0
    3c92:	34 9f       	mul	r19, r20
    3c94:	90 0d       	add	r25, r0
    3c96:	11 24       	eor	r1, r1
    3c98:	fc 01       	movw	r30, r24
    3c9a:	ef 50       	subi	r30, 0x0F	; 15
    3c9c:	fe 4f       	sbci	r31, 0xFE	; 254
    3c9e:	8b e4       	ldi	r24, 0x4B	; 75
    3ca0:	80 83       	st	Z, r24
    3ca2:	81 81       	ldd	r24, Z+1	; 0x01
    3ca4:	88 7f       	andi	r24, 0xF8	; 248
    3ca6:	82 60       	ori	r24, 0x02	; 2
    3ca8:	81 83       	std	Z+1, r24	; 0x01
    3caa:	2d 8d       	ldd	r18, Y+29	; 0x1d
    3cac:	3e 8d       	ldd	r19, Y+30	; 0x1e
    3cae:	8b ec       	ldi	r24, 0xCB	; 203
    3cb0:	90 e0       	ldi	r25, 0x00	; 0
    3cb2:	fc 01       	movw	r30, r24
    3cb4:	2e 9f       	mul	r18, r30
    3cb6:	c0 01       	movw	r24, r0
    3cb8:	2f 9f       	mul	r18, r31
    3cba:	90 0d       	add	r25, r0
    3cbc:	3e 9f       	mul	r19, r30
    3cbe:	90 0d       	add	r25, r0
    3cc0:	11 24       	eor	r1, r1
    3cc2:	fc 01       	movw	r30, r24
    3cc4:	ee 50       	subi	r30, 0x0E	; 14
    3cc6:	fe 4f       	sbci	r31, 0xFE	; 254
    3cc8:	80 81       	ld	r24, Z
    3cca:	87 70       	andi	r24, 0x07	; 7
    3ccc:	88 62       	ori	r24, 0x28	; 40
    3cce:	80 83       	st	Z, r24
MyMelodyBox[Number].Table[16].Note= e2 	 ;MyMelodyBox[Number].Table[16].Notelength = 5;
    3cd0:	2d 8d       	ldd	r18, Y+29	; 0x1d
    3cd2:	3e 8d       	ldd	r19, Y+30	; 0x1e
    3cd4:	8b ec       	ldi	r24, 0xCB	; 203
    3cd6:	90 e0       	ldi	r25, 0x00	; 0
    3cd8:	ac 01       	movw	r20, r24
    3cda:	24 9f       	mul	r18, r20
    3cdc:	c0 01       	movw	r24, r0
    3cde:	25 9f       	mul	r18, r21
    3ce0:	90 0d       	add	r25, r0
    3ce2:	34 9f       	mul	r19, r20
    3ce4:	90 0d       	add	r25, r0
    3ce6:	11 24       	eor	r1, r1
    3ce8:	fc 01       	movw	r30, r24
    3cea:	ed 50       	subi	r30, 0x0D	; 13
    3cec:	fe 4f       	sbci	r31, 0xFE	; 254
    3cee:	83 e9       	ldi	r24, 0x93	; 147
    3cf0:	80 83       	st	Z, r24
    3cf2:	81 81       	ldd	r24, Z+1	; 0x01
    3cf4:	88 7f       	andi	r24, 0xF8	; 248
    3cf6:	82 60       	ori	r24, 0x02	; 2
    3cf8:	81 83       	std	Z+1, r24	; 0x01
    3cfa:	2d 8d       	ldd	r18, Y+29	; 0x1d
    3cfc:	3e 8d       	ldd	r19, Y+30	; 0x1e
    3cfe:	8b ec       	ldi	r24, 0xCB	; 203
    3d00:	90 e0       	ldi	r25, 0x00	; 0
    3d02:	fc 01       	movw	r30, r24
    3d04:	2e 9f       	mul	r18, r30
    3d06:	c0 01       	movw	r24, r0
    3d08:	2f 9f       	mul	r18, r31
    3d0a:	90 0d       	add	r25, r0
    3d0c:	3e 9f       	mul	r19, r30
    3d0e:	90 0d       	add	r25, r0
    3d10:	11 24       	eor	r1, r1
    3d12:	fc 01       	movw	r30, r24
    3d14:	ec 50       	subi	r30, 0x0C	; 12
    3d16:	fe 4f       	sbci	r31, 0xFE	; 254
    3d18:	80 81       	ld	r24, Z
    3d1a:	87 70       	andi	r24, 0x07	; 7
    3d1c:	88 62       	ori	r24, 0x28	; 40
    3d1e:	80 83       	st	Z, r24
MyMelodyBox[Number].Table[17].Note= f2 	 ;MyMelodyBox[Number].Table[17].Notelength = 7;
    3d20:	2d 8d       	ldd	r18, Y+29	; 0x1d
    3d22:	3e 8d       	ldd	r19, Y+30	; 0x1e
    3d24:	8b ec       	ldi	r24, 0xCB	; 203
    3d26:	90 e0       	ldi	r25, 0x00	; 0
    3d28:	ac 01       	movw	r20, r24
    3d2a:	24 9f       	mul	r18, r20
    3d2c:	c0 01       	movw	r24, r0
    3d2e:	25 9f       	mul	r18, r21
    3d30:	90 0d       	add	r25, r0
    3d32:	34 9f       	mul	r19, r20
    3d34:	90 0d       	add	r25, r0
    3d36:	11 24       	eor	r1, r1
    3d38:	fc 01       	movw	r30, r24
    3d3a:	eb 50       	subi	r30, 0x0B	; 11
    3d3c:	fe 4f       	sbci	r31, 0xFE	; 254
    3d3e:	8a eb       	ldi	r24, 0xBA	; 186
    3d40:	80 83       	st	Z, r24
    3d42:	81 81       	ldd	r24, Z+1	; 0x01
    3d44:	88 7f       	andi	r24, 0xF8	; 248
    3d46:	82 60       	ori	r24, 0x02	; 2
    3d48:	81 83       	std	Z+1, r24	; 0x01
    3d4a:	2d 8d       	ldd	r18, Y+29	; 0x1d
    3d4c:	3e 8d       	ldd	r19, Y+30	; 0x1e
    3d4e:	8b ec       	ldi	r24, 0xCB	; 203
    3d50:	90 e0       	ldi	r25, 0x00	; 0
    3d52:	fc 01       	movw	r30, r24
    3d54:	2e 9f       	mul	r18, r30
    3d56:	c0 01       	movw	r24, r0
    3d58:	2f 9f       	mul	r18, r31
    3d5a:	90 0d       	add	r25, r0
    3d5c:	3e 9f       	mul	r19, r30
    3d5e:	90 0d       	add	r25, r0
    3d60:	11 24       	eor	r1, r1
    3d62:	fc 01       	movw	r30, r24
    3d64:	ea 50       	subi	r30, 0x0A	; 10
    3d66:	fe 4f       	sbci	r31, 0xFE	; 254
    3d68:	80 81       	ld	r24, Z
    3d6a:	87 70       	andi	r24, 0x07	; 7
    3d6c:	88 63       	ori	r24, 0x38	; 56
    3d6e:	80 83       	st	Z, r24
MyMelodyBox[Number].Table[18].Note= e2 	 ;MyMelodyBox[Number].Table[18].Notelength = 2;
    3d70:	2d 8d       	ldd	r18, Y+29	; 0x1d
    3d72:	3e 8d       	ldd	r19, Y+30	; 0x1e
    3d74:	8b ec       	ldi	r24, 0xCB	; 203
    3d76:	90 e0       	ldi	r25, 0x00	; 0
    3d78:	ac 01       	movw	r20, r24
    3d7a:	24 9f       	mul	r18, r20
    3d7c:	c0 01       	movw	r24, r0
    3d7e:	25 9f       	mul	r18, r21
    3d80:	90 0d       	add	r25, r0
    3d82:	34 9f       	mul	r19, r20
    3d84:	90 0d       	add	r25, r0
    3d86:	11 24       	eor	r1, r1
    3d88:	fc 01       	movw	r30, r24
    3d8a:	e9 50       	subi	r30, 0x09	; 9
    3d8c:	fe 4f       	sbci	r31, 0xFE	; 254
    3d8e:	83 e9       	ldi	r24, 0x93	; 147
    3d90:	80 83       	st	Z, r24
    3d92:	81 81       	ldd	r24, Z+1	; 0x01
    3d94:	88 7f       	andi	r24, 0xF8	; 248
    3d96:	82 60       	ori	r24, 0x02	; 2
    3d98:	81 83       	std	Z+1, r24	; 0x01
    3d9a:	2d 8d       	ldd	r18, Y+29	; 0x1d
    3d9c:	3e 8d       	ldd	r19, Y+30	; 0x1e
    3d9e:	8b ec       	ldi	r24, 0xCB	; 203
    3da0:	90 e0       	ldi	r25, 0x00	; 0
    3da2:	fc 01       	movw	r30, r24
    3da4:	2e 9f       	mul	r18, r30
    3da6:	c0 01       	movw	r24, r0
    3da8:	2f 9f       	mul	r18, r31
    3daa:	90 0d       	add	r25, r0
    3dac:	3e 9f       	mul	r19, r30
    3dae:	90 0d       	add	r25, r0
    3db0:	11 24       	eor	r1, r1
    3db2:	fc 01       	movw	r30, r24
    3db4:	e8 50       	subi	r30, 0x08	; 8
    3db6:	fe 4f       	sbci	r31, 0xFE	; 254
    3db8:	80 81       	ld	r24, Z
    3dba:	87 70       	andi	r24, 0x07	; 7
    3dbc:	80 61       	ori	r24, 0x10	; 16
    3dbe:	80 83       	st	Z, r24
MyMelodyBox[Number].Table[19].Note= f2 	 ;MyMelodyBox[Number].Table[19].Notelength = 4;
    3dc0:	2d 8d       	ldd	r18, Y+29	; 0x1d
    3dc2:	3e 8d       	ldd	r19, Y+30	; 0x1e
    3dc4:	8b ec       	ldi	r24, 0xCB	; 203
    3dc6:	90 e0       	ldi	r25, 0x00	; 0
    3dc8:	ac 01       	movw	r20, r24
    3dca:	24 9f       	mul	r18, r20
    3dcc:	c0 01       	movw	r24, r0
    3dce:	25 9f       	mul	r18, r21
    3dd0:	90 0d       	add	r25, r0
    3dd2:	34 9f       	mul	r19, r20
    3dd4:	90 0d       	add	r25, r0
    3dd6:	11 24       	eor	r1, r1
    3dd8:	fc 01       	movw	r30, r24
    3dda:	e7 50       	subi	r30, 0x07	; 7
    3ddc:	fe 4f       	sbci	r31, 0xFE	; 254
    3dde:	8a eb       	ldi	r24, 0xBA	; 186
    3de0:	80 83       	st	Z, r24
    3de2:	81 81       	ldd	r24, Z+1	; 0x01
    3de4:	88 7f       	andi	r24, 0xF8	; 248
    3de6:	82 60       	ori	r24, 0x02	; 2
    3de8:	81 83       	std	Z+1, r24	; 0x01
    3dea:	2d 8d       	ldd	r18, Y+29	; 0x1d
    3dec:	3e 8d       	ldd	r19, Y+30	; 0x1e
    3dee:	8b ec       	ldi	r24, 0xCB	; 203
    3df0:	90 e0       	ldi	r25, 0x00	; 0
    3df2:	fc 01       	movw	r30, r24
    3df4:	2e 9f       	mul	r18, r30
    3df6:	c0 01       	movw	r24, r0
    3df8:	2f 9f       	mul	r18, r31
    3dfa:	90 0d       	add	r25, r0
    3dfc:	3e 9f       	mul	r19, r30
    3dfe:	90 0d       	add	r25, r0
    3e00:	11 24       	eor	r1, r1
    3e02:	fc 01       	movw	r30, r24
    3e04:	e6 50       	subi	r30, 0x06	; 6
    3e06:	fe 4f       	sbci	r31, 0xFE	; 254
    3e08:	80 81       	ld	r24, Z
    3e0a:	87 70       	andi	r24, 0x07	; 7
    3e0c:	80 62       	ori	r24, 0x20	; 32
    3e0e:	80 83       	st	Z, r24
MyMelodyBox[Number].Table[20].Note =g2	 ;MyMelodyBox[Number].Table[20].Notelength = 4;
    3e10:	2d 8d       	ldd	r18, Y+29	; 0x1d
    3e12:	3e 8d       	ldd	r19, Y+30	; 0x1e
    3e14:	8b ec       	ldi	r24, 0xCB	; 203
    3e16:	90 e0       	ldi	r25, 0x00	; 0
    3e18:	ac 01       	movw	r20, r24
    3e1a:	24 9f       	mul	r18, r20
    3e1c:	c0 01       	movw	r24, r0
    3e1e:	25 9f       	mul	r18, r21
    3e20:	90 0d       	add	r25, r0
    3e22:	34 9f       	mul	r19, r20
    3e24:	90 0d       	add	r25, r0
    3e26:	11 24       	eor	r1, r1
    3e28:	fc 01       	movw	r30, r24
    3e2a:	e5 50       	subi	r30, 0x05	; 5
    3e2c:	fe 4f       	sbci	r31, 0xFE	; 254
    3e2e:	80 e1       	ldi	r24, 0x10	; 16
    3e30:	80 83       	st	Z, r24
    3e32:	81 81       	ldd	r24, Z+1	; 0x01
    3e34:	88 7f       	andi	r24, 0xF8	; 248
    3e36:	83 60       	ori	r24, 0x03	; 3
    3e38:	81 83       	std	Z+1, r24	; 0x01
    3e3a:	2d 8d       	ldd	r18, Y+29	; 0x1d
    3e3c:	3e 8d       	ldd	r19, Y+30	; 0x1e
    3e3e:	8b ec       	ldi	r24, 0xCB	; 203
    3e40:	90 e0       	ldi	r25, 0x00	; 0
    3e42:	fc 01       	movw	r30, r24
    3e44:	2e 9f       	mul	r18, r30
    3e46:	c0 01       	movw	r24, r0
    3e48:	2f 9f       	mul	r18, r31
    3e4a:	90 0d       	add	r25, r0
    3e4c:	3e 9f       	mul	r19, r30
    3e4e:	90 0d       	add	r25, r0
    3e50:	11 24       	eor	r1, r1
    3e52:	fc 01       	movw	r30, r24
    3e54:	e4 50       	subi	r30, 0x04	; 4
    3e56:	fe 4f       	sbci	r31, 0xFE	; 254
    3e58:	80 81       	ld	r24, Z
    3e5a:	87 70       	andi	r24, 0x07	; 7
    3e5c:	80 62       	ori	r24, 0x20	; 32
    3e5e:	80 83       	st	Z, r24
MyMelodyBox[Number].Table[21].Note =gis2 	 ;MyMelodyBox[Number].Table[21].Notelength = 3;
    3e60:	2d 8d       	ldd	r18, Y+29	; 0x1d
    3e62:	3e 8d       	ldd	r19, Y+30	; 0x1e
    3e64:	8b ec       	ldi	r24, 0xCB	; 203
    3e66:	90 e0       	ldi	r25, 0x00	; 0
    3e68:	ac 01       	movw	r20, r24
    3e6a:	24 9f       	mul	r18, r20
    3e6c:	c0 01       	movw	r24, r0
    3e6e:	25 9f       	mul	r18, r21
    3e70:	90 0d       	add	r25, r0
    3e72:	34 9f       	mul	r19, r20
    3e74:	90 0d       	add	r25, r0
    3e76:	11 24       	eor	r1, r1
    3e78:	fc 01       	movw	r30, r24
    3e7a:	e3 50       	subi	r30, 0x03	; 3
    3e7c:	fe 4f       	sbci	r31, 0xFE	; 254
    3e7e:	8e e3       	ldi	r24, 0x3E	; 62
    3e80:	80 83       	st	Z, r24
    3e82:	81 81       	ldd	r24, Z+1	; 0x01
    3e84:	88 7f       	andi	r24, 0xF8	; 248
    3e86:	83 60       	ori	r24, 0x03	; 3
    3e88:	81 83       	std	Z+1, r24	; 0x01
    3e8a:	2d 8d       	ldd	r18, Y+29	; 0x1d
    3e8c:	3e 8d       	ldd	r19, Y+30	; 0x1e
    3e8e:	8b ec       	ldi	r24, 0xCB	; 203
    3e90:	90 e0       	ldi	r25, 0x00	; 0
    3e92:	fc 01       	movw	r30, r24
    3e94:	2e 9f       	mul	r18, r30
    3e96:	c0 01       	movw	r24, r0
    3e98:	2f 9f       	mul	r18, r31
    3e9a:	90 0d       	add	r25, r0
    3e9c:	3e 9f       	mul	r19, r30
    3e9e:	90 0d       	add	r25, r0
    3ea0:	11 24       	eor	r1, r1
    3ea2:	fc 01       	movw	r30, r24
    3ea4:	e2 50       	subi	r30, 0x02	; 2
    3ea6:	fe 4f       	sbci	r31, 0xFE	; 254
    3ea8:	80 81       	ld	r24, Z
    3eaa:	87 70       	andi	r24, 0x07	; 7
    3eac:	88 61       	ori	r24, 0x18	; 24
    3eae:	80 83       	st	Z, r24
MyMelodyBox[Number].Table[22].Note = g2	 ;MyMelodyBox[Number].Table[22].Notelength = 5;
    3eb0:	2d 8d       	ldd	r18, Y+29	; 0x1d
    3eb2:	3e 8d       	ldd	r19, Y+30	; 0x1e
    3eb4:	8b ec       	ldi	r24, 0xCB	; 203
    3eb6:	90 e0       	ldi	r25, 0x00	; 0
    3eb8:	ac 01       	movw	r20, r24
    3eba:	24 9f       	mul	r18, r20
    3ebc:	c0 01       	movw	r24, r0
    3ebe:	25 9f       	mul	r18, r21
    3ec0:	90 0d       	add	r25, r0
    3ec2:	34 9f       	mul	r19, r20
    3ec4:	90 0d       	add	r25, r0
    3ec6:	11 24       	eor	r1, r1
    3ec8:	fc 01       	movw	r30, r24
    3eca:	e1 50       	subi	r30, 0x01	; 1
    3ecc:	fe 4f       	sbci	r31, 0xFE	; 254
    3ece:	80 e1       	ldi	r24, 0x10	; 16
    3ed0:	80 83       	st	Z, r24
    3ed2:	81 81       	ldd	r24, Z+1	; 0x01
    3ed4:	88 7f       	andi	r24, 0xF8	; 248
    3ed6:	83 60       	ori	r24, 0x03	; 3
    3ed8:	81 83       	std	Z+1, r24	; 0x01
    3eda:	2d 8d       	ldd	r18, Y+29	; 0x1d
    3edc:	3e 8d       	ldd	r19, Y+30	; 0x1e
    3ede:	8b ec       	ldi	r24, 0xCB	; 203
    3ee0:	90 e0       	ldi	r25, 0x00	; 0
    3ee2:	fc 01       	movw	r30, r24
    3ee4:	2e 9f       	mul	r18, r30
    3ee6:	c0 01       	movw	r24, r0
    3ee8:	2f 9f       	mul	r18, r31
    3eea:	90 0d       	add	r25, r0
    3eec:	3e 9f       	mul	r19, r30
    3eee:	90 0d       	add	r25, r0
    3ef0:	11 24       	eor	r1, r1
    3ef2:	fc 01       	movw	r30, r24
    3ef4:	e0 50       	subi	r30, 0x00	; 0
    3ef6:	fe 4f       	sbci	r31, 0xFE	; 254
    3ef8:	80 81       	ld	r24, Z
    3efa:	87 70       	andi	r24, 0x07	; 7
    3efc:	88 62       	ori	r24, 0x28	; 40
    3efe:	80 83       	st	Z, r24
MyMelodyBox[Number].Table[23].Note = f2	 ;MyMelodyBox[Number].Table[23].Notelength = 5;
    3f00:	2d 8d       	ldd	r18, Y+29	; 0x1d
    3f02:	3e 8d       	ldd	r19, Y+30	; 0x1e
    3f04:	8b ec       	ldi	r24, 0xCB	; 203
    3f06:	90 e0       	ldi	r25, 0x00	; 0
    3f08:	ac 01       	movw	r20, r24
    3f0a:	24 9f       	mul	r18, r20
    3f0c:	c0 01       	movw	r24, r0
    3f0e:	25 9f       	mul	r18, r21
    3f10:	90 0d       	add	r25, r0
    3f12:	34 9f       	mul	r19, r20
    3f14:	90 0d       	add	r25, r0
    3f16:	11 24       	eor	r1, r1
    3f18:	fc 01       	movw	r30, r24
    3f1a:	ef 5f       	subi	r30, 0xFF	; 255
    3f1c:	fd 4f       	sbci	r31, 0xFD	; 253
    3f1e:	8a eb       	ldi	r24, 0xBA	; 186
    3f20:	80 83       	st	Z, r24
    3f22:	81 81       	ldd	r24, Z+1	; 0x01
    3f24:	88 7f       	andi	r24, 0xF8	; 248
    3f26:	82 60       	ori	r24, 0x02	; 2
    3f28:	81 83       	std	Z+1, r24	; 0x01
    3f2a:	2d 8d       	ldd	r18, Y+29	; 0x1d
    3f2c:	3e 8d       	ldd	r19, Y+30	; 0x1e
    3f2e:	8b ec       	ldi	r24, 0xCB	; 203
    3f30:	90 e0       	ldi	r25, 0x00	; 0
    3f32:	fc 01       	movw	r30, r24
    3f34:	2e 9f       	mul	r18, r30
    3f36:	c0 01       	movw	r24, r0
    3f38:	2f 9f       	mul	r18, r31
    3f3a:	90 0d       	add	r25, r0
    3f3c:	3e 9f       	mul	r19, r30
    3f3e:	90 0d       	add	r25, r0
    3f40:	11 24       	eor	r1, r1
    3f42:	fc 01       	movw	r30, r24
    3f44:	ee 5f       	subi	r30, 0xFE	; 254
    3f46:	fd 4f       	sbci	r31, 0xFD	; 253
    3f48:	80 81       	ld	r24, Z
    3f4a:	87 70       	andi	r24, 0x07	; 7
    3f4c:	88 62       	ori	r24, 0x28	; 40
    3f4e:	80 83       	st	Z, r24
MyMelodyBox[Number].Table[24].Note = e2	 ;MyMelodyBox[Number].Table[24].Notelength = 7;
    3f50:	2d 8d       	ldd	r18, Y+29	; 0x1d
    3f52:	3e 8d       	ldd	r19, Y+30	; 0x1e
    3f54:	8b ec       	ldi	r24, 0xCB	; 203
    3f56:	90 e0       	ldi	r25, 0x00	; 0
    3f58:	ac 01       	movw	r20, r24
    3f5a:	24 9f       	mul	r18, r20
    3f5c:	c0 01       	movw	r24, r0
    3f5e:	25 9f       	mul	r18, r21
    3f60:	90 0d       	add	r25, r0
    3f62:	34 9f       	mul	r19, r20
    3f64:	90 0d       	add	r25, r0
    3f66:	11 24       	eor	r1, r1
    3f68:	fc 01       	movw	r30, r24
    3f6a:	ed 5f       	subi	r30, 0xFD	; 253
    3f6c:	fd 4f       	sbci	r31, 0xFD	; 253
    3f6e:	83 e9       	ldi	r24, 0x93	; 147
    3f70:	80 83       	st	Z, r24
    3f72:	81 81       	ldd	r24, Z+1	; 0x01
    3f74:	88 7f       	andi	r24, 0xF8	; 248
    3f76:	82 60       	ori	r24, 0x02	; 2
    3f78:	81 83       	std	Z+1, r24	; 0x01
    3f7a:	2d 8d       	ldd	r18, Y+29	; 0x1d
    3f7c:	3e 8d       	ldd	r19, Y+30	; 0x1e
    3f7e:	8b ec       	ldi	r24, 0xCB	; 203
    3f80:	90 e0       	ldi	r25, 0x00	; 0
    3f82:	fc 01       	movw	r30, r24
    3f84:	2e 9f       	mul	r18, r30
    3f86:	c0 01       	movw	r24, r0
    3f88:	2f 9f       	mul	r18, r31
    3f8a:	90 0d       	add	r25, r0
    3f8c:	3e 9f       	mul	r19, r30
    3f8e:	90 0d       	add	r25, r0
    3f90:	11 24       	eor	r1, r1
    3f92:	fc 01       	movw	r30, r24
    3f94:	ec 5f       	subi	r30, 0xFC	; 252
    3f96:	fd 4f       	sbci	r31, 0xFD	; 253
    3f98:	80 81       	ld	r24, Z
    3f9a:	87 70       	andi	r24, 0x07	; 7
    3f9c:	88 63       	ori	r24, 0x38	; 56
    3f9e:	80 83       	st	Z, r24
MyMelodyBox[Number].Table[25].Note = f2   ;MyMelodyBox[Number].Table[25].Notelength  = 3;
    3fa0:	2d 8d       	ldd	r18, Y+29	; 0x1d
    3fa2:	3e 8d       	ldd	r19, Y+30	; 0x1e
    3fa4:	8b ec       	ldi	r24, 0xCB	; 203
    3fa6:	90 e0       	ldi	r25, 0x00	; 0
    3fa8:	ac 01       	movw	r20, r24
    3faa:	24 9f       	mul	r18, r20
    3fac:	c0 01       	movw	r24, r0
    3fae:	25 9f       	mul	r18, r21
    3fb0:	90 0d       	add	r25, r0
    3fb2:	34 9f       	mul	r19, r20
    3fb4:	90 0d       	add	r25, r0
    3fb6:	11 24       	eor	r1, r1
    3fb8:	fc 01       	movw	r30, r24
    3fba:	eb 5f       	subi	r30, 0xFB	; 251
    3fbc:	fd 4f       	sbci	r31, 0xFD	; 253
    3fbe:	8a eb       	ldi	r24, 0xBA	; 186
    3fc0:	80 83       	st	Z, r24
    3fc2:	81 81       	ldd	r24, Z+1	; 0x01
    3fc4:	88 7f       	andi	r24, 0xF8	; 248
    3fc6:	82 60       	ori	r24, 0x02	; 2
    3fc8:	81 83       	std	Z+1, r24	; 0x01
    3fca:	2d 8d       	ldd	r18, Y+29	; 0x1d
    3fcc:	3e 8d       	ldd	r19, Y+30	; 0x1e
    3fce:	8b ec       	ldi	r24, 0xCB	; 203
    3fd0:	90 e0       	ldi	r25, 0x00	; 0
    3fd2:	fc 01       	movw	r30, r24
    3fd4:	2e 9f       	mul	r18, r30
    3fd6:	c0 01       	movw	r24, r0
    3fd8:	2f 9f       	mul	r18, r31
    3fda:	90 0d       	add	r25, r0
    3fdc:	3e 9f       	mul	r19, r30
    3fde:	90 0d       	add	r25, r0
    3fe0:	11 24       	eor	r1, r1
    3fe2:	fc 01       	movw	r30, r24
    3fe4:	ea 5f       	subi	r30, 0xFA	; 250
    3fe6:	fd 4f       	sbci	r31, 0xFD	; 253
    3fe8:	80 81       	ld	r24, Z
    3fea:	87 70       	andi	r24, 0x07	; 7
    3fec:	88 61       	ori	r24, 0x18	; 24
    3fee:	80 83       	st	Z, r24
MyMelodyBox[Number].Table[26].Note = e2   ;MyMelodyBox[Number].Table[26].Notelength  = 3;
    3ff0:	2d 8d       	ldd	r18, Y+29	; 0x1d
    3ff2:	3e 8d       	ldd	r19, Y+30	; 0x1e
    3ff4:	8b ec       	ldi	r24, 0xCB	; 203
    3ff6:	90 e0       	ldi	r25, 0x00	; 0
    3ff8:	ac 01       	movw	r20, r24
    3ffa:	24 9f       	mul	r18, r20
    3ffc:	c0 01       	movw	r24, r0
    3ffe:	25 9f       	mul	r18, r21
    4000:	90 0d       	add	r25, r0
    4002:	34 9f       	mul	r19, r20
    4004:	90 0d       	add	r25, r0
    4006:	11 24       	eor	r1, r1
    4008:	fc 01       	movw	r30, r24
    400a:	e9 5f       	subi	r30, 0xF9	; 249
    400c:	fd 4f       	sbci	r31, 0xFD	; 253
    400e:	83 e9       	ldi	r24, 0x93	; 147
    4010:	80 83       	st	Z, r24
    4012:	81 81       	ldd	r24, Z+1	; 0x01
    4014:	88 7f       	andi	r24, 0xF8	; 248
    4016:	82 60       	ori	r24, 0x02	; 2
    4018:	81 83       	std	Z+1, r24	; 0x01
    401a:	2d 8d       	ldd	r18, Y+29	; 0x1d
    401c:	3e 8d       	ldd	r19, Y+30	; 0x1e
    401e:	8b ec       	ldi	r24, 0xCB	; 203
    4020:	90 e0       	ldi	r25, 0x00	; 0
    4022:	fc 01       	movw	r30, r24
    4024:	2e 9f       	mul	r18, r30
    4026:	c0 01       	movw	r24, r0
    4028:	2f 9f       	mul	r18, r31
    402a:	90 0d       	add	r25, r0
    402c:	3e 9f       	mul	r19, r30
    402e:	90 0d       	add	r25, r0
    4030:	11 24       	eor	r1, r1
    4032:	fc 01       	movw	r30, r24
    4034:	e8 5f       	subi	r30, 0xF8	; 248
    4036:	fd 4f       	sbci	r31, 0xFD	; 253
    4038:	80 81       	ld	r24, Z
    403a:	87 70       	andi	r24, 0x07	; 7
    403c:	88 61       	ori	r24, 0x18	; 24
    403e:	80 83       	st	Z, r24
MyMelodyBox[Number].Table[27].Note = d2   ;MyMelodyBox[Number].Table[27].Notelength  = 4;
    4040:	2d 8d       	ldd	r18, Y+29	; 0x1d
    4042:	3e 8d       	ldd	r19, Y+30	; 0x1e
    4044:	8b ec       	ldi	r24, 0xCB	; 203
    4046:	90 e0       	ldi	r25, 0x00	; 0
    4048:	ac 01       	movw	r20, r24
    404a:	24 9f       	mul	r18, r20
    404c:	c0 01       	movw	r24, r0
    404e:	25 9f       	mul	r18, r21
    4050:	90 0d       	add	r25, r0
    4052:	34 9f       	mul	r19, r20
    4054:	90 0d       	add	r25, r0
    4056:	11 24       	eor	r1, r1
    4058:	fc 01       	movw	r30, r24
    405a:	e7 5f       	subi	r30, 0xF7	; 247
    405c:	fd 4f       	sbci	r31, 0xFD	; 253
    405e:	8b e4       	ldi	r24, 0x4B	; 75
    4060:	80 83       	st	Z, r24
    4062:	81 81       	ldd	r24, Z+1	; 0x01
    4064:	88 7f       	andi	r24, 0xF8	; 248
    4066:	82 60       	ori	r24, 0x02	; 2
    4068:	81 83       	std	Z+1, r24	; 0x01
    406a:	2d 8d       	ldd	r18, Y+29	; 0x1d
    406c:	3e 8d       	ldd	r19, Y+30	; 0x1e
    406e:	8b ec       	ldi	r24, 0xCB	; 203
    4070:	90 e0       	ldi	r25, 0x00	; 0
    4072:	fc 01       	movw	r30, r24
    4074:	2e 9f       	mul	r18, r30
    4076:	c0 01       	movw	r24, r0
    4078:	2f 9f       	mul	r18, r31
    407a:	90 0d       	add	r25, r0
    407c:	3e 9f       	mul	r19, r30
    407e:	90 0d       	add	r25, r0
    4080:	11 24       	eor	r1, r1
    4082:	fc 01       	movw	r30, r24
    4084:	e6 5f       	subi	r30, 0xF6	; 246
    4086:	fd 4f       	sbci	r31, 0xFD	; 253
    4088:	80 81       	ld	r24, Z
    408a:	87 70       	andi	r24, 0x07	; 7
    408c:	80 62       	ori	r24, 0x20	; 32
    408e:	80 83       	st	Z, r24
MyMelodyBox[Number].Table[28].Note = g1   ;MyMelodyBox[Number].Table[28].Notelength  = 5;
    4090:	2d 8d       	ldd	r18, Y+29	; 0x1d
    4092:	3e 8d       	ldd	r19, Y+30	; 0x1e
    4094:	8b ec       	ldi	r24, 0xCB	; 203
    4096:	90 e0       	ldi	r25, 0x00	; 0
    4098:	ac 01       	movw	r20, r24
    409a:	24 9f       	mul	r18, r20
    409c:	c0 01       	movw	r24, r0
    409e:	25 9f       	mul	r18, r21
    40a0:	90 0d       	add	r25, r0
    40a2:	34 9f       	mul	r19, r20
    40a4:	90 0d       	add	r25, r0
    40a6:	11 24       	eor	r1, r1
    40a8:	fc 01       	movw	r30, r24
    40aa:	e5 5f       	subi	r30, 0xF5	; 245
    40ac:	fd 4f       	sbci	r31, 0xFD	; 253
    40ae:	88 e8       	ldi	r24, 0x88	; 136
    40b0:	80 83       	st	Z, r24
    40b2:	81 81       	ldd	r24, Z+1	; 0x01
    40b4:	88 7f       	andi	r24, 0xF8	; 248
    40b6:	81 60       	ori	r24, 0x01	; 1
    40b8:	81 83       	std	Z+1, r24	; 0x01
    40ba:	2d 8d       	ldd	r18, Y+29	; 0x1d
    40bc:	3e 8d       	ldd	r19, Y+30	; 0x1e
    40be:	8b ec       	ldi	r24, 0xCB	; 203
    40c0:	90 e0       	ldi	r25, 0x00	; 0
    40c2:	fc 01       	movw	r30, r24
    40c4:	2e 9f       	mul	r18, r30
    40c6:	c0 01       	movw	r24, r0
    40c8:	2f 9f       	mul	r18, r31
    40ca:	90 0d       	add	r25, r0
    40cc:	3e 9f       	mul	r19, r30
    40ce:	90 0d       	add	r25, r0
    40d0:	11 24       	eor	r1, r1
    40d2:	fc 01       	movw	r30, r24
    40d4:	e4 5f       	subi	r30, 0xF4	; 244
    40d6:	fd 4f       	sbci	r31, 0xFD	; 253
    40d8:	80 81       	ld	r24, Z
    40da:	87 70       	andi	r24, 0x07	; 7
    40dc:	88 62       	ori	r24, 0x28	; 40
    40de:	80 83       	st	Z, r24
MyMelodyBox[Number].Table[29].Note = a1   ;MyMelodyBox[Number].Table[29].Notelength  = 5; 
    40e0:	2d 8d       	ldd	r18, Y+29	; 0x1d
    40e2:	3e 8d       	ldd	r19, Y+30	; 0x1e
    40e4:	8b ec       	ldi	r24, 0xCB	; 203
    40e6:	90 e0       	ldi	r25, 0x00	; 0
    40e8:	ac 01       	movw	r20, r24
    40ea:	24 9f       	mul	r18, r20
    40ec:	c0 01       	movw	r24, r0
    40ee:	25 9f       	mul	r18, r21
    40f0:	90 0d       	add	r25, r0
    40f2:	34 9f       	mul	r19, r20
    40f4:	90 0d       	add	r25, r0
    40f6:	11 24       	eor	r1, r1
    40f8:	fc 01       	movw	r30, r24
    40fa:	e3 5f       	subi	r30, 0xF3	; 243
    40fc:	fd 4f       	sbci	r31, 0xFD	; 253
    40fe:	88 eb       	ldi	r24, 0xB8	; 184
    4100:	80 83       	st	Z, r24
    4102:	81 81       	ldd	r24, Z+1	; 0x01
    4104:	88 7f       	andi	r24, 0xF8	; 248
    4106:	81 60       	ori	r24, 0x01	; 1
    4108:	81 83       	std	Z+1, r24	; 0x01
    410a:	2d 8d       	ldd	r18, Y+29	; 0x1d
    410c:	3e 8d       	ldd	r19, Y+30	; 0x1e
    410e:	8b ec       	ldi	r24, 0xCB	; 203
    4110:	90 e0       	ldi	r25, 0x00	; 0
    4112:	fc 01       	movw	r30, r24
    4114:	2e 9f       	mul	r18, r30
    4116:	c0 01       	movw	r24, r0
    4118:	2f 9f       	mul	r18, r31
    411a:	90 0d       	add	r25, r0
    411c:	3e 9f       	mul	r19, r30
    411e:	90 0d       	add	r25, r0
    4120:	11 24       	eor	r1, r1
    4122:	fc 01       	movw	r30, r24
    4124:	e2 5f       	subi	r30, 0xF2	; 242
    4126:	fd 4f       	sbci	r31, 0xFD	; 253
    4128:	80 81       	ld	r24, Z
    412a:	87 70       	andi	r24, 0x07	; 7
    412c:	88 62       	ori	r24, 0x28	; 40
    412e:	80 83       	st	Z, r24
MyMelodyBox[Number].Table[30].Note = g2   ;MyMelodyBox[Number].Table[30].Notelength  = 5;
    4130:	2d 8d       	ldd	r18, Y+29	; 0x1d
    4132:	3e 8d       	ldd	r19, Y+30	; 0x1e
    4134:	8b ec       	ldi	r24, 0xCB	; 203
    4136:	90 e0       	ldi	r25, 0x00	; 0
    4138:	ac 01       	movw	r20, r24
    413a:	24 9f       	mul	r18, r20
    413c:	c0 01       	movw	r24, r0
    413e:	25 9f       	mul	r18, r21
    4140:	90 0d       	add	r25, r0
    4142:	34 9f       	mul	r19, r20
    4144:	90 0d       	add	r25, r0
    4146:	11 24       	eor	r1, r1
    4148:	fc 01       	movw	r30, r24
    414a:	e1 5f       	subi	r30, 0xF1	; 241
    414c:	fd 4f       	sbci	r31, 0xFD	; 253
    414e:	80 e1       	ldi	r24, 0x10	; 16
    4150:	80 83       	st	Z, r24
    4152:	81 81       	ldd	r24, Z+1	; 0x01
    4154:	88 7f       	andi	r24, 0xF8	; 248
    4156:	83 60       	ori	r24, 0x03	; 3
    4158:	81 83       	std	Z+1, r24	; 0x01
    415a:	2d 8d       	ldd	r18, Y+29	; 0x1d
    415c:	3e 8d       	ldd	r19, Y+30	; 0x1e
    415e:	8b ec       	ldi	r24, 0xCB	; 203
    4160:	90 e0       	ldi	r25, 0x00	; 0
    4162:	fc 01       	movw	r30, r24
    4164:	2e 9f       	mul	r18, r30
    4166:	c0 01       	movw	r24, r0
    4168:	2f 9f       	mul	r18, r31
    416a:	90 0d       	add	r25, r0
    416c:	3e 9f       	mul	r19, r30
    416e:	90 0d       	add	r25, r0
    4170:	11 24       	eor	r1, r1
    4172:	fc 01       	movw	r30, r24
    4174:	e0 5f       	subi	r30, 0xF0	; 240
    4176:	fd 4f       	sbci	r31, 0xFD	; 253
    4178:	80 81       	ld	r24, Z
    417a:	87 70       	andi	r24, 0x07	; 7
    417c:	88 62       	ori	r24, 0x28	; 40
    417e:	80 83       	st	Z, r24
MyMelodyBox[Number].Table[31].Note=  e2   ;MyMelodyBox[Number].Table[31].Notelength  = 7;
    4180:	2d 8d       	ldd	r18, Y+29	; 0x1d
    4182:	3e 8d       	ldd	r19, Y+30	; 0x1e
    4184:	8b ec       	ldi	r24, 0xCB	; 203
    4186:	90 e0       	ldi	r25, 0x00	; 0
    4188:	ac 01       	movw	r20, r24
    418a:	24 9f       	mul	r18, r20
    418c:	c0 01       	movw	r24, r0
    418e:	25 9f       	mul	r18, r21
    4190:	90 0d       	add	r25, r0
    4192:	34 9f       	mul	r19, r20
    4194:	90 0d       	add	r25, r0
    4196:	11 24       	eor	r1, r1
    4198:	fc 01       	movw	r30, r24
    419a:	ef 5e       	subi	r30, 0xEF	; 239
    419c:	fd 4f       	sbci	r31, 0xFD	; 253
    419e:	83 e9       	ldi	r24, 0x93	; 147
    41a0:	80 83       	st	Z, r24
    41a2:	81 81       	ldd	r24, Z+1	; 0x01
    41a4:	88 7f       	andi	r24, 0xF8	; 248
    41a6:	82 60       	ori	r24, 0x02	; 2
    41a8:	81 83       	std	Z+1, r24	; 0x01
    41aa:	2d 8d       	ldd	r18, Y+29	; 0x1d
    41ac:	3e 8d       	ldd	r19, Y+30	; 0x1e
    41ae:	8b ec       	ldi	r24, 0xCB	; 203
    41b0:	90 e0       	ldi	r25, 0x00	; 0
    41b2:	fc 01       	movw	r30, r24
    41b4:	2e 9f       	mul	r18, r30
    41b6:	c0 01       	movw	r24, r0
    41b8:	2f 9f       	mul	r18, r31
    41ba:	90 0d       	add	r25, r0
    41bc:	3e 9f       	mul	r19, r30
    41be:	90 0d       	add	r25, r0
    41c0:	11 24       	eor	r1, r1
    41c2:	fc 01       	movw	r30, r24
    41c4:	ee 5e       	subi	r30, 0xEE	; 238
    41c6:	fd 4f       	sbci	r31, 0xFD	; 253
    41c8:	80 81       	ld	r24, Z
    41ca:	87 70       	andi	r24, 0x07	; 7
    41cc:	88 63       	ori	r24, 0x38	; 56
    41ce:	80 83       	st	Z, r24
MyMelodyBox[Number].Table[32].Note=  e2   ;MyMelodyBox[Number].Table[32].Notelength  = 2;
    41d0:	2d 8d       	ldd	r18, Y+29	; 0x1d
    41d2:	3e 8d       	ldd	r19, Y+30	; 0x1e
    41d4:	8b ec       	ldi	r24, 0xCB	; 203
    41d6:	90 e0       	ldi	r25, 0x00	; 0
    41d8:	ac 01       	movw	r20, r24
    41da:	24 9f       	mul	r18, r20
    41dc:	c0 01       	movw	r24, r0
    41de:	25 9f       	mul	r18, r21
    41e0:	90 0d       	add	r25, r0
    41e2:	34 9f       	mul	r19, r20
    41e4:	90 0d       	add	r25, r0
    41e6:	11 24       	eor	r1, r1
    41e8:	fc 01       	movw	r30, r24
    41ea:	ed 5e       	subi	r30, 0xED	; 237
    41ec:	fd 4f       	sbci	r31, 0xFD	; 253
    41ee:	83 e9       	ldi	r24, 0x93	; 147
    41f0:	80 83       	st	Z, r24
    41f2:	81 81       	ldd	r24, Z+1	; 0x01
    41f4:	88 7f       	andi	r24, 0xF8	; 248
    41f6:	82 60       	ori	r24, 0x02	; 2
    41f8:	81 83       	std	Z+1, r24	; 0x01
    41fa:	2d 8d       	ldd	r18, Y+29	; 0x1d
    41fc:	3e 8d       	ldd	r19, Y+30	; 0x1e
    41fe:	8b ec       	ldi	r24, 0xCB	; 203
    4200:	90 e0       	ldi	r25, 0x00	; 0
    4202:	fc 01       	movw	r30, r24
    4204:	2e 9f       	mul	r18, r30
    4206:	c0 01       	movw	r24, r0
    4208:	2f 9f       	mul	r18, r31
    420a:	90 0d       	add	r25, r0
    420c:	3e 9f       	mul	r19, r30
    420e:	90 0d       	add	r25, r0
    4210:	11 24       	eor	r1, r1
    4212:	fc 01       	movw	r30, r24
    4214:	ec 5e       	subi	r30, 0xEC	; 236
    4216:	fd 4f       	sbci	r31, 0xFD	; 253
    4218:	80 81       	ld	r24, Z
    421a:	87 70       	andi	r24, 0x07	; 7
    421c:	80 61       	ori	r24, 0x10	; 16
    421e:	80 83       	st	Z, r24
MyMelodyBox[Number].Table[33].Note=  f2	 ;MyMelodyBox[Number].Table[33].Notelength = 2;
    4220:	2d 8d       	ldd	r18, Y+29	; 0x1d
    4222:	3e 8d       	ldd	r19, Y+30	; 0x1e
    4224:	8b ec       	ldi	r24, 0xCB	; 203
    4226:	90 e0       	ldi	r25, 0x00	; 0
    4228:	ac 01       	movw	r20, r24
    422a:	24 9f       	mul	r18, r20
    422c:	c0 01       	movw	r24, r0
    422e:	25 9f       	mul	r18, r21
    4230:	90 0d       	add	r25, r0
    4232:	34 9f       	mul	r19, r20
    4234:	90 0d       	add	r25, r0
    4236:	11 24       	eor	r1, r1
    4238:	fc 01       	movw	r30, r24
    423a:	eb 5e       	subi	r30, 0xEB	; 235
    423c:	fd 4f       	sbci	r31, 0xFD	; 253
    423e:	8a eb       	ldi	r24, 0xBA	; 186
    4240:	80 83       	st	Z, r24
    4242:	81 81       	ldd	r24, Z+1	; 0x01
    4244:	88 7f       	andi	r24, 0xF8	; 248
    4246:	82 60       	ori	r24, 0x02	; 2
    4248:	81 83       	std	Z+1, r24	; 0x01
    424a:	2d 8d       	ldd	r18, Y+29	; 0x1d
    424c:	3e 8d       	ldd	r19, Y+30	; 0x1e
    424e:	8b ec       	ldi	r24, 0xCB	; 203
    4250:	90 e0       	ldi	r25, 0x00	; 0
    4252:	fc 01       	movw	r30, r24
    4254:	2e 9f       	mul	r18, r30
    4256:	c0 01       	movw	r24, r0
    4258:	2f 9f       	mul	r18, r31
    425a:	90 0d       	add	r25, r0
    425c:	3e 9f       	mul	r19, r30
    425e:	90 0d       	add	r25, r0
    4260:	11 24       	eor	r1, r1
    4262:	fc 01       	movw	r30, r24
    4264:	ea 5e       	subi	r30, 0xEA	; 234
    4266:	fd 4f       	sbci	r31, 0xFD	; 253
    4268:	80 81       	ld	r24, Z
    426a:	87 70       	andi	r24, 0x07	; 7
    426c:	80 61       	ori	r24, 0x10	; 16
    426e:	80 83       	st	Z, r24
MyMelodyBox[Number].Table[34].Note=  g2	 ;MyMelodyBox[Number].Table[34].Notelength = 4;
    4270:	2d 8d       	ldd	r18, Y+29	; 0x1d
    4272:	3e 8d       	ldd	r19, Y+30	; 0x1e
    4274:	8b ec       	ldi	r24, 0xCB	; 203
    4276:	90 e0       	ldi	r25, 0x00	; 0
    4278:	ac 01       	movw	r20, r24
    427a:	24 9f       	mul	r18, r20
    427c:	c0 01       	movw	r24, r0
    427e:	25 9f       	mul	r18, r21
    4280:	90 0d       	add	r25, r0
    4282:	34 9f       	mul	r19, r20
    4284:	90 0d       	add	r25, r0
    4286:	11 24       	eor	r1, r1
    4288:	fc 01       	movw	r30, r24
    428a:	e9 5e       	subi	r30, 0xE9	; 233
    428c:	fd 4f       	sbci	r31, 0xFD	; 253
    428e:	80 e1       	ldi	r24, 0x10	; 16
    4290:	80 83       	st	Z, r24
    4292:	81 81       	ldd	r24, Z+1	; 0x01
    4294:	88 7f       	andi	r24, 0xF8	; 248
    4296:	83 60       	ori	r24, 0x03	; 3
    4298:	81 83       	std	Z+1, r24	; 0x01
    429a:	2d 8d       	ldd	r18, Y+29	; 0x1d
    429c:	3e 8d       	ldd	r19, Y+30	; 0x1e
    429e:	8b ec       	ldi	r24, 0xCB	; 203
    42a0:	90 e0       	ldi	r25, 0x00	; 0
    42a2:	fc 01       	movw	r30, r24
    42a4:	2e 9f       	mul	r18, r30
    42a6:	c0 01       	movw	r24, r0
    42a8:	2f 9f       	mul	r18, r31
    42aa:	90 0d       	add	r25, r0
    42ac:	3e 9f       	mul	r19, r30
    42ae:	90 0d       	add	r25, r0
    42b0:	11 24       	eor	r1, r1
    42b2:	fc 01       	movw	r30, r24
    42b4:	e8 5e       	subi	r30, 0xE8	; 232
    42b6:	fd 4f       	sbci	r31, 0xFD	; 253
    42b8:	80 81       	ld	r24, Z
    42ba:	87 70       	andi	r24, 0x07	; 7
    42bc:	80 62       	ori	r24, 0x20	; 32
    42be:	80 83       	st	Z, r24
MyMelodyBox[Number].Table[35].Note=  a2  ;MyMelodyBox[Number].Table[35].Notelength = 4;
    42c0:	2d 8d       	ldd	r18, Y+29	; 0x1d
    42c2:	3e 8d       	ldd	r19, Y+30	; 0x1e
    42c4:	8b ec       	ldi	r24, 0xCB	; 203
    42c6:	90 e0       	ldi	r25, 0x00	; 0
    42c8:	ac 01       	movw	r20, r24
    42ca:	24 9f       	mul	r18, r20
    42cc:	c0 01       	movw	r24, r0
    42ce:	25 9f       	mul	r18, r21
    42d0:	90 0d       	add	r25, r0
    42d2:	34 9f       	mul	r19, r20
    42d4:	90 0d       	add	r25, r0
    42d6:	11 24       	eor	r1, r1
    42d8:	fc 01       	movw	r30, r24
    42da:	e7 5e       	subi	r30, 0xE7	; 231
    42dc:	fd 4f       	sbci	r31, 0xFD	; 253
    42de:	80 e7       	ldi	r24, 0x70	; 112
    42e0:	80 83       	st	Z, r24
    42e2:	81 81       	ldd	r24, Z+1	; 0x01
    42e4:	88 7f       	andi	r24, 0xF8	; 248
    42e6:	83 60       	ori	r24, 0x03	; 3
    42e8:	81 83       	std	Z+1, r24	; 0x01
    42ea:	2d 8d       	ldd	r18, Y+29	; 0x1d
    42ec:	3e 8d       	ldd	r19, Y+30	; 0x1e
    42ee:	8b ec       	ldi	r24, 0xCB	; 203
    42f0:	90 e0       	ldi	r25, 0x00	; 0
    42f2:	fc 01       	movw	r30, r24
    42f4:	2e 9f       	mul	r18, r30
    42f6:	c0 01       	movw	r24, r0
    42f8:	2f 9f       	mul	r18, r31
    42fa:	90 0d       	add	r25, r0
    42fc:	3e 9f       	mul	r19, r30
    42fe:	90 0d       	add	r25, r0
    4300:	11 24       	eor	r1, r1
    4302:	fc 01       	movw	r30, r24
    4304:	e6 5e       	subi	r30, 0xE6	; 230
    4306:	fd 4f       	sbci	r31, 0xFD	; 253
    4308:	80 81       	ld	r24, Z
    430a:	87 70       	andi	r24, 0x07	; 7
    430c:	80 62       	ori	r24, 0x20	; 32
    430e:	80 83       	st	Z, r24
MyMelodyBox[Number].Table[36].Note=  b2	 ;MyMelodyBox[Number].Table[36].Notelength = 3;
    4310:	2d 8d       	ldd	r18, Y+29	; 0x1d
    4312:	3e 8d       	ldd	r19, Y+30	; 0x1e
    4314:	8b ec       	ldi	r24, 0xCB	; 203
    4316:	90 e0       	ldi	r25, 0x00	; 0
    4318:	ac 01       	movw	r20, r24
    431a:	24 9f       	mul	r18, r20
    431c:	c0 01       	movw	r24, r0
    431e:	25 9f       	mul	r18, r21
    4320:	90 0d       	add	r25, r0
    4322:	34 9f       	mul	r19, r20
    4324:	90 0d       	add	r25, r0
    4326:	11 24       	eor	r1, r1
    4328:	fc 01       	movw	r30, r24
    432a:	e5 5e       	subi	r30, 0xE5	; 229
    432c:	fd 4f       	sbci	r31, 0xFD	; 253
    432e:	84 ea       	ldi	r24, 0xA4	; 164
    4330:	80 83       	st	Z, r24
    4332:	81 81       	ldd	r24, Z+1	; 0x01
    4334:	88 7f       	andi	r24, 0xF8	; 248
    4336:	83 60       	ori	r24, 0x03	; 3
    4338:	81 83       	std	Z+1, r24	; 0x01
    433a:	2d 8d       	ldd	r18, Y+29	; 0x1d
    433c:	3e 8d       	ldd	r19, Y+30	; 0x1e
    433e:	8b ec       	ldi	r24, 0xCB	; 203
    4340:	90 e0       	ldi	r25, 0x00	; 0
    4342:	fc 01       	movw	r30, r24
    4344:	2e 9f       	mul	r18, r30
    4346:	c0 01       	movw	r24, r0
    4348:	2f 9f       	mul	r18, r31
    434a:	90 0d       	add	r25, r0
    434c:	3e 9f       	mul	r19, r30
    434e:	90 0d       	add	r25, r0
    4350:	11 24       	eor	r1, r1
    4352:	fc 01       	movw	r30, r24
    4354:	e4 5e       	subi	r30, 0xE4	; 228
    4356:	fd 4f       	sbci	r31, 0xFD	; 253
    4358:	80 81       	ld	r24, Z
    435a:	87 70       	andi	r24, 0x07	; 7
    435c:	88 61       	ori	r24, 0x18	; 24
    435e:	80 83       	st	Z, r24
MyMelodyBox[Number].Table[37].Note=  a2	 ;MyMelodyBox[Number].Table[37].Notelength = 5;
    4360:	2d 8d       	ldd	r18, Y+29	; 0x1d
    4362:	3e 8d       	ldd	r19, Y+30	; 0x1e
    4364:	8b ec       	ldi	r24, 0xCB	; 203
    4366:	90 e0       	ldi	r25, 0x00	; 0
    4368:	ac 01       	movw	r20, r24
    436a:	24 9f       	mul	r18, r20
    436c:	c0 01       	movw	r24, r0
    436e:	25 9f       	mul	r18, r21
    4370:	90 0d       	add	r25, r0
    4372:	34 9f       	mul	r19, r20
    4374:	90 0d       	add	r25, r0
    4376:	11 24       	eor	r1, r1
    4378:	fc 01       	movw	r30, r24
    437a:	e3 5e       	subi	r30, 0xE3	; 227
    437c:	fd 4f       	sbci	r31, 0xFD	; 253
    437e:	80 e7       	ldi	r24, 0x70	; 112
    4380:	80 83       	st	Z, r24
    4382:	81 81       	ldd	r24, Z+1	; 0x01
    4384:	88 7f       	andi	r24, 0xF8	; 248
    4386:	83 60       	ori	r24, 0x03	; 3
    4388:	81 83       	std	Z+1, r24	; 0x01
    438a:	2d 8d       	ldd	r18, Y+29	; 0x1d
    438c:	3e 8d       	ldd	r19, Y+30	; 0x1e
    438e:	8b ec       	ldi	r24, 0xCB	; 203
    4390:	90 e0       	ldi	r25, 0x00	; 0
    4392:	fc 01       	movw	r30, r24
    4394:	2e 9f       	mul	r18, r30
    4396:	c0 01       	movw	r24, r0
    4398:	2f 9f       	mul	r18, r31
    439a:	90 0d       	add	r25, r0
    439c:	3e 9f       	mul	r19, r30
    439e:	90 0d       	add	r25, r0
    43a0:	11 24       	eor	r1, r1
    43a2:	fc 01       	movw	r30, r24
    43a4:	e2 5e       	subi	r30, 0xE2	; 226
    43a6:	fd 4f       	sbci	r31, 0xFD	; 253
    43a8:	80 81       	ld	r24, Z
    43aa:	87 70       	andi	r24, 0x07	; 7
    43ac:	88 62       	ori	r24, 0x28	; 40
    43ae:	80 83       	st	Z, r24
MyMelodyBox[Number].Table[38].Note=  g2	 ;MyMelodyBox[Number].Table[38].Notelength = 5;	 
    43b0:	2d 8d       	ldd	r18, Y+29	; 0x1d
    43b2:	3e 8d       	ldd	r19, Y+30	; 0x1e
    43b4:	8b ec       	ldi	r24, 0xCB	; 203
    43b6:	90 e0       	ldi	r25, 0x00	; 0
    43b8:	ac 01       	movw	r20, r24
    43ba:	24 9f       	mul	r18, r20
    43bc:	c0 01       	movw	r24, r0
    43be:	25 9f       	mul	r18, r21
    43c0:	90 0d       	add	r25, r0
    43c2:	34 9f       	mul	r19, r20
    43c4:	90 0d       	add	r25, r0
    43c6:	11 24       	eor	r1, r1
    43c8:	fc 01       	movw	r30, r24
    43ca:	e1 5e       	subi	r30, 0xE1	; 225
    43cc:	fd 4f       	sbci	r31, 0xFD	; 253
    43ce:	80 e1       	ldi	r24, 0x10	; 16
    43d0:	80 83       	st	Z, r24
    43d2:	81 81       	ldd	r24, Z+1	; 0x01
    43d4:	88 7f       	andi	r24, 0xF8	; 248
    43d6:	83 60       	ori	r24, 0x03	; 3
    43d8:	81 83       	std	Z+1, r24	; 0x01
    43da:	2d 8d       	ldd	r18, Y+29	; 0x1d
    43dc:	3e 8d       	ldd	r19, Y+30	; 0x1e
    43de:	8b ec       	ldi	r24, 0xCB	; 203
    43e0:	90 e0       	ldi	r25, 0x00	; 0
    43e2:	fc 01       	movw	r30, r24
    43e4:	2e 9f       	mul	r18, r30
    43e6:	c0 01       	movw	r24, r0
    43e8:	2f 9f       	mul	r18, r31
    43ea:	90 0d       	add	r25, r0
    43ec:	3e 9f       	mul	r19, r30
    43ee:	90 0d       	add	r25, r0
    43f0:	11 24       	eor	r1, r1
    43f2:	fc 01       	movw	r30, r24
    43f4:	e0 5e       	subi	r30, 0xE0	; 224
    43f6:	fd 4f       	sbci	r31, 0xFD	; 253
    43f8:	80 81       	ld	r24, Z
    43fa:	87 70       	andi	r24, 0x07	; 7
    43fc:	88 62       	ori	r24, 0x28	; 40
    43fe:	80 83       	st	Z, r24
MyMelodyBox[Number].Table[39].Note=  f2	 ;MyMelodyBox[Number].Table[39].Notelength = 7;
    4400:	2d 8d       	ldd	r18, Y+29	; 0x1d
    4402:	3e 8d       	ldd	r19, Y+30	; 0x1e
    4404:	8b ec       	ldi	r24, 0xCB	; 203
    4406:	90 e0       	ldi	r25, 0x00	; 0
    4408:	ac 01       	movw	r20, r24
    440a:	24 9f       	mul	r18, r20
    440c:	c0 01       	movw	r24, r0
    440e:	25 9f       	mul	r18, r21
    4410:	90 0d       	add	r25, r0
    4412:	34 9f       	mul	r19, r20
    4414:	90 0d       	add	r25, r0
    4416:	11 24       	eor	r1, r1
    4418:	fc 01       	movw	r30, r24
    441a:	ef 5d       	subi	r30, 0xDF	; 223
    441c:	fd 4f       	sbci	r31, 0xFD	; 253
    441e:	8a eb       	ldi	r24, 0xBA	; 186
    4420:	80 83       	st	Z, r24
    4422:	81 81       	ldd	r24, Z+1	; 0x01
    4424:	88 7f       	andi	r24, 0xF8	; 248
    4426:	82 60       	ori	r24, 0x02	; 2
    4428:	81 83       	std	Z+1, r24	; 0x01
    442a:	2d 8d       	ldd	r18, Y+29	; 0x1d
    442c:	3e 8d       	ldd	r19, Y+30	; 0x1e
    442e:	8b ec       	ldi	r24, 0xCB	; 203
    4430:	90 e0       	ldi	r25, 0x00	; 0
    4432:	fc 01       	movw	r30, r24
    4434:	2e 9f       	mul	r18, r30
    4436:	c0 01       	movw	r24, r0
    4438:	2f 9f       	mul	r18, r31
    443a:	90 0d       	add	r25, r0
    443c:	3e 9f       	mul	r19, r30
    443e:	90 0d       	add	r25, r0
    4440:	11 24       	eor	r1, r1
    4442:	fc 01       	movw	r30, r24
    4444:	ee 5d       	subi	r30, 0xDE	; 222
    4446:	fd 4f       	sbci	r31, 0xFD	; 253
    4448:	80 81       	ld	r24, Z
    444a:	87 70       	andi	r24, 0x07	; 7
    444c:	88 63       	ori	r24, 0x38	; 56
    444e:	80 83       	st	Z, r24
MyMelodyBox[Number].Table[40].Note=  f2	 ;MyMelodyBox[Number].Table[40].Notelength = 3;
    4450:	2d 8d       	ldd	r18, Y+29	; 0x1d
    4452:	3e 8d       	ldd	r19, Y+30	; 0x1e
    4454:	8b ec       	ldi	r24, 0xCB	; 203
    4456:	90 e0       	ldi	r25, 0x00	; 0
    4458:	ac 01       	movw	r20, r24
    445a:	24 9f       	mul	r18, r20
    445c:	c0 01       	movw	r24, r0
    445e:	25 9f       	mul	r18, r21
    4460:	90 0d       	add	r25, r0
    4462:	34 9f       	mul	r19, r20
    4464:	90 0d       	add	r25, r0
    4466:	11 24       	eor	r1, r1
    4468:	fc 01       	movw	r30, r24
    446a:	ed 5d       	subi	r30, 0xDD	; 221
    446c:	fd 4f       	sbci	r31, 0xFD	; 253
    446e:	8a eb       	ldi	r24, 0xBA	; 186
    4470:	80 83       	st	Z, r24
    4472:	81 81       	ldd	r24, Z+1	; 0x01
    4474:	88 7f       	andi	r24, 0xF8	; 248
    4476:	82 60       	ori	r24, 0x02	; 2
    4478:	81 83       	std	Z+1, r24	; 0x01
    447a:	2d 8d       	ldd	r18, Y+29	; 0x1d
    447c:	3e 8d       	ldd	r19, Y+30	; 0x1e
    447e:	8b ec       	ldi	r24, 0xCB	; 203
    4480:	90 e0       	ldi	r25, 0x00	; 0
    4482:	fc 01       	movw	r30, r24
    4484:	2e 9f       	mul	r18, r30
    4486:	c0 01       	movw	r24, r0
    4488:	2f 9f       	mul	r18, r31
    448a:	90 0d       	add	r25, r0
    448c:	3e 9f       	mul	r19, r30
    448e:	90 0d       	add	r25, r0
    4490:	11 24       	eor	r1, r1
    4492:	fc 01       	movw	r30, r24
    4494:	ec 5d       	subi	r30, 0xDC	; 220
    4496:	fd 4f       	sbci	r31, 0xFD	; 253
    4498:	80 81       	ld	r24, Z
    449a:	87 70       	andi	r24, 0x07	; 7
    449c:	88 61       	ori	r24, 0x18	; 24
    449e:	80 83       	st	Z, r24
MyMelodyBox[Number].Table[41].Note = e2	 ;MyMelodyBox[Number].Table[41].Notelength = 3;
    44a0:	2d 8d       	ldd	r18, Y+29	; 0x1d
    44a2:	3e 8d       	ldd	r19, Y+30	; 0x1e
    44a4:	8b ec       	ldi	r24, 0xCB	; 203
    44a6:	90 e0       	ldi	r25, 0x00	; 0
    44a8:	ac 01       	movw	r20, r24
    44aa:	24 9f       	mul	r18, r20
    44ac:	c0 01       	movw	r24, r0
    44ae:	25 9f       	mul	r18, r21
    44b0:	90 0d       	add	r25, r0
    44b2:	34 9f       	mul	r19, r20
    44b4:	90 0d       	add	r25, r0
    44b6:	11 24       	eor	r1, r1
    44b8:	fc 01       	movw	r30, r24
    44ba:	eb 5d       	subi	r30, 0xDB	; 219
    44bc:	fd 4f       	sbci	r31, 0xFD	; 253
    44be:	83 e9       	ldi	r24, 0x93	; 147
    44c0:	80 83       	st	Z, r24
    44c2:	81 81       	ldd	r24, Z+1	; 0x01
    44c4:	88 7f       	andi	r24, 0xF8	; 248
    44c6:	82 60       	ori	r24, 0x02	; 2
    44c8:	81 83       	std	Z+1, r24	; 0x01
    44ca:	2d 8d       	ldd	r18, Y+29	; 0x1d
    44cc:	3e 8d       	ldd	r19, Y+30	; 0x1e
    44ce:	8b ec       	ldi	r24, 0xCB	; 203
    44d0:	90 e0       	ldi	r25, 0x00	; 0
    44d2:	fc 01       	movw	r30, r24
    44d4:	2e 9f       	mul	r18, r30
    44d6:	c0 01       	movw	r24, r0
    44d8:	2f 9f       	mul	r18, r31
    44da:	90 0d       	add	r25, r0
    44dc:	3e 9f       	mul	r19, r30
    44de:	90 0d       	add	r25, r0
    44e0:	11 24       	eor	r1, r1
    44e2:	fc 01       	movw	r30, r24
    44e4:	ea 5d       	subi	r30, 0xDA	; 218
    44e6:	fd 4f       	sbci	r31, 0xFD	; 253
    44e8:	80 81       	ld	r24, Z
    44ea:	87 70       	andi	r24, 0x07	; 7
    44ec:	88 61       	ori	r24, 0x18	; 24
    44ee:	80 83       	st	Z, r24
MyMelodyBox[Number].Table[42].Note = f2	 ;MyMelodyBox[Number].Table[42].Notelength = 5;
    44f0:	2d 8d       	ldd	r18, Y+29	; 0x1d
    44f2:	3e 8d       	ldd	r19, Y+30	; 0x1e
    44f4:	8b ec       	ldi	r24, 0xCB	; 203
    44f6:	90 e0       	ldi	r25, 0x00	; 0
    44f8:	ac 01       	movw	r20, r24
    44fa:	24 9f       	mul	r18, r20
    44fc:	c0 01       	movw	r24, r0
    44fe:	25 9f       	mul	r18, r21
    4500:	90 0d       	add	r25, r0
    4502:	34 9f       	mul	r19, r20
    4504:	90 0d       	add	r25, r0
    4506:	11 24       	eor	r1, r1
    4508:	fc 01       	movw	r30, r24
    450a:	e9 5d       	subi	r30, 0xD9	; 217
    450c:	fd 4f       	sbci	r31, 0xFD	; 253
    450e:	8a eb       	ldi	r24, 0xBA	; 186
    4510:	80 83       	st	Z, r24
    4512:	81 81       	ldd	r24, Z+1	; 0x01
    4514:	88 7f       	andi	r24, 0xF8	; 248
    4516:	82 60       	ori	r24, 0x02	; 2
    4518:	81 83       	std	Z+1, r24	; 0x01
    451a:	2d 8d       	ldd	r18, Y+29	; 0x1d
    451c:	3e 8d       	ldd	r19, Y+30	; 0x1e
    451e:	8b ec       	ldi	r24, 0xCB	; 203
    4520:	90 e0       	ldi	r25, 0x00	; 0
    4522:	fc 01       	movw	r30, r24
    4524:	2e 9f       	mul	r18, r30
    4526:	c0 01       	movw	r24, r0
    4528:	2f 9f       	mul	r18, r31
    452a:	90 0d       	add	r25, r0
    452c:	3e 9f       	mul	r19, r30
    452e:	90 0d       	add	r25, r0
    4530:	11 24       	eor	r1, r1
    4532:	fc 01       	movw	r30, r24
    4534:	e8 5d       	subi	r30, 0xD8	; 216
    4536:	fd 4f       	sbci	r31, 0xFD	; 253
    4538:	80 81       	ld	r24, Z
    453a:	87 70       	andi	r24, 0x07	; 7
    453c:	88 62       	ori	r24, 0x28	; 40
    453e:	80 83       	st	Z, r24
MyMelodyBox[Number].Table[43].Note = e2	 ;MyMelodyBox[Number].Table[43].Notelength = 5;
    4540:	2d 8d       	ldd	r18, Y+29	; 0x1d
    4542:	3e 8d       	ldd	r19, Y+30	; 0x1e
    4544:	8b ec       	ldi	r24, 0xCB	; 203
    4546:	90 e0       	ldi	r25, 0x00	; 0
    4548:	ac 01       	movw	r20, r24
    454a:	24 9f       	mul	r18, r20
    454c:	c0 01       	movw	r24, r0
    454e:	25 9f       	mul	r18, r21
    4550:	90 0d       	add	r25, r0
    4552:	34 9f       	mul	r19, r20
    4554:	90 0d       	add	r25, r0
    4556:	11 24       	eor	r1, r1
    4558:	fc 01       	movw	r30, r24
    455a:	e7 5d       	subi	r30, 0xD7	; 215
    455c:	fd 4f       	sbci	r31, 0xFD	; 253
    455e:	83 e9       	ldi	r24, 0x93	; 147
    4560:	80 83       	st	Z, r24
    4562:	81 81       	ldd	r24, Z+1	; 0x01
    4564:	88 7f       	andi	r24, 0xF8	; 248
    4566:	82 60       	ori	r24, 0x02	; 2
    4568:	81 83       	std	Z+1, r24	; 0x01
    456a:	2d 8d       	ldd	r18, Y+29	; 0x1d
    456c:	3e 8d       	ldd	r19, Y+30	; 0x1e
    456e:	8b ec       	ldi	r24, 0xCB	; 203
    4570:	90 e0       	ldi	r25, 0x00	; 0
    4572:	fc 01       	movw	r30, r24
    4574:	2e 9f       	mul	r18, r30
    4576:	c0 01       	movw	r24, r0
    4578:	2f 9f       	mul	r18, r31
    457a:	90 0d       	add	r25, r0
    457c:	3e 9f       	mul	r19, r30
    457e:	90 0d       	add	r25, r0
    4580:	11 24       	eor	r1, r1
    4582:	fc 01       	movw	r30, r24
    4584:	e6 5d       	subi	r30, 0xD6	; 214
    4586:	fd 4f       	sbci	r31, 0xFD	; 253
    4588:	80 81       	ld	r24, Z
    458a:	87 70       	andi	r24, 0x07	; 7
    458c:	88 62       	ori	r24, 0x28	; 40
    458e:	80 83       	st	Z, r24
MyMelodyBox[Number].Table[44].Note = d2    ;MyMelodyBox[Number].Table[44].Notelength = 5;
    4590:	2d 8d       	ldd	r18, Y+29	; 0x1d
    4592:	3e 8d       	ldd	r19, Y+30	; 0x1e
    4594:	8b ec       	ldi	r24, 0xCB	; 203
    4596:	90 e0       	ldi	r25, 0x00	; 0
    4598:	ac 01       	movw	r20, r24
    459a:	24 9f       	mul	r18, r20
    459c:	c0 01       	movw	r24, r0
    459e:	25 9f       	mul	r18, r21
    45a0:	90 0d       	add	r25, r0
    45a2:	34 9f       	mul	r19, r20
    45a4:	90 0d       	add	r25, r0
    45a6:	11 24       	eor	r1, r1
    45a8:	fc 01       	movw	r30, r24
    45aa:	e5 5d       	subi	r30, 0xD5	; 213
    45ac:	fd 4f       	sbci	r31, 0xFD	; 253
    45ae:	8b e4       	ldi	r24, 0x4B	; 75
    45b0:	80 83       	st	Z, r24
    45b2:	81 81       	ldd	r24, Z+1	; 0x01
    45b4:	88 7f       	andi	r24, 0xF8	; 248
    45b6:	82 60       	ori	r24, 0x02	; 2
    45b8:	81 83       	std	Z+1, r24	; 0x01
    45ba:	2d 8d       	ldd	r18, Y+29	; 0x1d
    45bc:	3e 8d       	ldd	r19, Y+30	; 0x1e
    45be:	8b ec       	ldi	r24, 0xCB	; 203
    45c0:	90 e0       	ldi	r25, 0x00	; 0
    45c2:	fc 01       	movw	r30, r24
    45c4:	2e 9f       	mul	r18, r30
    45c6:	c0 01       	movw	r24, r0
    45c8:	2f 9f       	mul	r18, r31
    45ca:	90 0d       	add	r25, r0
    45cc:	3e 9f       	mul	r19, r30
    45ce:	90 0d       	add	r25, r0
    45d0:	11 24       	eor	r1, r1
    45d2:	fc 01       	movw	r30, r24
    45d4:	e4 5d       	subi	r30, 0xD4	; 212
    45d6:	fd 4f       	sbci	r31, 0xFD	; 253
    45d8:	80 81       	ld	r24, Z
    45da:	87 70       	andi	r24, 0x07	; 7
    45dc:	88 62       	ori	r24, 0x28	; 40
    45de:	80 83       	st	Z, r24
MyMelodyBox[Number].Table[45].Note = c2	 ;MyMelodyBox[Number].Table[45].Notelength = 8;
    45e0:	2d 8d       	ldd	r18, Y+29	; 0x1d
    45e2:	3e 8d       	ldd	r19, Y+30	; 0x1e
    45e4:	8b ec       	ldi	r24, 0xCB	; 203
    45e6:	90 e0       	ldi	r25, 0x00	; 0
    45e8:	ac 01       	movw	r20, r24
    45ea:	24 9f       	mul	r18, r20
    45ec:	c0 01       	movw	r24, r0
    45ee:	25 9f       	mul	r18, r21
    45f0:	90 0d       	add	r25, r0
    45f2:	34 9f       	mul	r19, r20
    45f4:	90 0d       	add	r25, r0
    45f6:	11 24       	eor	r1, r1
    45f8:	fc 01       	movw	r30, r24
    45fa:	e3 5d       	subi	r30, 0xD3	; 211
    45fc:	fd 4f       	sbci	r31, 0xFD	; 253
    45fe:	8b e0       	ldi	r24, 0x0B	; 11
    4600:	80 83       	st	Z, r24
    4602:	81 81       	ldd	r24, Z+1	; 0x01
    4604:	88 7f       	andi	r24, 0xF8	; 248
    4606:	82 60       	ori	r24, 0x02	; 2
    4608:	81 83       	std	Z+1, r24	; 0x01
    460a:	2d 8d       	ldd	r18, Y+29	; 0x1d
    460c:	3e 8d       	ldd	r19, Y+30	; 0x1e
    460e:	8b ec       	ldi	r24, 0xCB	; 203
    4610:	90 e0       	ldi	r25, 0x00	; 0
    4612:	fc 01       	movw	r30, r24
    4614:	2e 9f       	mul	r18, r30
    4616:	c0 01       	movw	r24, r0
    4618:	2f 9f       	mul	r18, r31
    461a:	90 0d       	add	r25, r0
    461c:	3e 9f       	mul	r19, r30
    461e:	90 0d       	add	r25, r0
    4620:	11 24       	eor	r1, r1
    4622:	fc 01       	movw	r30, r24
    4624:	e2 5d       	subi	r30, 0xD2	; 210
    4626:	fd 4f       	sbci	r31, 0xFD	; 253
    4628:	80 81       	ld	r24, Z
    462a:	87 70       	andi	r24, 0x07	; 7
    462c:	80 64       	ori	r24, 0x40	; 64
    462e:	80 83       	st	Z, r24

//********************************************************************************************

Number = 3;
    4630:	83 e0       	ldi	r24, 0x03	; 3
    4632:	90 e0       	ldi	r25, 0x00	; 0
    4634:	9e 8f       	std	Y+30, r25	; 0x1e
    4636:	8d 8f       	std	Y+29, r24	; 0x1d
MyMelodyBox[Number].title = "Vendanturf";
    4638:	2d 8d       	ldd	r18, Y+29	; 0x1d
    463a:	3e 8d       	ldd	r19, Y+30	; 0x1e
    463c:	8b ec       	ldi	r24, 0xCB	; 203
    463e:	90 e0       	ldi	r25, 0x00	; 0
    4640:	ac 01       	movw	r20, r24
    4642:	24 9f       	mul	r18, r20
    4644:	c0 01       	movw	r24, r0
    4646:	25 9f       	mul	r18, r21
    4648:	90 0d       	add	r25, r0
    464a:	34 9f       	mul	r19, r20
    464c:	90 0d       	add	r25, r0
    464e:	11 24       	eor	r1, r1
    4650:	fc 01       	movw	r30, r24
    4652:	e4 56       	subi	r30, 0x64	; 100
    4654:	fd 4f       	sbci	r31, 0xFD	; 253
    4656:	89 e9       	ldi	r24, 0x99	; 153
    4658:	90 e0       	ldi	r25, 0x00	; 0
    465a:	91 83       	std	Z+1, r25	; 0x01
    465c:	80 83       	st	Z, r24

MyMelodyBox[Number].length = 52;
    465e:	2d 8d       	ldd	r18, Y+29	; 0x1d
    4660:	3e 8d       	ldd	r19, Y+30	; 0x1e
    4662:	8b ec       	ldi	r24, 0xCB	; 203
    4664:	90 e0       	ldi	r25, 0x00	; 0
    4666:	fc 01       	movw	r30, r24
    4668:	2e 9f       	mul	r18, r30
    466a:	c0 01       	movw	r24, r0
    466c:	2f 9f       	mul	r18, r31
    466e:	90 0d       	add	r25, r0
    4670:	3e 9f       	mul	r19, r30
    4672:	90 0d       	add	r25, r0
    4674:	11 24       	eor	r1, r1
    4676:	fc 01       	movw	r30, r24
    4678:	e5 56       	subi	r30, 0x65	; 101
    467a:	fd 4f       	sbci	r31, 0xFD	; 253
    467c:	80 81       	ld	r24, Z
    467e:	80 78       	andi	r24, 0x80	; 128
    4680:	84 63       	ori	r24, 0x34	; 52
    4682:	80 83       	st	Z, r24

	#include "Melodies_definies.h"			// W odrebnym pliku sa definiowane , melodie
											// zeby nie niszczyc maina'a	
	
	char Signs[16] = {0x10,0x10,0x17,0x15,0x15,0x15,0x11,0x1F,
					  0x00,0x01,0x01,0x02,0x02,0x14,0x14,0x08};
    4684:	ae 01       	movw	r20, r28
    4686:	41 5e       	subi	r20, 0xE1	; 225
    4688:	5f 4f       	sbci	r21, 0xFF	; 255
    468a:	58 ab       	std	Y+48, r21	; 0x30
    468c:	4f a7       	std	Y+47, r20	; 0x2f
    468e:	82 e6       	ldi	r24, 0x62	; 98
    4690:	90 e0       	ldi	r25, 0x00	; 0
    4692:	9a ab       	std	Y+50, r25	; 0x32
    4694:	89 ab       	std	Y+49, r24	; 0x31
    4696:	90 e1       	ldi	r25, 0x10	; 16
    4698:	9b ab       	std	Y+51, r25	; 0x33
    469a:	e9 a9       	ldd	r30, Y+49	; 0x31
    469c:	fa a9       	ldd	r31, Y+50	; 0x32
    469e:	00 80       	ld	r0, Z
    46a0:	49 a9       	ldd	r20, Y+49	; 0x31
    46a2:	5a a9       	ldd	r21, Y+50	; 0x32
    46a4:	4f 5f       	subi	r20, 0xFF	; 255
    46a6:	5f 4f       	sbci	r21, 0xFF	; 255
    46a8:	5a ab       	std	Y+50, r21	; 0x32
    46aa:	49 ab       	std	Y+49, r20	; 0x31
    46ac:	ef a5       	ldd	r30, Y+47	; 0x2f
    46ae:	f8 a9       	ldd	r31, Y+48	; 0x30
    46b0:	00 82       	st	Z, r0
    46b2:	4f a5       	ldd	r20, Y+47	; 0x2f
    46b4:	58 a9       	ldd	r21, Y+48	; 0x30
    46b6:	4f 5f       	subi	r20, 0xFF	; 255
    46b8:	5f 4f       	sbci	r21, 0xFF	; 255
    46ba:	58 ab       	std	Y+48, r21	; 0x30
    46bc:	4f a7       	std	Y+47, r20	; 0x2f
    46be:	5b a9       	ldd	r21, Y+51	; 0x33
    46c0:	51 50       	subi	r21, 0x01	; 1
    46c2:	5b ab       	std	Y+51, r21	; 0x33
    46c4:	8b a9       	ldd	r24, Y+51	; 0x33
    46c6:	88 23       	and	r24, r24
    46c8:	41 f7       	brne	.-48     	; 0x469a <main+0x3006>

	Parametr.MusicNumber = 0;
    46ca:	80 91 ce 01 	lds	r24, 0x01CE
    46ce:	80 7f       	andi	r24, 0xF0	; 240
    46d0:	80 93 ce 01 	sts	0x01CE, r24
	Parametr.PlayerLoopCounter = 0 ;
    46d4:	80 91 ce 01 	lds	r24, 0x01CE
    46d8:	8f 70       	andi	r24, 0x0F	; 15
    46da:	80 93 ce 01 	sts	0x01CE, r24
    46de:	80 91 cf 01 	lds	r24, 0x01CF
    46e2:	8e 7f       	andi	r24, 0xFE	; 254
    46e4:	80 93 cf 01 	sts	0x01CF, r24
	Parametr.PlayerCounter = 0;
    46e8:	80 91 cf 01 	lds	r24, 0x01CF
    46ec:	81 70       	andi	r24, 0x01	; 1
    46ee:	80 93 cf 01 	sts	0x01CF, r24
    46f2:	80 91 d0 01 	lds	r24, 0x01D0
    46f6:	8e 7f       	andi	r24, 0xFE	; 254
    46f8:	80 93 d0 01 	sts	0x01D0, r24
    46fc:	80 91 d0 01 	lds	r24, 0x01D0
    4700:	81 70       	andi	r24, 0x01	; 1
    4702:	80 93 d0 01 	sts	0x01D0, r24
    4706:	80 91 d1 01 	lds	r24, 0x01D1
    470a:	8e 7f       	andi	r24, 0xFE	; 254
    470c:	80 93 d1 01 	sts	0x01D1, r24
	Parametr.temp_player_loop_counter = 0;
    4710:	80 91 d1 01 	lds	r24, 0x01D1
    4714:	81 7c       	andi	r24, 0xC1	; 193
    4716:	80 93 d1 01 	sts	0x01D1, r24
	Parametr.Note_Number = 0 ;
    471a:	80 91 d1 01 	lds	r24, 0x01D1
    471e:	8f 73       	andi	r24, 0x3F	; 63
    4720:	80 93 d1 01 	sts	0x01D1, r24
    4724:	80 91 d2 01 	lds	r24, 0x01D2
    4728:	80 7f       	andi	r24, 0xF0	; 240
    472a:	80 93 d2 01 	sts	0x01D2, r24
	
	DDRA = 0xF0;
    472e:	ea e3       	ldi	r30, 0x3A	; 58
    4730:	f0 e0       	ldi	r31, 0x00	; 0
    4732:	80 ef       	ldi	r24, 0xF0	; 240
    4734:	80 83       	st	Z, r24
	PORTA = 0x0F;
    4736:	eb e3       	ldi	r30, 0x3B	; 59
    4738:	f0 e0       	ldi	r31, 0x00	; 0
    473a:	8f e0       	ldi	r24, 0x0F	; 15
    473c:	80 83       	st	Z, r24
	PORTD &= 1<<3;
    473e:	a2 e3       	ldi	r26, 0x32	; 50
    4740:	b0 e0       	ldi	r27, 0x00	; 0
    4742:	e2 e3       	ldi	r30, 0x32	; 50
    4744:	f0 e0       	ldi	r31, 0x00	; 0
    4746:	80 81       	ld	r24, Z
    4748:	88 70       	andi	r24, 0x08	; 8
    474a:	8c 93       	st	X, r24
	DDRD |= 1<<3;
    474c:	a1 e3       	ldi	r26, 0x31	; 49
    474e:	b0 e0       	ldi	r27, 0x00	; 0
    4750:	e1 e3       	ldi	r30, 0x31	; 49
    4752:	f0 e0       	ldi	r31, 0x00	; 0
    4754:	80 81       	ld	r24, Z
    4756:	88 60       	ori	r24, 0x08	; 8
    4758:	8c 93       	st	X, r24
	TIMSK = 1<<TOIE0 | 1<<TOIE2;
    475a:	e9 e5       	ldi	r30, 0x59	; 89
    475c:	f0 e0       	ldi	r31, 0x00	; 0
    475e:	81 e4       	ldi	r24, 0x41	; 65
    4760:	80 83       	st	Z, r24
	InterruptInitial(0,'b',2);
    4762:	42 e0       	ldi	r20, 0x02	; 2
    4764:	50 e0       	ldi	r21, 0x00	; 0
    4766:	62 e6       	ldi	r22, 0x62	; 98
    4768:	80 e0       	ldi	r24, 0x00	; 0
    476a:	90 e0       	ldi	r25, 0x00	; 0
    476c:	0e 94 86 08 	call	0x110c	; 0x110c <InterruptInitial>
	LcdInitial();
    4770:	0e 94 ed 02 	call	0x5da	; 0x5da <LcdInitial>
	LcdOwnSigns(Signs,2);
    4774:	ce 01       	movw	r24, r28
    4776:	4f 96       	adiw	r24, 0x1f	; 31
    4778:	62 e0       	ldi	r22, 0x02	; 2
    477a:	70 e0       	ldi	r23, 0x00	; 0
    477c:	0e 94 3b 05 	call	0xa76	; 0xa76 <LcdOwnSigns>
	LcdViewString("Mono Player");
    4780:	84 ea       	ldi	r24, 0xA4	; 164
    4782:	90 e0       	ldi	r25, 0x00	; 0
    4784:	0e 94 95 05 	call	0xb2a	; 0xb2a <LcdViewString>
	LcdNewLine();
    4788:	0e 94 36 07 	call	0xe6c	; 0xe6c <LcdNewLine>
	LcdViewString("v 0. 1");
    478c:	80 eb       	ldi	r24, 0xB0	; 176
    478e:	90 e0       	ldi	r25, 0x00	; 0
    4790:	0e 94 95 05 	call	0xb2a	; 0xb2a <LcdViewString>
	LcdMoveTo(2,15);
    4794:	6f e0       	ldi	r22, 0x0F	; 15
    4796:	70 e0       	ldi	r23, 0x00	; 0
    4798:	82 e0       	ldi	r24, 0x02	; 2
    479a:	90 e0       	ldi	r25, 0x00	; 0
    479c:	0e 94 ba 05 	call	0xb74	; 0xb74 <LcdMoveTo>
	LcdViewSign(0);
    47a0:	80 e0       	ldi	r24, 0x00	; 0
    47a2:	0e 94 76 05 	call	0xaec	; 0xaec <LcdViewSign>
    47a6:	80 e0       	ldi	r24, 0x00	; 0
    47a8:	90 e0       	ldi	r25, 0x00	; 0
    47aa:	aa e7       	ldi	r26, 0x7A	; 122
    47ac:	b4 e4       	ldi	r27, 0x44	; 68
    47ae:	89 8f       	std	Y+25, r24	; 0x19
    47b0:	9a 8f       	std	Y+26, r25	; 0x1a
    47b2:	ab 8f       	std	Y+27, r26	; 0x1b
    47b4:	bc 8f       	std	Y+28, r27	; 0x1c
 */
void
_delay_ms(double __ms)
{
	uint16_t __ticks;
	double __tmp = ((F_CPU) / 4e3) * __ms;
    47b6:	20 e0       	ldi	r18, 0x00	; 0
    47b8:	30 e0       	ldi	r19, 0x00	; 0
    47ba:	4a e7       	ldi	r20, 0x7A	; 122
    47bc:	54 e4       	ldi	r21, 0x44	; 68
    47be:	69 8d       	ldd	r22, Y+25	; 0x19
    47c0:	7a 8d       	ldd	r23, Y+26	; 0x1a
    47c2:	8b 8d       	ldd	r24, Y+27	; 0x1b
    47c4:	9c 8d       	ldd	r25, Y+28	; 0x1c
    47c6:	0e 94 7c 2a 	call	0x54f8	; 0x54f8 <__mulsf3>
    47ca:	dc 01       	movw	r26, r24
    47cc:	cb 01       	movw	r24, r22
    47ce:	8d 8b       	std	Y+21, r24	; 0x15
    47d0:	9e 8b       	std	Y+22, r25	; 0x16
    47d2:	af 8b       	std	Y+23, r26	; 0x17
    47d4:	b8 8f       	std	Y+24, r27	; 0x18
	if (__tmp < 1.0)
    47d6:	20 e0       	ldi	r18, 0x00	; 0
    47d8:	30 e0       	ldi	r19, 0x00	; 0
    47da:	40 e8       	ldi	r20, 0x80	; 128
    47dc:	5f e3       	ldi	r21, 0x3F	; 63
    47de:	6d 89       	ldd	r22, Y+21	; 0x15
    47e0:	7e 89       	ldd	r23, Y+22	; 0x16
    47e2:	8f 89       	ldd	r24, Y+23	; 0x17
    47e4:	98 8d       	ldd	r25, Y+24	; 0x18
    47e6:	0e 94 80 2c 	call	0x5900	; 0x5900 <__ltsf2>
    47ea:	88 23       	and	r24, r24
    47ec:	2c f4       	brge	.+10     	; 0x47f8 <main+0x3164>
		__ticks = 1;
    47ee:	81 e0       	ldi	r24, 0x01	; 1
    47f0:	90 e0       	ldi	r25, 0x00	; 0
    47f2:	9c 8b       	std	Y+20, r25	; 0x14
    47f4:	8b 8b       	std	Y+19, r24	; 0x13
    47f6:	3f c0       	rjmp	.+126    	; 0x4876 <main+0x31e2>
	else if (__tmp > 65535)
    47f8:	20 e0       	ldi	r18, 0x00	; 0
    47fa:	3f ef       	ldi	r19, 0xFF	; 255
    47fc:	4f e7       	ldi	r20, 0x7F	; 127
    47fe:	57 e4       	ldi	r21, 0x47	; 71
    4800:	6d 89       	ldd	r22, Y+21	; 0x15
    4802:	7e 89       	ldd	r23, Y+22	; 0x16
    4804:	8f 89       	ldd	r24, Y+23	; 0x17
    4806:	98 8d       	ldd	r25, Y+24	; 0x18
    4808:	0e 94 20 2c 	call	0x5840	; 0x5840 <__gtsf2>
    480c:	18 16       	cp	r1, r24
    480e:	4c f5       	brge	.+82     	; 0x4862 <main+0x31ce>
	{
		//	__ticks = requested delay in 1/10 ms
		__ticks = (uint16_t) (__ms * 10.0);
    4810:	20 e0       	ldi	r18, 0x00	; 0
    4812:	30 e0       	ldi	r19, 0x00	; 0
    4814:	40 e2       	ldi	r20, 0x20	; 32
    4816:	51 e4       	ldi	r21, 0x41	; 65
    4818:	69 8d       	ldd	r22, Y+25	; 0x19
    481a:	7a 8d       	ldd	r23, Y+26	; 0x1a
    481c:	8b 8d       	ldd	r24, Y+27	; 0x1b
    481e:	9c 8d       	ldd	r25, Y+28	; 0x1c
    4820:	0e 94 7c 2a 	call	0x54f8	; 0x54f8 <__mulsf3>
    4824:	dc 01       	movw	r26, r24
    4826:	cb 01       	movw	r24, r22
    4828:	bc 01       	movw	r22, r24
    482a:	cd 01       	movw	r24, r26
    482c:	0e 94 a6 28 	call	0x514c	; 0x514c <__fixunssfsi>
    4830:	dc 01       	movw	r26, r24
    4832:	cb 01       	movw	r24, r22
    4834:	9c 8b       	std	Y+20, r25	; 0x14
    4836:	8b 8b       	std	Y+19, r24	; 0x13
    4838:	0f c0       	rjmp	.+30     	; 0x4858 <main+0x31c4>
    483a:	84 e6       	ldi	r24, 0x64	; 100
    483c:	90 e0       	ldi	r25, 0x00	; 0
    483e:	9a 8b       	std	Y+18, r25	; 0x12
    4840:	89 8b       	std	Y+17, r24	; 0x11
    4842:	89 89       	ldd	r24, Y+17	; 0x11
    4844:	9a 89       	ldd	r25, Y+18	; 0x12
    4846:	01 97       	sbiw	r24, 0x01	; 1
    4848:	f1 f7       	brne	.-4      	; 0x4846 <main+0x31b2>
    484a:	9a 8b       	std	Y+18, r25	; 0x12
    484c:	89 8b       	std	Y+17, r24	; 0x11
		while(__ticks)
		{
			// wait 1/10 ms
			_delay_loop_2(((F_CPU) / 4e3) / 10);
			__ticks --;
    484e:	8b 89       	ldd	r24, Y+19	; 0x13
    4850:	9c 89       	ldd	r25, Y+20	; 0x14
    4852:	01 97       	sbiw	r24, 0x01	; 1
    4854:	9c 8b       	std	Y+20, r25	; 0x14
    4856:	8b 8b       	std	Y+19, r24	; 0x13
		__ticks = 1;
	else if (__tmp > 65535)
	{
		//	__ticks = requested delay in 1/10 ms
		__ticks = (uint16_t) (__ms * 10.0);
		while(__ticks)
    4858:	8b 89       	ldd	r24, Y+19	; 0x13
    485a:	9c 89       	ldd	r25, Y+20	; 0x14
    485c:	00 97       	sbiw	r24, 0x00	; 0
    485e:	69 f7       	brne	.-38     	; 0x483a <main+0x31a6>
    4860:	14 c0       	rjmp	.+40     	; 0x488a <main+0x31f6>
			__ticks --;
		}
		return;
	}
	else
		__ticks = (uint16_t)__tmp;
    4862:	6d 89       	ldd	r22, Y+21	; 0x15
    4864:	7e 89       	ldd	r23, Y+22	; 0x16
    4866:	8f 89       	ldd	r24, Y+23	; 0x17
    4868:	98 8d       	ldd	r25, Y+24	; 0x18
    486a:	0e 94 a6 28 	call	0x514c	; 0x514c <__fixunssfsi>
    486e:	dc 01       	movw	r26, r24
    4870:	cb 01       	movw	r24, r22
    4872:	9c 8b       	std	Y+20, r25	; 0x14
    4874:	8b 8b       	std	Y+19, r24	; 0x13
    4876:	8b 89       	ldd	r24, Y+19	; 0x13
    4878:	9c 89       	ldd	r25, Y+20	; 0x14
    487a:	98 8b       	std	Y+16, r25	; 0x10
    487c:	8f 87       	std	Y+15, r24	; 0x0f
    487e:	8f 85       	ldd	r24, Y+15	; 0x0f
    4880:	98 89       	ldd	r25, Y+16	; 0x10
    4882:	01 97       	sbiw	r24, 0x01	; 1
    4884:	f1 f7       	brne	.-4      	; 0x4882 <main+0x31ee>
    4886:	98 8b       	std	Y+16, r25	; 0x10
    4888:	8f 87       	std	Y+15, r24	; 0x0f
	_delay_ms(1000);
	LcdClean();
    488a:	0e 94 ae 06 	call	0xd5c	; 0xd5c <LcdClean>
	LcdViewString(MyMelodyBox[0].title);
    488e:	80 91 9c 02 	lds	r24, 0x029C
    4892:	90 91 9d 02 	lds	r25, 0x029D
    4896:	0e 94 95 05 	call	0xb2a	; 0xb2a <LcdViewString>
	LcdNewLine();
    489a:	0e 94 36 07 	call	0xe6c	; 0xe6c <LcdNewLine>
	LcdViewString(MyMelodyBox[1].title);
    489e:	80 91 67 03 	lds	r24, 0x0367
    48a2:	90 91 68 03 	lds	r25, 0x0368
    48a6:	0e 94 95 05 	call	0xb2a	; 0xb2a <LcdViewString>
	LcdMoveTo(1,15);
    48aa:	6f e0       	ldi	r22, 0x0F	; 15
    48ac:	70 e0       	ldi	r23, 0x00	; 0
    48ae:	81 e0       	ldi	r24, 0x01	; 1
    48b0:	90 e0       	ldi	r25, 0x00	; 0
    48b2:	0e 94 ba 05 	call	0xb74	; 0xb74 <LcdMoveTo>
	LcdViewSign(0);
    48b6:	80 e0       	ldi	r24, 0x00	; 0
    48b8:	0e 94 76 05 	call	0xaec	; 0xaec <LcdViewSign>
	sei();
    48bc:	78 94       	sei
	while(1)
	  {
		if(NewKey)										// Oczekiwanie na wcisniecie klawisza
    48be:	80 91 c8 01 	lds	r24, 0x01C8
    48c2:	90 91 c9 01 	lds	r25, 0x01C9
    48c6:	00 97       	sbiw	r24, 0x00	; 0
    48c8:	d1 f3       	breq	.-12     	; 0x48be <main+0x322a>
			{
			cli();
    48ca:	f8 94       	cli
			   if(KeyNum == 0)				
    48cc:	80 91 ca 01 	lds	r24, 0x01CA
    48d0:	90 91 cb 01 	lds	r25, 0x01CB
    48d4:	00 97       	sbiw	r24, 0x00	; 0
    48d6:	09 f0       	breq	.+2      	; 0x48da <main+0x3246>
    48d8:	7f c0       	rjmp	.+254    	; 0x49d8 <main+0x3344>
				 {
					LcdClean();							// Wyczyszczenie LCD
    48da:	0e 94 ae 06 	call	0xd5c	; 0xd5c <LcdClean>
					LcdViewString("By Saya");			// wypisanie imienia , oraz		
    48de:	87 eb       	ldi	r24, 0xB7	; 183
    48e0:	90 e0       	ldi	r25, 0x00	; 0
    48e2:	0e 94 95 05 	call	0xb2a	; 0xb2a <LcdViewString>
					LcdSpace();							// loga . Nastepnie zostaja
    48e6:	0e 94 46 08 	call	0x108c	; 0x108c <LcdSpace>
					LcdViewSign(0);						// odczekane 2 sec a nastepnie
    48ea:	80 e0       	ldi	r24, 0x00	; 0
    48ec:	0e 94 76 05 	call	0xaec	; 0xaec <LcdViewSign>
    48f0:	80 e0       	ldi	r24, 0x00	; 0
    48f2:	90 e0       	ldi	r25, 0x00	; 0
    48f4:	aa e7       	ldi	r26, 0x7A	; 122
    48f6:	b4 e4       	ldi	r27, 0x44	; 68
    48f8:	8b 87       	std	Y+11, r24	; 0x0b
    48fa:	9c 87       	std	Y+12, r25	; 0x0c
    48fc:	ad 87       	std	Y+13, r26	; 0x0d
    48fe:	be 87       	std	Y+14, r27	; 0x0e
 */
void
_delay_ms(double __ms)
{
	uint16_t __ticks;
	double __tmp = ((F_CPU) / 4e3) * __ms;
    4900:	20 e0       	ldi	r18, 0x00	; 0
    4902:	30 e0       	ldi	r19, 0x00	; 0
    4904:	4a e7       	ldi	r20, 0x7A	; 122
    4906:	54 e4       	ldi	r21, 0x44	; 68
    4908:	6b 85       	ldd	r22, Y+11	; 0x0b
    490a:	7c 85       	ldd	r23, Y+12	; 0x0c
    490c:	8d 85       	ldd	r24, Y+13	; 0x0d
    490e:	9e 85       	ldd	r25, Y+14	; 0x0e
    4910:	0e 94 7c 2a 	call	0x54f8	; 0x54f8 <__mulsf3>
    4914:	dc 01       	movw	r26, r24
    4916:	cb 01       	movw	r24, r22
    4918:	8f 83       	std	Y+7, r24	; 0x07
    491a:	98 87       	std	Y+8, r25	; 0x08
    491c:	a9 87       	std	Y+9, r26	; 0x09
    491e:	ba 87       	std	Y+10, r27	; 0x0a
	if (__tmp < 1.0)
    4920:	20 e0       	ldi	r18, 0x00	; 0
    4922:	30 e0       	ldi	r19, 0x00	; 0
    4924:	40 e8       	ldi	r20, 0x80	; 128
    4926:	5f e3       	ldi	r21, 0x3F	; 63
    4928:	6f 81       	ldd	r22, Y+7	; 0x07
    492a:	78 85       	ldd	r23, Y+8	; 0x08
    492c:	89 85       	ldd	r24, Y+9	; 0x09
    492e:	9a 85       	ldd	r25, Y+10	; 0x0a
    4930:	0e 94 80 2c 	call	0x5900	; 0x5900 <__ltsf2>
    4934:	88 23       	and	r24, r24
    4936:	2c f4       	brge	.+10     	; 0x4942 <main+0x32ae>
		__ticks = 1;
    4938:	81 e0       	ldi	r24, 0x01	; 1
    493a:	90 e0       	ldi	r25, 0x00	; 0
    493c:	9e 83       	std	Y+6, r25	; 0x06
    493e:	8d 83       	std	Y+5, r24	; 0x05
    4940:	3f c0       	rjmp	.+126    	; 0x49c0 <main+0x332c>
	else if (__tmp > 65535)
    4942:	20 e0       	ldi	r18, 0x00	; 0
    4944:	3f ef       	ldi	r19, 0xFF	; 255
    4946:	4f e7       	ldi	r20, 0x7F	; 127
    4948:	57 e4       	ldi	r21, 0x47	; 71
    494a:	6f 81       	ldd	r22, Y+7	; 0x07
    494c:	78 85       	ldd	r23, Y+8	; 0x08
    494e:	89 85       	ldd	r24, Y+9	; 0x09
    4950:	9a 85       	ldd	r25, Y+10	; 0x0a
    4952:	0e 94 20 2c 	call	0x5840	; 0x5840 <__gtsf2>
    4956:	18 16       	cp	r1, r24
    4958:	4c f5       	brge	.+82     	; 0x49ac <main+0x3318>
	{
		//	__ticks = requested delay in 1/10 ms
		__ticks = (uint16_t) (__ms * 10.0);
    495a:	20 e0       	ldi	r18, 0x00	; 0
    495c:	30 e0       	ldi	r19, 0x00	; 0
    495e:	40 e2       	ldi	r20, 0x20	; 32
    4960:	51 e4       	ldi	r21, 0x41	; 65
    4962:	6b 85       	ldd	r22, Y+11	; 0x0b
    4964:	7c 85       	ldd	r23, Y+12	; 0x0c
    4966:	8d 85       	ldd	r24, Y+13	; 0x0d
    4968:	9e 85       	ldd	r25, Y+14	; 0x0e
    496a:	0e 94 7c 2a 	call	0x54f8	; 0x54f8 <__mulsf3>
    496e:	dc 01       	movw	r26, r24
    4970:	cb 01       	movw	r24, r22
    4972:	bc 01       	movw	r22, r24
    4974:	cd 01       	movw	r24, r26
    4976:	0e 94 a6 28 	call	0x514c	; 0x514c <__fixunssfsi>
    497a:	dc 01       	movw	r26, r24
    497c:	cb 01       	movw	r24, r22
    497e:	9e 83       	std	Y+6, r25	; 0x06
    4980:	8d 83       	std	Y+5, r24	; 0x05
    4982:	0f c0       	rjmp	.+30     	; 0x49a2 <main+0x330e>
    4984:	84 e6       	ldi	r24, 0x64	; 100
    4986:	90 e0       	ldi	r25, 0x00	; 0
    4988:	9c 83       	std	Y+4, r25	; 0x04
    498a:	8b 83       	std	Y+3, r24	; 0x03
    498c:	8b 81       	ldd	r24, Y+3	; 0x03
    498e:	9c 81       	ldd	r25, Y+4	; 0x04
    4990:	01 97       	sbiw	r24, 0x01	; 1
    4992:	f1 f7       	brne	.-4      	; 0x4990 <main+0x32fc>
    4994:	9c 83       	std	Y+4, r25	; 0x04
    4996:	8b 83       	std	Y+3, r24	; 0x03
		while(__ticks)
		{
			// wait 1/10 ms
			_delay_loop_2(((F_CPU) / 4e3) / 10);
			__ticks --;
    4998:	8d 81       	ldd	r24, Y+5	; 0x05
    499a:	9e 81       	ldd	r25, Y+6	; 0x06
    499c:	01 97       	sbiw	r24, 0x01	; 1
    499e:	9e 83       	std	Y+6, r25	; 0x06
    49a0:	8d 83       	std	Y+5, r24	; 0x05
		__ticks = 1;
	else if (__tmp > 65535)
	{
		//	__ticks = requested delay in 1/10 ms
		__ticks = (uint16_t) (__ms * 10.0);
		while(__ticks)
    49a2:	8d 81       	ldd	r24, Y+5	; 0x05
    49a4:	9e 81       	ldd	r25, Y+6	; 0x06
    49a6:	00 97       	sbiw	r24, 0x00	; 0
    49a8:	69 f7       	brne	.-38     	; 0x4984 <main+0x32f0>
    49aa:	14 c0       	rjmp	.+40     	; 0x49d4 <main+0x3340>
			__ticks --;
		}
		return;
	}
	else
		__ticks = (uint16_t)__tmp;
    49ac:	6f 81       	ldd	r22, Y+7	; 0x07
    49ae:	78 85       	ldd	r23, Y+8	; 0x08
    49b0:	89 85       	ldd	r24, Y+9	; 0x09
    49b2:	9a 85       	ldd	r25, Y+10	; 0x0a
    49b4:	0e 94 a6 28 	call	0x514c	; 0x514c <__fixunssfsi>
    49b8:	dc 01       	movw	r26, r24
    49ba:	cb 01       	movw	r24, r22
    49bc:	9e 83       	std	Y+6, r25	; 0x06
    49be:	8d 83       	std	Y+5, r24	; 0x05
    49c0:	8d 81       	ldd	r24, Y+5	; 0x05
    49c2:	9e 81       	ldd	r25, Y+6	; 0x06
    49c4:	9a 83       	std	Y+2, r25	; 0x02
    49c6:	89 83       	std	Y+1, r24	; 0x01
    49c8:	89 81       	ldd	r24, Y+1	; 0x01
    49ca:	9a 81       	ldd	r25, Y+2	; 0x02
    49cc:	01 97       	sbiw	r24, 0x01	; 1
    49ce:	f1 f7       	brne	.-4      	; 0x49cc <main+0x3338>
    49d0:	9a 83       	std	Y+2, r25	; 0x02
    49d2:	89 83       	std	Y+1, r24	; 0x01
					_delay_ms(1000);					// wyswietlacz zostaje
					LcdRefresh();						// odswiezony
    49d4:	0e 94 7f 25 	call	0x4afe	; 0x4afe <LcdRefresh>
				 }		
			   if(KeyNum == 1)							// Idziemy lista w dol
    49d8:	80 91 ca 01 	lds	r24, 0x01CA
    49dc:	90 91 cb 01 	lds	r25, 0x01CB
    49e0:	81 30       	cpi	r24, 0x01	; 1
    49e2:	91 05       	cpc	r25, r1
    49e4:	59 f5       	brne	.+86     	; 0x4a3c <main+0x33a8>
			   	 {										// wiec nastepuje inkrementacja
				 	++Parametr.MusicNumber;						// numeru utworu
    49e6:	80 91 ce 01 	lds	r24, 0x01CE
    49ea:	8f 70       	andi	r24, 0x0F	; 15
    49ec:	8f 5f       	subi	r24, 0xFF	; 255
    49ee:	8f 70       	andi	r24, 0x0F	; 15
    49f0:	98 2f       	mov	r25, r24
    49f2:	9f 70       	andi	r25, 0x0F	; 15
    49f4:	80 91 ce 01 	lds	r24, 0x01CE
    49f8:	80 7f       	andi	r24, 0xF0	; 240
    49fa:	89 2b       	or	r24, r25
    49fc:	80 93 ce 01 	sts	0x01CE, r24
				 	if( (Parametr.MusicNumber+1) % 2 )					// oraz sprawdzenie warunku
    4a00:	80 91 ce 01 	lds	r24, 0x01CE
    4a04:	8f 70       	andi	r24, 0x0F	; 15
    4a06:	88 2f       	mov	r24, r24
    4a08:	90 e0       	ldi	r25, 0x00	; 0
    4a0a:	01 96       	adiw	r24, 0x01	; 1
    4a0c:	81 70       	andi	r24, 0x01	; 1
    4a0e:	90 70       	andi	r25, 0x00	; 0
    4a10:	88 23       	and	r24, r24
    4a12:	19 f0       	breq	.+6      	; 0x4a1a <main+0x3386>
						{								// czy lista ma juz zostac odswiezona
						  LcdRefresh();					// Dla 3 , 5 , 9... wartosc modulo
    4a14:	0e 94 7f 25 	call	0x4afe	; 0x4afe <LcdRefresh>
    4a18:	11 c0       	rjmp	.+34     	; 0x4a3c <main+0x33a8>
						}								// dzielenia przez 2 daje 1 . Wiec
					else								// wysujemy od nowa liste poczynajac od gory
						{
						LcdMoveTo(1,15);
    4a1a:	6f e0       	ldi	r22, 0x0F	; 15
    4a1c:	70 e0       	ldi	r23, 0x00	; 0
    4a1e:	81 e0       	ldi	r24, 0x01	; 1
    4a20:	90 e0       	ldi	r25, 0x00	; 0
    4a22:	0e 94 ba 05 	call	0xb74	; 0xb74 <LcdMoveTo>
						LcdSpace();
    4a26:	0e 94 46 08 	call	0x108c	; 0x108c <LcdSpace>
						LcdMoveTo(2,15);
    4a2a:	6f e0       	ldi	r22, 0x0F	; 15
    4a2c:	70 e0       	ldi	r23, 0x00	; 0
    4a2e:	82 e0       	ldi	r24, 0x02	; 2
    4a30:	90 e0       	ldi	r25, 0x00	; 0
    4a32:	0e 94 ba 05 	call	0xb74	; 0xb74 <LcdMoveTo>
						LcdViewSign(0);
    4a36:	80 e0       	ldi	r24, 0x00	; 0
    4a38:	0e 94 76 05 	call	0xaec	; 0xaec <LcdViewSign>
						}
				  }
			    if(KeyNum == 2)							// Dziala na takiej zasadzie
    4a3c:	80 91 ca 01 	lds	r24, 0x01CA
    4a40:	90 91 cb 01 	lds	r25, 0x01CB
    4a44:	82 30       	cpi	r24, 0x02	; 2
    4a46:	91 05       	cpc	r25, r1
    4a48:	59 f5       	brne	.+86     	; 0x4aa0 <main+0x340c>
					{									// Jak przewijanie listy w dol
					--Parametr.MusicNumber;
    4a4a:	80 91 ce 01 	lds	r24, 0x01CE
    4a4e:	8f 70       	andi	r24, 0x0F	; 15
    4a50:	81 5f       	subi	r24, 0xF1	; 241
    4a52:	8f 70       	andi	r24, 0x0F	; 15
    4a54:	98 2f       	mov	r25, r24
    4a56:	9f 70       	andi	r25, 0x0F	; 15
    4a58:	80 91 ce 01 	lds	r24, 0x01CE
    4a5c:	80 7f       	andi	r24, 0xF0	; 240
    4a5e:	89 2b       	or	r24, r25
    4a60:	80 93 ce 01 	sts	0x01CE, r24
					if( !((Parametr.MusicNumber+1) % 2))
    4a64:	80 91 ce 01 	lds	r24, 0x01CE
    4a68:	8f 70       	andi	r24, 0x0F	; 15
    4a6a:	88 2f       	mov	r24, r24
    4a6c:	90 e0       	ldi	r25, 0x00	; 0
    4a6e:	01 96       	adiw	r24, 0x01	; 1
    4a70:	81 70       	andi	r24, 0x01	; 1
    4a72:	90 70       	andi	r25, 0x00	; 0
    4a74:	00 97       	sbiw	r24, 0x00	; 0
    4a76:	19 f4       	brne	.+6      	; 0x4a7e <main+0x33ea>
						{
						  LcdRefresh();
    4a78:	0e 94 7f 25 	call	0x4afe	; 0x4afe <LcdRefresh>
    4a7c:	11 c0       	rjmp	.+34     	; 0x4aa0 <main+0x340c>
						}
					else
						{
						LcdMoveTo(2,15);
    4a7e:	6f e0       	ldi	r22, 0x0F	; 15
    4a80:	70 e0       	ldi	r23, 0x00	; 0
    4a82:	82 e0       	ldi	r24, 0x02	; 2
    4a84:	90 e0       	ldi	r25, 0x00	; 0
    4a86:	0e 94 ba 05 	call	0xb74	; 0xb74 <LcdMoveTo>
						LcdSpace();
    4a8a:	0e 94 46 08 	call	0x108c	; 0x108c <LcdSpace>
						LcdMoveTo(1,15);
    4a8e:	6f e0       	ldi	r22, 0x0F	; 15
    4a90:	70 e0       	ldi	r23, 0x00	; 0
    4a92:	81 e0       	ldi	r24, 0x01	; 1
    4a94:	90 e0       	ldi	r25, 0x00	; 0
    4a96:	0e 94 ba 05 	call	0xb74	; 0xb74 <LcdMoveTo>
						LcdViewSign(0);
    4a9a:	80 e0       	ldi	r24, 0x00	; 0
    4a9c:	0e 94 76 05 	call	0xaec	; 0xaec <LcdViewSign>
						}
					}
				if(KeyNum == 5)
    4aa0:	80 91 ca 01 	lds	r24, 0x01CA
    4aa4:	90 91 cb 01 	lds	r25, 0x01CB
    4aa8:	85 30       	cpi	r24, 0x05	; 5
    4aaa:	91 05       	cpc	r25, r1
    4aac:	f9 f4       	brne	.+62     	; 0x4aec <main+0x3458>
					{
					LcdMoveTo(wiersz-1,15);
    4aae:	80 91 60 00 	lds	r24, 0x0060
    4ab2:	90 91 61 00 	lds	r25, 0x0061
    4ab6:	01 97       	sbiw	r24, 0x01	; 1
    4ab8:	6f e0       	ldi	r22, 0x0F	; 15
    4aba:	70 e0       	ldi	r23, 0x00	; 0
    4abc:	0e 94 ba 05 	call	0xb74	; 0xb74 <LcdMoveTo>
					LcdViewSign(1);
    4ac0:	81 e0       	ldi	r24, 0x01	; 1
    4ac2:	0e 94 76 05 	call	0xaec	; 0xaec <LcdViewSign>
					Play(Parametr.MusicNumber);
    4ac6:	80 91 ce 01 	lds	r24, 0x01CE
    4aca:	8f 70       	andi	r24, 0x0F	; 15
    4acc:	88 2f       	mov	r24, r24
    4ace:	90 e0       	ldi	r25, 0x00	; 0
    4ad0:	0e 94 8c 26 	call	0x4d18	; 0x4d18 <Play>
					LcdMoveTo(wiersz-1,15);
    4ad4:	80 91 60 00 	lds	r24, 0x0060
    4ad8:	90 91 61 00 	lds	r25, 0x0061
    4adc:	01 97       	sbiw	r24, 0x01	; 1
    4ade:	6f e0       	ldi	r22, 0x0F	; 15
    4ae0:	70 e0       	ldi	r23, 0x00	; 0
    4ae2:	0e 94 ba 05 	call	0xb74	; 0xb74 <LcdMoveTo>
					LcdViewSign(0);
    4ae6:	80 e0       	ldi	r24, 0x00	; 0
    4ae8:	0e 94 76 05 	call	0xaec	; 0xaec <LcdViewSign>
					}	
			sei();
    4aec:	78 94       	sei
			while(NewKey ==1);
    4aee:	80 91 c8 01 	lds	r24, 0x01C8
    4af2:	90 91 c9 01 	lds	r25, 0x01C9
    4af6:	81 30       	cpi	r24, 0x01	; 1
    4af8:	91 05       	cpc	r25, r1
    4afa:	c9 f3       	breq	.-14     	; 0x4aee <main+0x345a>
    4afc:	e0 ce       	rjmp	.-576    	; 0x48be <main+0x322a>

00004afe <LcdRefresh>:
		
	}
}

void LcdRefresh()
	{
    4afe:	df 93       	push	r29
    4b00:	cf 93       	push	r28
    4b02:	cd b7       	in	r28, 0x3d	; 61
    4b04:	de b7       	in	r29, 0x3e	; 62
	
	LcdClean();
    4b06:	0e 94 ae 06 	call	0xd5c	; 0xd5c <LcdClean>
	if((Parametr.MusicNumber+1) % 2)
    4b0a:	80 91 ce 01 	lds	r24, 0x01CE
    4b0e:	8f 70       	andi	r24, 0x0F	; 15
    4b10:	88 2f       	mov	r24, r24
    4b12:	90 e0       	ldi	r25, 0x00	; 0
    4b14:	01 96       	adiw	r24, 0x01	; 1
    4b16:	81 70       	andi	r24, 0x01	; 1
    4b18:	90 70       	andi	r25, 0x00	; 0
    4b1a:	88 23       	and	r24, r24
    4b1c:	09 f4       	brne	.+2      	; 0x4b20 <LcdRefresh+0x22>
    4b1e:	41 c0       	rjmp	.+130    	; 0x4ba2 <LcdRefresh+0xa4>
		{
			LcdMoveTo(1,0);
    4b20:	60 e0       	ldi	r22, 0x00	; 0
    4b22:	70 e0       	ldi	r23, 0x00	; 0
    4b24:	81 e0       	ldi	r24, 0x01	; 1
    4b26:	90 e0       	ldi	r25, 0x00	; 0
    4b28:	0e 94 ba 05 	call	0xb74	; 0xb74 <LcdMoveTo>
			LcdViewString(MyMelodyBox[Parametr.MusicNumber].title);
    4b2c:	80 91 ce 01 	lds	r24, 0x01CE
    4b30:	8f 70       	andi	r24, 0x0F	; 15
    4b32:	28 2f       	mov	r18, r24
    4b34:	30 e0       	ldi	r19, 0x00	; 0
    4b36:	8b ec       	ldi	r24, 0xCB	; 203
    4b38:	90 e0       	ldi	r25, 0x00	; 0
    4b3a:	ac 01       	movw	r20, r24
    4b3c:	24 9f       	mul	r18, r20
    4b3e:	c0 01       	movw	r24, r0
    4b40:	25 9f       	mul	r18, r21
    4b42:	90 0d       	add	r25, r0
    4b44:	34 9f       	mul	r19, r20
    4b46:	90 0d       	add	r25, r0
    4b48:	11 24       	eor	r1, r1
    4b4a:	fc 01       	movw	r30, r24
    4b4c:	e4 56       	subi	r30, 0x64	; 100
    4b4e:	fd 4f       	sbci	r31, 0xFD	; 253
    4b50:	80 81       	ld	r24, Z
    4b52:	91 81       	ldd	r25, Z+1	; 0x01
    4b54:	0e 94 95 05 	call	0xb2a	; 0xb2a <LcdViewString>
			LcdNewLine();
    4b58:	0e 94 36 07 	call	0xe6c	; 0xe6c <LcdNewLine>
			LcdViewString(MyMelodyBox[Parametr.MusicNumber+1].title);
    4b5c:	80 91 ce 01 	lds	r24, 0x01CE
    4b60:	8f 70       	andi	r24, 0x0F	; 15
    4b62:	88 2f       	mov	r24, r24
    4b64:	90 e0       	ldi	r25, 0x00	; 0
    4b66:	9c 01       	movw	r18, r24
    4b68:	2f 5f       	subi	r18, 0xFF	; 255
    4b6a:	3f 4f       	sbci	r19, 0xFF	; 255
    4b6c:	8b ec       	ldi	r24, 0xCB	; 203
    4b6e:	90 e0       	ldi	r25, 0x00	; 0
    4b70:	ac 01       	movw	r20, r24
    4b72:	24 9f       	mul	r18, r20
    4b74:	c0 01       	movw	r24, r0
    4b76:	25 9f       	mul	r18, r21
    4b78:	90 0d       	add	r25, r0
    4b7a:	34 9f       	mul	r19, r20
    4b7c:	90 0d       	add	r25, r0
    4b7e:	11 24       	eor	r1, r1
    4b80:	fc 01       	movw	r30, r24
    4b82:	e4 56       	subi	r30, 0x64	; 100
    4b84:	fd 4f       	sbci	r31, 0xFD	; 253
    4b86:	80 81       	ld	r24, Z
    4b88:	91 81       	ldd	r25, Z+1	; 0x01
    4b8a:	0e 94 95 05 	call	0xb2a	; 0xb2a <LcdViewString>
			LcdMoveTo(1,15);
    4b8e:	6f e0       	ldi	r22, 0x0F	; 15
    4b90:	70 e0       	ldi	r23, 0x00	; 0
    4b92:	81 e0       	ldi	r24, 0x01	; 1
    4b94:	90 e0       	ldi	r25, 0x00	; 0
    4b96:	0e 94 ba 05 	call	0xb74	; 0xb74 <LcdMoveTo>
			LcdViewSign(0);
    4b9a:	80 e0       	ldi	r24, 0x00	; 0
    4b9c:	0e 94 76 05 	call	0xaec	; 0xaec <LcdViewSign>
    4ba0:	40 c0       	rjmp	.+128    	; 0x4c22 <LcdRefresh+0x124>
		}
	else
		{
			LcdMoveTo(1,0);
    4ba2:	60 e0       	ldi	r22, 0x00	; 0
    4ba4:	70 e0       	ldi	r23, 0x00	; 0
    4ba6:	81 e0       	ldi	r24, 0x01	; 1
    4ba8:	90 e0       	ldi	r25, 0x00	; 0
    4baa:	0e 94 ba 05 	call	0xb74	; 0xb74 <LcdMoveTo>
			LcdViewString(MyMelodyBox[Parametr.MusicNumber-1].title);
    4bae:	80 91 ce 01 	lds	r24, 0x01CE
    4bb2:	8f 70       	andi	r24, 0x0F	; 15
    4bb4:	88 2f       	mov	r24, r24
    4bb6:	90 e0       	ldi	r25, 0x00	; 0
    4bb8:	9c 01       	movw	r18, r24
    4bba:	21 50       	subi	r18, 0x01	; 1
    4bbc:	30 40       	sbci	r19, 0x00	; 0
    4bbe:	8b ec       	ldi	r24, 0xCB	; 203
    4bc0:	90 e0       	ldi	r25, 0x00	; 0
    4bc2:	ac 01       	movw	r20, r24
    4bc4:	24 9f       	mul	r18, r20
    4bc6:	c0 01       	movw	r24, r0
    4bc8:	25 9f       	mul	r18, r21
    4bca:	90 0d       	add	r25, r0
    4bcc:	34 9f       	mul	r19, r20
    4bce:	90 0d       	add	r25, r0
    4bd0:	11 24       	eor	r1, r1
    4bd2:	fc 01       	movw	r30, r24
    4bd4:	e4 56       	subi	r30, 0x64	; 100
    4bd6:	fd 4f       	sbci	r31, 0xFD	; 253
    4bd8:	80 81       	ld	r24, Z
    4bda:	91 81       	ldd	r25, Z+1	; 0x01
    4bdc:	0e 94 95 05 	call	0xb2a	; 0xb2a <LcdViewString>
			LcdNewLine();
    4be0:	0e 94 36 07 	call	0xe6c	; 0xe6c <LcdNewLine>
			LcdViewString(MyMelodyBox[Parametr.MusicNumber].title);
    4be4:	80 91 ce 01 	lds	r24, 0x01CE
    4be8:	8f 70       	andi	r24, 0x0F	; 15
    4bea:	28 2f       	mov	r18, r24
    4bec:	30 e0       	ldi	r19, 0x00	; 0
    4bee:	8b ec       	ldi	r24, 0xCB	; 203
    4bf0:	90 e0       	ldi	r25, 0x00	; 0
    4bf2:	ac 01       	movw	r20, r24
    4bf4:	24 9f       	mul	r18, r20
    4bf6:	c0 01       	movw	r24, r0
    4bf8:	25 9f       	mul	r18, r21
    4bfa:	90 0d       	add	r25, r0
    4bfc:	34 9f       	mul	r19, r20
    4bfe:	90 0d       	add	r25, r0
    4c00:	11 24       	eor	r1, r1
    4c02:	fc 01       	movw	r30, r24
    4c04:	e4 56       	subi	r30, 0x64	; 100
    4c06:	fd 4f       	sbci	r31, 0xFD	; 253
    4c08:	80 81       	ld	r24, Z
    4c0a:	91 81       	ldd	r25, Z+1	; 0x01
    4c0c:	0e 94 95 05 	call	0xb2a	; 0xb2a <LcdViewString>
			LcdMoveTo(2,15);
    4c10:	6f e0       	ldi	r22, 0x0F	; 15
    4c12:	70 e0       	ldi	r23, 0x00	; 0
    4c14:	82 e0       	ldi	r24, 0x02	; 2
    4c16:	90 e0       	ldi	r25, 0x00	; 0
    4c18:	0e 94 ba 05 	call	0xb74	; 0xb74 <LcdMoveTo>
			LcdViewSign(0);
    4c1c:	80 e0       	ldi	r24, 0x00	; 0
    4c1e:	0e 94 76 05 	call	0xaec	; 0xaec <LcdViewSign>
		}
	}
    4c22:	cf 91       	pop	r28
    4c24:	df 91       	pop	r29
    4c26:	08 95       	ret

00004c28 <Count>:

int Count(double Value)
	{
    4c28:	df 93       	push	r29
    4c2a:	cf 93       	push	r28
    4c2c:	00 d0       	rcall	.+0      	; 0x4c2e <Count+0x6>
    4c2e:	00 d0       	rcall	.+0      	; 0x4c30 <Count+0x8>
    4c30:	cd b7       	in	r28, 0x3d	; 61
    4c32:	de b7       	in	r29, 0x3e	; 62
    4c34:	69 83       	std	Y+1, r22	; 0x01
    4c36:	7a 83       	std	Y+2, r23	; 0x02
    4c38:	8b 83       	std	Y+3, r24	; 0x03
    4c3a:	9c 83       	std	Y+4, r25	; 0x04
		return (int) ((SYS_FREQ /(PRESKALER*(Value)))+0.5);
    4c3c:	20 e0       	ldi	r18, 0x00	; 0
    4c3e:	30 e0       	ldi	r19, 0x00	; 0
    4c40:	40 e8       	ldi	r20, 0x80	; 128
    4c42:	52 e4       	ldi	r21, 0x42	; 66
    4c44:	69 81       	ldd	r22, Y+1	; 0x01
    4c46:	7a 81       	ldd	r23, Y+2	; 0x02
    4c48:	8b 81       	ldd	r24, Y+3	; 0x03
    4c4a:	9c 81       	ldd	r25, Y+4	; 0x04
    4c4c:	0e 94 7c 2a 	call	0x54f8	; 0x54f8 <__mulsf3>
    4c50:	dc 01       	movw	r26, r24
    4c52:	cb 01       	movw	r24, r22
    4c54:	9c 01       	movw	r18, r24
    4c56:	ad 01       	movw	r20, r26
    4c58:	60 e0       	ldi	r22, 0x00	; 0
    4c5a:	74 e2       	ldi	r23, 0x24	; 36
    4c5c:	84 e7       	ldi	r24, 0x74	; 116
    4c5e:	9a e4       	ldi	r25, 0x4A	; 74
    4c60:	0e 94 76 2b 	call	0x56ec	; 0x56ec <__divsf3>
    4c64:	dc 01       	movw	r26, r24
    4c66:	cb 01       	movw	r24, r22
    4c68:	20 e0       	ldi	r18, 0x00	; 0
    4c6a:	30 e0       	ldi	r19, 0x00	; 0
    4c6c:	40 e0       	ldi	r20, 0x00	; 0
    4c6e:	5f e3       	ldi	r21, 0x3F	; 63
    4c70:	bc 01       	movw	r22, r24
    4c72:	cd 01       	movw	r24, r26
    4c74:	0e 94 4f 2a 	call	0x549e	; 0x549e <__addsf3>
    4c78:	dc 01       	movw	r26, r24
    4c7a:	cb 01       	movw	r24, r22
    4c7c:	bc 01       	movw	r22, r24
    4c7e:	cd 01       	movw	r24, r26
    4c80:	0e 94 0e 2d 	call	0x5a1c	; 0x5a1c <__fixsfsi>
    4c84:	dc 01       	movw	r26, r24
    4c86:	cb 01       	movw	r24, r22
	}
    4c88:	0f 90       	pop	r0
    4c8a:	0f 90       	pop	r0
    4c8c:	0f 90       	pop	r0
    4c8e:	0f 90       	pop	r0
    4c90:	cf 91       	pop	r28
    4c92:	df 91       	pop	r29
    4c94:	08 95       	ret

00004c96 <CountLoop>:
int CountLoop(double Value)
	{
    4c96:	df 93       	push	r29
    4c98:	cf 93       	push	r28
    4c9a:	00 d0       	rcall	.+0      	; 0x4c9c <CountLoop+0x6>
    4c9c:	00 d0       	rcall	.+0      	; 0x4c9e <CountLoop+0x8>
    4c9e:	cd b7       	in	r28, 0x3d	; 61
    4ca0:	de b7       	in	r29, 0x3e	; 62
    4ca2:	69 83       	std	Y+1, r22	; 0x01
    4ca4:	7a 83       	std	Y+2, r23	; 0x02
    4ca6:	8b 83       	std	Y+3, r24	; 0x03
    4ca8:	9c 83       	std	Y+4, r25	; 0x04
		return (int)((SYS_FREQ /(PRESKALER*(Value)))/255+0.5);
    4caa:	20 e0       	ldi	r18, 0x00	; 0
    4cac:	30 e0       	ldi	r19, 0x00	; 0
    4cae:	40 e8       	ldi	r20, 0x80	; 128
    4cb0:	52 e4       	ldi	r21, 0x42	; 66
    4cb2:	69 81       	ldd	r22, Y+1	; 0x01
    4cb4:	7a 81       	ldd	r23, Y+2	; 0x02
    4cb6:	8b 81       	ldd	r24, Y+3	; 0x03
    4cb8:	9c 81       	ldd	r25, Y+4	; 0x04
    4cba:	0e 94 7c 2a 	call	0x54f8	; 0x54f8 <__mulsf3>
    4cbe:	dc 01       	movw	r26, r24
    4cc0:	cb 01       	movw	r24, r22
    4cc2:	9c 01       	movw	r18, r24
    4cc4:	ad 01       	movw	r20, r26
    4cc6:	60 e0       	ldi	r22, 0x00	; 0
    4cc8:	74 e2       	ldi	r23, 0x24	; 36
    4cca:	84 e7       	ldi	r24, 0x74	; 116
    4ccc:	9a e4       	ldi	r25, 0x4A	; 74
    4cce:	0e 94 76 2b 	call	0x56ec	; 0x56ec <__divsf3>
    4cd2:	dc 01       	movw	r26, r24
    4cd4:	cb 01       	movw	r24, r22
    4cd6:	20 e0       	ldi	r18, 0x00	; 0
    4cd8:	30 e0       	ldi	r19, 0x00	; 0
    4cda:	4f e7       	ldi	r20, 0x7F	; 127
    4cdc:	53 e4       	ldi	r21, 0x43	; 67
    4cde:	bc 01       	movw	r22, r24
    4ce0:	cd 01       	movw	r24, r26
    4ce2:	0e 94 76 2b 	call	0x56ec	; 0x56ec <__divsf3>
    4ce6:	dc 01       	movw	r26, r24
    4ce8:	cb 01       	movw	r24, r22
    4cea:	20 e0       	ldi	r18, 0x00	; 0
    4cec:	30 e0       	ldi	r19, 0x00	; 0
    4cee:	40 e0       	ldi	r20, 0x00	; 0
    4cf0:	5f e3       	ldi	r21, 0x3F	; 63
    4cf2:	bc 01       	movw	r22, r24
    4cf4:	cd 01       	movw	r24, r26
    4cf6:	0e 94 4f 2a 	call	0x549e	; 0x549e <__addsf3>
    4cfa:	dc 01       	movw	r26, r24
    4cfc:	cb 01       	movw	r24, r22
    4cfe:	bc 01       	movw	r22, r24
    4d00:	cd 01       	movw	r24, r26
    4d02:	0e 94 0e 2d 	call	0x5a1c	; 0x5a1c <__fixsfsi>
    4d06:	dc 01       	movw	r26, r24
    4d08:	cb 01       	movw	r24, r22
	}
    4d0a:	0f 90       	pop	r0
    4d0c:	0f 90       	pop	r0
    4d0e:	0f 90       	pop	r0
    4d10:	0f 90       	pop	r0
    4d12:	cf 91       	pop	r28
    4d14:	df 91       	pop	r29
    4d16:	08 95       	ret

00004d18 <Play>:

void Play(int Number)
	{
    4d18:	df 93       	push	r29
    4d1a:	cf 93       	push	r28
    4d1c:	cd b7       	in	r28, 0x3d	; 61
    4d1e:	de b7       	in	r29, 0x3e	; 62
    4d20:	64 97       	sbiw	r28, 0x14	; 20
    4d22:	0f b6       	in	r0, 0x3f	; 63
    4d24:	f8 94       	cli
    4d26:	de bf       	out	0x3e, r29	; 62
    4d28:	0f be       	out	0x3f, r0	; 63
    4d2a:	cd bf       	out	0x3d, r28	; 61
    4d2c:	9c 8b       	std	Y+20, r25	; 0x14
    4d2e:	8b 8b       	std	Y+19, r24	; 0x13
	Parametr.Note_Number = 0 ;
    4d30:	80 91 d1 01 	lds	r24, 0x01D1
    4d34:	8f 73       	andi	r24, 0x3F	; 63
    4d36:	80 93 d1 01 	sts	0x01D1, r24
    4d3a:	80 91 d2 01 	lds	r24, 0x01D2
    4d3e:	80 7f       	andi	r24, 0xF0	; 240
    4d40:	80 93 d2 01 	sts	0x01D2, r24
	TCCR0 = 1<<CS01 | 1<<CS00;	
    4d44:	e3 e5       	ldi	r30, 0x53	; 83
    4d46:	f0 e0       	ldi	r31, 0x00	; 0
    4d48:	83 e0       	ldi	r24, 0x03	; 3
    4d4a:	80 83       	st	Z, r24
	sei();
    4d4c:	78 94       	sei
	int ax = 0 ;
    4d4e:	1a 8a       	std	Y+18, r1	; 0x12
    4d50:	19 8a       	std	Y+17, r1	; 0x11
		for(int i = 0 ; i <= MyMelodyBox[Number].length ;i++)
    4d52:	18 8a       	std	Y+16, r1	; 0x10
    4d54:	1f 86       	std	Y+15, r1	; 0x0f
    4d56:	d0 c1       	rjmp	.+928    	; 0x50f8 <Play+0x3e0>
			{
				ax = i ;
    4d58:	8f 85       	ldd	r24, Y+15	; 0x0f
    4d5a:	98 89       	ldd	r25, Y+16	; 0x10
    4d5c:	9a 8b       	std	Y+18, r25	; 0x12
    4d5e:	89 8b       	std	Y+17, r24	; 0x11
				Parametr.PlayerCounter = Count(MyMelodyBox[Parametr.MusicNumber].Table[i].Note);
    4d60:	80 91 ce 01 	lds	r24, 0x01CE
    4d64:	8f 70       	andi	r24, 0x0F	; 15
    4d66:	48 2f       	mov	r20, r24
    4d68:	50 e0       	ldi	r21, 0x00	; 0
    4d6a:	8f 85       	ldd	r24, Y+15	; 0x0f
    4d6c:	98 89       	ldd	r25, Y+16	; 0x10
    4d6e:	9c 01       	movw	r18, r24
    4d70:	22 0f       	add	r18, r18
    4d72:	33 1f       	adc	r19, r19
    4d74:	8b ec       	ldi	r24, 0xCB	; 203
    4d76:	90 e0       	ldi	r25, 0x00	; 0
    4d78:	bc 01       	movw	r22, r24
    4d7a:	46 9f       	mul	r20, r22
    4d7c:	c0 01       	movw	r24, r0
    4d7e:	47 9f       	mul	r20, r23
    4d80:	90 0d       	add	r25, r0
    4d82:	56 9f       	mul	r21, r22
    4d84:	90 0d       	add	r25, r0
    4d86:	11 24       	eor	r1, r1
    4d88:	82 0f       	add	r24, r18
    4d8a:	93 1f       	adc	r25, r19
    4d8c:	fc 01       	movw	r30, r24
    4d8e:	ed 52       	subi	r30, 0x2D	; 45
    4d90:	fe 4f       	sbci	r31, 0xFE	; 254
    4d92:	80 81       	ld	r24, Z
    4d94:	21 81       	ldd	r18, Z+1	; 0x01
    4d96:	92 2f       	mov	r25, r18
    4d98:	97 70       	andi	r25, 0x07	; 7
    4d9a:	cc 01       	movw	r24, r24
    4d9c:	a0 e0       	ldi	r26, 0x00	; 0
    4d9e:	b0 e0       	ldi	r27, 0x00	; 0
    4da0:	bc 01       	movw	r22, r24
    4da2:	cd 01       	movw	r24, r26
    4da4:	0e 94 62 2d 	call	0x5ac4	; 0x5ac4 <__floatunsisf>
    4da8:	dc 01       	movw	r26, r24
    4daa:	cb 01       	movw	r24, r22
    4dac:	bc 01       	movw	r22, r24
    4dae:	cd 01       	movw	r24, r26
    4db0:	0e 94 14 26 	call	0x4c28	; 0x4c28 <Count>
    4db4:	9c 01       	movw	r18, r24
    4db6:	82 2f       	mov	r24, r18
    4db8:	8f 77       	andi	r24, 0x7F	; 127
    4dba:	98 2f       	mov	r25, r24
    4dbc:	99 0f       	add	r25, r25
    4dbe:	80 91 cf 01 	lds	r24, 0x01CF
    4dc2:	81 70       	andi	r24, 0x01	; 1
    4dc4:	89 2b       	or	r24, r25
    4dc6:	80 93 cf 01 	sts	0x01CF, r24
    4dca:	82 2f       	mov	r24, r18
    4dcc:	88 1f       	adc	r24, r24
    4dce:	88 27       	eor	r24, r24
    4dd0:	88 1f       	adc	r24, r24
    4dd2:	98 2f       	mov	r25, r24
    4dd4:	91 70       	andi	r25, 0x01	; 1
    4dd6:	80 91 d0 01 	lds	r24, 0x01D0
    4dda:	8e 7f       	andi	r24, 0xFE	; 254
    4ddc:	89 2b       	or	r24, r25
    4dde:	80 93 d0 01 	sts	0x01D0, r24
    4de2:	83 2f       	mov	r24, r19
    4de4:	8f 77       	andi	r24, 0x7F	; 127
    4de6:	98 2f       	mov	r25, r24
    4de8:	99 0f       	add	r25, r25
    4dea:	80 91 d0 01 	lds	r24, 0x01D0
    4dee:	81 70       	andi	r24, 0x01	; 1
    4df0:	89 2b       	or	r24, r25
    4df2:	80 93 d0 01 	sts	0x01D0, r24
    4df6:	83 2f       	mov	r24, r19
    4df8:	88 1f       	adc	r24, r24
    4dfa:	88 27       	eor	r24, r24
    4dfc:	88 1f       	adc	r24, r24
    4dfe:	98 2f       	mov	r25, r24
    4e00:	91 70       	andi	r25, 0x01	; 1
    4e02:	80 91 d1 01 	lds	r24, 0x01D1
    4e06:	8e 7f       	andi	r24, 0xFE	; 254
    4e08:	89 2b       	or	r24, r25
    4e0a:	80 93 d1 01 	sts	0x01D1, r24
				TCNT0 = 255 - Parametr.PlayerCounter;
    4e0e:	e2 e5       	ldi	r30, 0x52	; 82
    4e10:	f0 e0       	ldi	r31, 0x00	; 0
    4e12:	80 91 cf 01 	lds	r24, 0x01CF
    4e16:	98 2f       	mov	r25, r24
    4e18:	96 95       	lsr	r25
    4e1a:	80 91 d0 01 	lds	r24, 0x01D0
    4e1e:	81 70       	andi	r24, 0x01	; 1
    4e20:	87 95       	ror	r24
    4e22:	88 27       	eor	r24, r24
    4e24:	87 95       	ror	r24
    4e26:	89 2b       	or	r24, r25
    4e28:	28 2f       	mov	r18, r24
    4e2a:	80 91 d0 01 	lds	r24, 0x01D0
    4e2e:	98 2f       	mov	r25, r24
    4e30:	96 95       	lsr	r25
    4e32:	80 91 d1 01 	lds	r24, 0x01D1
    4e36:	81 70       	andi	r24, 0x01	; 1
    4e38:	87 95       	ror	r24
    4e3a:	88 27       	eor	r24, r24
    4e3c:	87 95       	ror	r24
    4e3e:	89 2b       	or	r24, r25
    4e40:	38 2f       	mov	r19, r24
    4e42:	82 2f       	mov	r24, r18
    4e44:	80 95       	com	r24
    4e46:	80 83       	st	Z, r24
				if(Parametr.PlayerCounter>255)
    4e48:	80 91 cf 01 	lds	r24, 0x01CF
    4e4c:	98 2f       	mov	r25, r24
    4e4e:	96 95       	lsr	r25
    4e50:	80 91 d0 01 	lds	r24, 0x01D0
    4e54:	81 70       	andi	r24, 0x01	; 1
    4e56:	87 95       	ror	r24
    4e58:	88 27       	eor	r24, r24
    4e5a:	87 95       	ror	r24
    4e5c:	89 2b       	or	r24, r25
    4e5e:	28 2f       	mov	r18, r24
    4e60:	80 91 d0 01 	lds	r24, 0x01D0
    4e64:	98 2f       	mov	r25, r24
    4e66:	96 95       	lsr	r25
    4e68:	80 91 d1 01 	lds	r24, 0x01D1
    4e6c:	81 70       	andi	r24, 0x01	; 1
    4e6e:	87 95       	ror	r24
    4e70:	88 27       	eor	r24, r24
    4e72:	87 95       	ror	r24
    4e74:	89 2b       	or	r24, r25
    4e76:	38 2f       	mov	r19, r24
    4e78:	2f 3f       	cpi	r18, 0xFF	; 255
    4e7a:	31 05       	cpc	r19, r1
    4e7c:	09 f0       	breq	.+2      	; 0x4e80 <Play+0x168>
    4e7e:	08 f4       	brcc	.+2      	; 0x4e82 <Play+0x16a>
    4e80:	46 c0       	rjmp	.+140    	; 0x4f0e <Play+0x1f6>
					{
						Parametr.PlayerLoopCounter=CountLoop(MyMelodyBox[Parametr.MusicNumber].Table[i].Note);
    4e82:	80 91 ce 01 	lds	r24, 0x01CE
    4e86:	8f 70       	andi	r24, 0x0F	; 15
    4e88:	48 2f       	mov	r20, r24
    4e8a:	50 e0       	ldi	r21, 0x00	; 0
    4e8c:	8f 85       	ldd	r24, Y+15	; 0x0f
    4e8e:	98 89       	ldd	r25, Y+16	; 0x10
    4e90:	9c 01       	movw	r18, r24
    4e92:	22 0f       	add	r18, r18
    4e94:	33 1f       	adc	r19, r19
    4e96:	8b ec       	ldi	r24, 0xCB	; 203
    4e98:	90 e0       	ldi	r25, 0x00	; 0
    4e9a:	bc 01       	movw	r22, r24
    4e9c:	46 9f       	mul	r20, r22
    4e9e:	c0 01       	movw	r24, r0
    4ea0:	47 9f       	mul	r20, r23
    4ea2:	90 0d       	add	r25, r0
    4ea4:	56 9f       	mul	r21, r22
    4ea6:	90 0d       	add	r25, r0
    4ea8:	11 24       	eor	r1, r1
    4eaa:	82 0f       	add	r24, r18
    4eac:	93 1f       	adc	r25, r19
    4eae:	fc 01       	movw	r30, r24
    4eb0:	ed 52       	subi	r30, 0x2D	; 45
    4eb2:	fe 4f       	sbci	r31, 0xFE	; 254
    4eb4:	80 81       	ld	r24, Z
    4eb6:	21 81       	ldd	r18, Z+1	; 0x01
    4eb8:	92 2f       	mov	r25, r18
    4eba:	97 70       	andi	r25, 0x07	; 7
    4ebc:	cc 01       	movw	r24, r24
    4ebe:	a0 e0       	ldi	r26, 0x00	; 0
    4ec0:	b0 e0       	ldi	r27, 0x00	; 0
    4ec2:	bc 01       	movw	r22, r24
    4ec4:	cd 01       	movw	r24, r26
    4ec6:	0e 94 62 2d 	call	0x5ac4	; 0x5ac4 <__floatunsisf>
    4eca:	dc 01       	movw	r26, r24
    4ecc:	cb 01       	movw	r24, r22
    4ece:	bc 01       	movw	r22, r24
    4ed0:	cd 01       	movw	r24, r26
    4ed2:	0e 94 4b 26 	call	0x4c96	; 0x4c96 <CountLoop>
    4ed6:	28 2f       	mov	r18, r24
    4ed8:	2f 71       	andi	r18, 0x1F	; 31
    4eda:	82 2f       	mov	r24, r18
    4edc:	8f 70       	andi	r24, 0x0F	; 15
    4ede:	98 2f       	mov	r25, r24
    4ee0:	92 95       	swap	r25
    4ee2:	90 7f       	andi	r25, 0xF0	; 240
    4ee4:	80 91 ce 01 	lds	r24, 0x01CE
    4ee8:	8f 70       	andi	r24, 0x0F	; 15
    4eea:	89 2b       	or	r24, r25
    4eec:	80 93 ce 01 	sts	0x01CE, r24
    4ef0:	82 2f       	mov	r24, r18
    4ef2:	82 95       	swap	r24
    4ef4:	8f 70       	andi	r24, 0x0F	; 15
    4ef6:	81 70       	andi	r24, 0x01	; 1
    4ef8:	98 2f       	mov	r25, r24
    4efa:	91 70       	andi	r25, 0x01	; 1
    4efc:	80 91 cf 01 	lds	r24, 0x01CF
    4f00:	8e 7f       	andi	r24, 0xFE	; 254
    4f02:	89 2b       	or	r24, r25
    4f04:	80 93 cf 01 	sts	0x01CF, r24
						TCNT0 = 0 ;
    4f08:	e2 e5       	ldi	r30, 0x52	; 82
    4f0a:	f0 e0       	ldi	r31, 0x00	; 0
    4f0c:	10 82       	st	Z, r1
					}
				_delay_ms(1000*(0.1*MyMelodyBox[Parametr.MusicNumber].Table[i].Notelength))	;
    4f0e:	80 91 ce 01 	lds	r24, 0x01CE
    4f12:	8f 70       	andi	r24, 0x0F	; 15
    4f14:	48 2f       	mov	r20, r24
    4f16:	50 e0       	ldi	r21, 0x00	; 0
    4f18:	8f 85       	ldd	r24, Y+15	; 0x0f
    4f1a:	98 89       	ldd	r25, Y+16	; 0x10
    4f1c:	9c 01       	movw	r18, r24
    4f1e:	22 0f       	add	r18, r18
    4f20:	33 1f       	adc	r19, r19
    4f22:	8b ec       	ldi	r24, 0xCB	; 203
    4f24:	90 e0       	ldi	r25, 0x00	; 0
    4f26:	bc 01       	movw	r22, r24
    4f28:	46 9f       	mul	r20, r22
    4f2a:	c0 01       	movw	r24, r0
    4f2c:	47 9f       	mul	r20, r23
    4f2e:	90 0d       	add	r25, r0
    4f30:	56 9f       	mul	r21, r22
    4f32:	90 0d       	add	r25, r0
    4f34:	11 24       	eor	r1, r1
    4f36:	82 0f       	add	r24, r18
    4f38:	93 1f       	adc	r25, r19
    4f3a:	fc 01       	movw	r30, r24
    4f3c:	ec 52       	subi	r30, 0x2C	; 44
    4f3e:	fe 4f       	sbci	r31, 0xFE	; 254
    4f40:	80 81       	ld	r24, Z
    4f42:	86 95       	lsr	r24
    4f44:	86 95       	lsr	r24
    4f46:	86 95       	lsr	r24
    4f48:	88 2f       	mov	r24, r24
    4f4a:	90 e0       	ldi	r25, 0x00	; 0
    4f4c:	aa 27       	eor	r26, r26
    4f4e:	97 fd       	sbrc	r25, 7
    4f50:	a0 95       	com	r26
    4f52:	ba 2f       	mov	r27, r26
    4f54:	bc 01       	movw	r22, r24
    4f56:	cd 01       	movw	r24, r26
    4f58:	0e 94 b0 2c 	call	0x5960	; 0x5960 <__floatsisf>
    4f5c:	dc 01       	movw	r26, r24
    4f5e:	cb 01       	movw	r24, r22
    4f60:	2d ec       	ldi	r18, 0xCD	; 205
    4f62:	3c ec       	ldi	r19, 0xCC	; 204
    4f64:	4c ec       	ldi	r20, 0xCC	; 204
    4f66:	5d e3       	ldi	r21, 0x3D	; 61
    4f68:	bc 01       	movw	r22, r24
    4f6a:	cd 01       	movw	r24, r26
    4f6c:	0e 94 7c 2a 	call	0x54f8	; 0x54f8 <__mulsf3>
    4f70:	dc 01       	movw	r26, r24
    4f72:	cb 01       	movw	r24, r22
    4f74:	20 e0       	ldi	r18, 0x00	; 0
    4f76:	30 e0       	ldi	r19, 0x00	; 0
    4f78:	4a e7       	ldi	r20, 0x7A	; 122
    4f7a:	54 e4       	ldi	r21, 0x44	; 68
    4f7c:	bc 01       	movw	r22, r24
    4f7e:	cd 01       	movw	r24, r26
    4f80:	0e 94 7c 2a 	call	0x54f8	; 0x54f8 <__mulsf3>
    4f84:	dc 01       	movw	r26, r24
    4f86:	cb 01       	movw	r24, r22
    4f88:	8b 87       	std	Y+11, r24	; 0x0b
    4f8a:	9c 87       	std	Y+12, r25	; 0x0c
    4f8c:	ad 87       	std	Y+13, r26	; 0x0d
    4f8e:	be 87       	std	Y+14, r27	; 0x0e
 */
void
_delay_ms(double __ms)
{
	uint16_t __ticks;
	double __tmp = ((F_CPU) / 4e3) * __ms;
    4f90:	20 e0       	ldi	r18, 0x00	; 0
    4f92:	30 e0       	ldi	r19, 0x00	; 0
    4f94:	4a e7       	ldi	r20, 0x7A	; 122
    4f96:	54 e4       	ldi	r21, 0x44	; 68
    4f98:	6b 85       	ldd	r22, Y+11	; 0x0b
    4f9a:	7c 85       	ldd	r23, Y+12	; 0x0c
    4f9c:	8d 85       	ldd	r24, Y+13	; 0x0d
    4f9e:	9e 85       	ldd	r25, Y+14	; 0x0e
    4fa0:	0e 94 7c 2a 	call	0x54f8	; 0x54f8 <__mulsf3>
    4fa4:	dc 01       	movw	r26, r24
    4fa6:	cb 01       	movw	r24, r22
    4fa8:	8f 83       	std	Y+7, r24	; 0x07
    4faa:	98 87       	std	Y+8, r25	; 0x08
    4fac:	a9 87       	std	Y+9, r26	; 0x09
    4fae:	ba 87       	std	Y+10, r27	; 0x0a
	if (__tmp < 1.0)
    4fb0:	20 e0       	ldi	r18, 0x00	; 0
    4fb2:	30 e0       	ldi	r19, 0x00	; 0
    4fb4:	40 e8       	ldi	r20, 0x80	; 128
    4fb6:	5f e3       	ldi	r21, 0x3F	; 63
    4fb8:	6f 81       	ldd	r22, Y+7	; 0x07
    4fba:	78 85       	ldd	r23, Y+8	; 0x08
    4fbc:	89 85       	ldd	r24, Y+9	; 0x09
    4fbe:	9a 85       	ldd	r25, Y+10	; 0x0a
    4fc0:	0e 94 80 2c 	call	0x5900	; 0x5900 <__ltsf2>
    4fc4:	88 23       	and	r24, r24
    4fc6:	2c f4       	brge	.+10     	; 0x4fd2 <Play+0x2ba>
		__ticks = 1;
    4fc8:	81 e0       	ldi	r24, 0x01	; 1
    4fca:	90 e0       	ldi	r25, 0x00	; 0
    4fcc:	9e 83       	std	Y+6, r25	; 0x06
    4fce:	8d 83       	std	Y+5, r24	; 0x05
    4fd0:	3f c0       	rjmp	.+126    	; 0x5050 <Play+0x338>
	else if (__tmp > 65535)
    4fd2:	20 e0       	ldi	r18, 0x00	; 0
    4fd4:	3f ef       	ldi	r19, 0xFF	; 255
    4fd6:	4f e7       	ldi	r20, 0x7F	; 127
    4fd8:	57 e4       	ldi	r21, 0x47	; 71
    4fda:	6f 81       	ldd	r22, Y+7	; 0x07
    4fdc:	78 85       	ldd	r23, Y+8	; 0x08
    4fde:	89 85       	ldd	r24, Y+9	; 0x09
    4fe0:	9a 85       	ldd	r25, Y+10	; 0x0a
    4fe2:	0e 94 20 2c 	call	0x5840	; 0x5840 <__gtsf2>
    4fe6:	18 16       	cp	r1, r24
    4fe8:	4c f5       	brge	.+82     	; 0x503c <Play+0x324>
	{
		//	__ticks = requested delay in 1/10 ms
		__ticks = (uint16_t) (__ms * 10.0);
    4fea:	20 e0       	ldi	r18, 0x00	; 0
    4fec:	30 e0       	ldi	r19, 0x00	; 0
    4fee:	40 e2       	ldi	r20, 0x20	; 32
    4ff0:	51 e4       	ldi	r21, 0x41	; 65
    4ff2:	6b 85       	ldd	r22, Y+11	; 0x0b
    4ff4:	7c 85       	ldd	r23, Y+12	; 0x0c
    4ff6:	8d 85       	ldd	r24, Y+13	; 0x0d
    4ff8:	9e 85       	ldd	r25, Y+14	; 0x0e
    4ffa:	0e 94 7c 2a 	call	0x54f8	; 0x54f8 <__mulsf3>
    4ffe:	dc 01       	movw	r26, r24
    5000:	cb 01       	movw	r24, r22
    5002:	bc 01       	movw	r22, r24
    5004:	cd 01       	movw	r24, r26
    5006:	0e 94 a6 28 	call	0x514c	; 0x514c <__fixunssfsi>
    500a:	dc 01       	movw	r26, r24
    500c:	cb 01       	movw	r24, r22
    500e:	9e 83       	std	Y+6, r25	; 0x06
    5010:	8d 83       	std	Y+5, r24	; 0x05
    5012:	0f c0       	rjmp	.+30     	; 0x5032 <Play+0x31a>
    5014:	84 e6       	ldi	r24, 0x64	; 100
    5016:	90 e0       	ldi	r25, 0x00	; 0
    5018:	9c 83       	std	Y+4, r25	; 0x04
    501a:	8b 83       	std	Y+3, r24	; 0x03
    501c:	8b 81       	ldd	r24, Y+3	; 0x03
    501e:	9c 81       	ldd	r25, Y+4	; 0x04
    5020:	01 97       	sbiw	r24, 0x01	; 1
    5022:	f1 f7       	brne	.-4      	; 0x5020 <Play+0x308>
    5024:	9c 83       	std	Y+4, r25	; 0x04
    5026:	8b 83       	std	Y+3, r24	; 0x03
		while(__ticks)
		{
			// wait 1/10 ms
			_delay_loop_2(((F_CPU) / 4e3) / 10);
			__ticks --;
    5028:	8d 81       	ldd	r24, Y+5	; 0x05
    502a:	9e 81       	ldd	r25, Y+6	; 0x06
    502c:	01 97       	sbiw	r24, 0x01	; 1
    502e:	9e 83       	std	Y+6, r25	; 0x06
    5030:	8d 83       	std	Y+5, r24	; 0x05
		__ticks = 1;
	else if (__tmp > 65535)
	{
		//	__ticks = requested delay in 1/10 ms
		__ticks = (uint16_t) (__ms * 10.0);
		while(__ticks)
    5032:	8d 81       	ldd	r24, Y+5	; 0x05
    5034:	9e 81       	ldd	r25, Y+6	; 0x06
    5036:	00 97       	sbiw	r24, 0x00	; 0
    5038:	69 f7       	brne	.-38     	; 0x5014 <Play+0x2fc>
    503a:	14 c0       	rjmp	.+40     	; 0x5064 <Play+0x34c>
			__ticks --;
		}
		return;
	}
	else
		__ticks = (uint16_t)__tmp;
    503c:	6f 81       	ldd	r22, Y+7	; 0x07
    503e:	78 85       	ldd	r23, Y+8	; 0x08
    5040:	89 85       	ldd	r24, Y+9	; 0x09
    5042:	9a 85       	ldd	r25, Y+10	; 0x0a
    5044:	0e 94 a6 28 	call	0x514c	; 0x514c <__fixunssfsi>
    5048:	dc 01       	movw	r26, r24
    504a:	cb 01       	movw	r24, r22
    504c:	9e 83       	std	Y+6, r25	; 0x06
    504e:	8d 83       	std	Y+5, r24	; 0x05
    5050:	8d 81       	ldd	r24, Y+5	; 0x05
    5052:	9e 81       	ldd	r25, Y+6	; 0x06
    5054:	9a 83       	std	Y+2, r25	; 0x02
    5056:	89 83       	std	Y+1, r24	; 0x01
    5058:	89 81       	ldd	r24, Y+1	; 0x01
    505a:	9a 81       	ldd	r25, Y+2	; 0x02
    505c:	01 97       	sbiw	r24, 0x01	; 1
    505e:	f1 f7       	brne	.-4      	; 0x505c <Play+0x344>
    5060:	9a 83       	std	Y+2, r25	; 0x02
    5062:	89 83       	std	Y+1, r24	; 0x01
				++Parametr.Note_Number;	
    5064:	80 91 d1 01 	lds	r24, 0x01D1
    5068:	98 2f       	mov	r25, r24
    506a:	92 95       	swap	r25
    506c:	96 95       	lsr	r25
    506e:	96 95       	lsr	r25
    5070:	93 70       	andi	r25, 0x03	; 3
    5072:	80 91 d2 01 	lds	r24, 0x01D2
    5076:	8f 70       	andi	r24, 0x0F	; 15
    5078:	88 0f       	add	r24, r24
    507a:	88 0f       	add	r24, r24
    507c:	89 2b       	or	r24, r25
    507e:	98 2f       	mov	r25, r24
    5080:	9f 5f       	subi	r25, 0xFF	; 255
    5082:	9f 73       	andi	r25, 0x3F	; 63
    5084:	89 2f       	mov	r24, r25
    5086:	83 70       	andi	r24, 0x03	; 3
    5088:	28 2f       	mov	r18, r24
    508a:	22 95       	swap	r18
    508c:	22 0f       	add	r18, r18
    508e:	22 0f       	add	r18, r18
    5090:	20 7c       	andi	r18, 0xC0	; 192
    5092:	80 91 d1 01 	lds	r24, 0x01D1
    5096:	8f 73       	andi	r24, 0x3F	; 63
    5098:	82 2b       	or	r24, r18
    509a:	80 93 d1 01 	sts	0x01D1, r24
    509e:	89 2f       	mov	r24, r25
    50a0:	86 95       	lsr	r24
    50a2:	86 95       	lsr	r24
    50a4:	8f 70       	andi	r24, 0x0F	; 15
    50a6:	98 2f       	mov	r25, r24
    50a8:	9f 70       	andi	r25, 0x0F	; 15
    50aa:	80 91 d2 01 	lds	r24, 0x01D2
    50ae:	80 7f       	andi	r24, 0xF0	; 240
    50b0:	89 2b       	or	r24, r25
    50b2:	80 93 d2 01 	sts	0x01D2, r24
			if(KeyNum == 6){i = MyMelodyBox[Number].length;}
    50b6:	80 91 ca 01 	lds	r24, 0x01CA
    50ba:	90 91 cb 01 	lds	r25, 0x01CB
    50be:	86 30       	cpi	r24, 0x06	; 6
    50c0:	91 05       	cpc	r25, r1
    50c2:	a9 f4       	brne	.+42     	; 0x50ee <Play+0x3d6>
    50c4:	2b 89       	ldd	r18, Y+19	; 0x13
    50c6:	3c 89       	ldd	r19, Y+20	; 0x14
    50c8:	8b ec       	ldi	r24, 0xCB	; 203
    50ca:	90 e0       	ldi	r25, 0x00	; 0
    50cc:	ac 01       	movw	r20, r24
    50ce:	24 9f       	mul	r18, r20
    50d0:	c0 01       	movw	r24, r0
    50d2:	25 9f       	mul	r18, r21
    50d4:	90 0d       	add	r25, r0
    50d6:	34 9f       	mul	r19, r20
    50d8:	90 0d       	add	r25, r0
    50da:	11 24       	eor	r1, r1
    50dc:	fc 01       	movw	r30, r24
    50de:	e5 56       	subi	r30, 0x65	; 101
    50e0:	fd 4f       	sbci	r31, 0xFD	; 253
    50e2:	80 81       	ld	r24, Z
    50e4:	8f 77       	andi	r24, 0x7F	; 127
    50e6:	88 2f       	mov	r24, r24
    50e8:	90 e0       	ldi	r25, 0x00	; 0
    50ea:	98 8b       	std	Y+16, r25	; 0x10
    50ec:	8f 87       	std	Y+15, r24	; 0x0f
	{
	Parametr.Note_Number = 0 ;
	TCCR0 = 1<<CS01 | 1<<CS00;	
	sei();
	int ax = 0 ;
		for(int i = 0 ; i <= MyMelodyBox[Number].length ;i++)
    50ee:	8f 85       	ldd	r24, Y+15	; 0x0f
    50f0:	98 89       	ldd	r25, Y+16	; 0x10
    50f2:	01 96       	adiw	r24, 0x01	; 1
    50f4:	98 8b       	std	Y+16, r25	; 0x10
    50f6:	8f 87       	std	Y+15, r24	; 0x0f
    50f8:	2b 89       	ldd	r18, Y+19	; 0x13
    50fa:	3c 89       	ldd	r19, Y+20	; 0x14
    50fc:	8b ec       	ldi	r24, 0xCB	; 203
    50fe:	90 e0       	ldi	r25, 0x00	; 0
    5100:	bc 01       	movw	r22, r24
    5102:	26 9f       	mul	r18, r22
    5104:	c0 01       	movw	r24, r0
    5106:	27 9f       	mul	r18, r23
    5108:	90 0d       	add	r25, r0
    510a:	36 9f       	mul	r19, r22
    510c:	90 0d       	add	r25, r0
    510e:	11 24       	eor	r1, r1
    5110:	fc 01       	movw	r30, r24
    5112:	e5 56       	subi	r30, 0x65	; 101
    5114:	fd 4f       	sbci	r31, 0xFD	; 253
    5116:	80 81       	ld	r24, Z
    5118:	8f 77       	andi	r24, 0x7F	; 127
    511a:	28 2f       	mov	r18, r24
    511c:	30 e0       	ldi	r19, 0x00	; 0
    511e:	8f 85       	ldd	r24, Y+15	; 0x0f
    5120:	98 89       	ldd	r25, Y+16	; 0x10
    5122:	28 17       	cp	r18, r24
    5124:	39 07       	cpc	r19, r25
    5126:	0c f0       	brlt	.+2      	; 0x512a <Play+0x412>
    5128:	17 ce       	rjmp	.-978    	; 0x4d58 <Play+0x40>
					}
				_delay_ms(1000*(0.1*MyMelodyBox[Parametr.MusicNumber].Table[i].Notelength))	;
				++Parametr.Note_Number;	
			if(KeyNum == 6){i = MyMelodyBox[Number].length;}
			}
	TCCR0 &= ~(1<<CS01 | 1<<CS00);
    512a:	a3 e5       	ldi	r26, 0x53	; 83
    512c:	b0 e0       	ldi	r27, 0x00	; 0
    512e:	e3 e5       	ldi	r30, 0x53	; 83
    5130:	f0 e0       	ldi	r31, 0x00	; 0
    5132:	80 81       	ld	r24, Z
    5134:	8c 7f       	andi	r24, 0xFC	; 252
    5136:	8c 93       	st	X, r24
	//GIFR = 1<<INT0;
	cli();
    5138:	f8 94       	cli
		
	}
    513a:	64 96       	adiw	r28, 0x14	; 20
    513c:	0f b6       	in	r0, 0x3f	; 63
    513e:	f8 94       	cli
    5140:	de bf       	out	0x3e, r29	; 62
    5142:	0f be       	out	0x3f, r0	; 63
    5144:	cd bf       	out	0x3d, r28	; 61
    5146:	cf 91       	pop	r28
    5148:	df 91       	pop	r29
    514a:	08 95       	ret

0000514c <__fixunssfsi>:
    514c:	ef 92       	push	r14
    514e:	ff 92       	push	r15
    5150:	0f 93       	push	r16
    5152:	1f 93       	push	r17
    5154:	7b 01       	movw	r14, r22
    5156:	8c 01       	movw	r16, r24
    5158:	20 e0       	ldi	r18, 0x00	; 0
    515a:	30 e0       	ldi	r19, 0x00	; 0
    515c:	40 e0       	ldi	r20, 0x00	; 0
    515e:	5f e4       	ldi	r21, 0x4F	; 79
    5160:	0e 94 50 2c 	call	0x58a0	; 0x58a0 <__gesf2>
    5164:	88 23       	and	r24, r24
    5166:	8c f0       	brlt	.+34     	; 0x518a <__fixunssfsi+0x3e>
    5168:	20 e0       	ldi	r18, 0x00	; 0
    516a:	30 e0       	ldi	r19, 0x00	; 0
    516c:	40 e0       	ldi	r20, 0x00	; 0
    516e:	5f e4       	ldi	r21, 0x4F	; 79
    5170:	c8 01       	movw	r24, r16
    5172:	b7 01       	movw	r22, r14
    5174:	0e 94 1e 2a 	call	0x543c	; 0x543c <__subsf3>
    5178:	0e 94 0e 2d 	call	0x5a1c	; 0x5a1c <__fixsfsi>
    517c:	9b 01       	movw	r18, r22
    517e:	ac 01       	movw	r20, r24
    5180:	20 50       	subi	r18, 0x00	; 0
    5182:	30 40       	sbci	r19, 0x00	; 0
    5184:	40 40       	sbci	r20, 0x00	; 0
    5186:	50 48       	sbci	r21, 0x80	; 128
    5188:	06 c0       	rjmp	.+12     	; 0x5196 <__fixunssfsi+0x4a>
    518a:	c8 01       	movw	r24, r16
    518c:	b7 01       	movw	r22, r14
    518e:	0e 94 0e 2d 	call	0x5a1c	; 0x5a1c <__fixsfsi>
    5192:	9b 01       	movw	r18, r22
    5194:	ac 01       	movw	r20, r24
    5196:	b9 01       	movw	r22, r18
    5198:	ca 01       	movw	r24, r20
    519a:	1f 91       	pop	r17
    519c:	0f 91       	pop	r16
    519e:	ff 90       	pop	r15
    51a0:	ef 90       	pop	r14
    51a2:	08 95       	ret

000051a4 <_fpadd_parts>:
    51a4:	a0 e0       	ldi	r26, 0x00	; 0
    51a6:	b0 e0       	ldi	r27, 0x00	; 0
    51a8:	e8 ed       	ldi	r30, 0xD8	; 216
    51aa:	f8 e2       	ldi	r31, 0x28	; 40
    51ac:	0c 94 d0 2f 	jmp	0x5fa0	; 0x5fa0 <__prologue_saves__>
    51b0:	dc 01       	movw	r26, r24
    51b2:	2b 01       	movw	r4, r22
    51b4:	fa 01       	movw	r30, r20
    51b6:	9c 91       	ld	r25, X
    51b8:	92 30       	cpi	r25, 0x02	; 2
    51ba:	08 f4       	brcc	.+2      	; 0x51be <_fpadd_parts+0x1a>
    51bc:	39 c1       	rjmp	.+626    	; 0x5430 <_fpadd_parts+0x28c>
    51be:	eb 01       	movw	r28, r22
    51c0:	88 81       	ld	r24, Y
    51c2:	82 30       	cpi	r24, 0x02	; 2
    51c4:	08 f4       	brcc	.+2      	; 0x51c8 <_fpadd_parts+0x24>
    51c6:	33 c1       	rjmp	.+614    	; 0x542e <_fpadd_parts+0x28a>
    51c8:	94 30       	cpi	r25, 0x04	; 4
    51ca:	69 f4       	brne	.+26     	; 0x51e6 <_fpadd_parts+0x42>
    51cc:	84 30       	cpi	r24, 0x04	; 4
    51ce:	09 f0       	breq	.+2      	; 0x51d2 <_fpadd_parts+0x2e>
    51d0:	2f c1       	rjmp	.+606    	; 0x5430 <_fpadd_parts+0x28c>
    51d2:	11 96       	adiw	r26, 0x01	; 1
    51d4:	9c 91       	ld	r25, X
    51d6:	11 97       	sbiw	r26, 0x01	; 1
    51d8:	89 81       	ldd	r24, Y+1	; 0x01
    51da:	98 17       	cp	r25, r24
    51dc:	09 f4       	brne	.+2      	; 0x51e0 <_fpadd_parts+0x3c>
    51de:	28 c1       	rjmp	.+592    	; 0x5430 <_fpadd_parts+0x28c>
    51e0:	af eb       	ldi	r26, 0xBF	; 191
    51e2:	b0 e0       	ldi	r27, 0x00	; 0
    51e4:	25 c1       	rjmp	.+586    	; 0x5430 <_fpadd_parts+0x28c>
    51e6:	84 30       	cpi	r24, 0x04	; 4
    51e8:	09 f4       	brne	.+2      	; 0x51ec <_fpadd_parts+0x48>
    51ea:	21 c1       	rjmp	.+578    	; 0x542e <_fpadd_parts+0x28a>
    51ec:	82 30       	cpi	r24, 0x02	; 2
    51ee:	a9 f4       	brne	.+42     	; 0x521a <_fpadd_parts+0x76>
    51f0:	92 30       	cpi	r25, 0x02	; 2
    51f2:	09 f0       	breq	.+2      	; 0x51f6 <_fpadd_parts+0x52>
    51f4:	1d c1       	rjmp	.+570    	; 0x5430 <_fpadd_parts+0x28c>
    51f6:	9a 01       	movw	r18, r20
    51f8:	ad 01       	movw	r20, r26
    51fa:	88 e0       	ldi	r24, 0x08	; 8
    51fc:	ea 01       	movw	r28, r20
    51fe:	09 90       	ld	r0, Y+
    5200:	ae 01       	movw	r20, r28
    5202:	e9 01       	movw	r28, r18
    5204:	09 92       	st	Y+, r0
    5206:	9e 01       	movw	r18, r28
    5208:	81 50       	subi	r24, 0x01	; 1
    520a:	c1 f7       	brne	.-16     	; 0x51fc <_fpadd_parts+0x58>
    520c:	e2 01       	movw	r28, r4
    520e:	89 81       	ldd	r24, Y+1	; 0x01
    5210:	11 96       	adiw	r26, 0x01	; 1
    5212:	9c 91       	ld	r25, X
    5214:	89 23       	and	r24, r25
    5216:	81 83       	std	Z+1, r24	; 0x01
    5218:	08 c1       	rjmp	.+528    	; 0x542a <_fpadd_parts+0x286>
    521a:	92 30       	cpi	r25, 0x02	; 2
    521c:	09 f4       	brne	.+2      	; 0x5220 <_fpadd_parts+0x7c>
    521e:	07 c1       	rjmp	.+526    	; 0x542e <_fpadd_parts+0x28a>
    5220:	12 96       	adiw	r26, 0x02	; 2
    5222:	2d 90       	ld	r2, X+
    5224:	3c 90       	ld	r3, X
    5226:	13 97       	sbiw	r26, 0x03	; 3
    5228:	eb 01       	movw	r28, r22
    522a:	8a 81       	ldd	r24, Y+2	; 0x02
    522c:	9b 81       	ldd	r25, Y+3	; 0x03
    522e:	14 96       	adiw	r26, 0x04	; 4
    5230:	ad 90       	ld	r10, X+
    5232:	bd 90       	ld	r11, X+
    5234:	cd 90       	ld	r12, X+
    5236:	dc 90       	ld	r13, X
    5238:	17 97       	sbiw	r26, 0x07	; 7
    523a:	ec 80       	ldd	r14, Y+4	; 0x04
    523c:	fd 80       	ldd	r15, Y+5	; 0x05
    523e:	0e 81       	ldd	r16, Y+6	; 0x06
    5240:	1f 81       	ldd	r17, Y+7	; 0x07
    5242:	91 01       	movw	r18, r2
    5244:	28 1b       	sub	r18, r24
    5246:	39 0b       	sbc	r19, r25
    5248:	b9 01       	movw	r22, r18
    524a:	37 ff       	sbrs	r19, 7
    524c:	04 c0       	rjmp	.+8      	; 0x5256 <_fpadd_parts+0xb2>
    524e:	66 27       	eor	r22, r22
    5250:	77 27       	eor	r23, r23
    5252:	62 1b       	sub	r22, r18
    5254:	73 0b       	sbc	r23, r19
    5256:	60 32       	cpi	r22, 0x20	; 32
    5258:	71 05       	cpc	r23, r1
    525a:	0c f0       	brlt	.+2      	; 0x525e <_fpadd_parts+0xba>
    525c:	61 c0       	rjmp	.+194    	; 0x5320 <_fpadd_parts+0x17c>
    525e:	12 16       	cp	r1, r18
    5260:	13 06       	cpc	r1, r19
    5262:	6c f5       	brge	.+90     	; 0x52be <_fpadd_parts+0x11a>
    5264:	37 01       	movw	r6, r14
    5266:	48 01       	movw	r8, r16
    5268:	06 2e       	mov	r0, r22
    526a:	04 c0       	rjmp	.+8      	; 0x5274 <_fpadd_parts+0xd0>
    526c:	96 94       	lsr	r9
    526e:	87 94       	ror	r8
    5270:	77 94       	ror	r7
    5272:	67 94       	ror	r6
    5274:	0a 94       	dec	r0
    5276:	d2 f7       	brpl	.-12     	; 0x526c <_fpadd_parts+0xc8>
    5278:	21 e0       	ldi	r18, 0x01	; 1
    527a:	30 e0       	ldi	r19, 0x00	; 0
    527c:	40 e0       	ldi	r20, 0x00	; 0
    527e:	50 e0       	ldi	r21, 0x00	; 0
    5280:	04 c0       	rjmp	.+8      	; 0x528a <_fpadd_parts+0xe6>
    5282:	22 0f       	add	r18, r18
    5284:	33 1f       	adc	r19, r19
    5286:	44 1f       	adc	r20, r20
    5288:	55 1f       	adc	r21, r21
    528a:	6a 95       	dec	r22
    528c:	d2 f7       	brpl	.-12     	; 0x5282 <_fpadd_parts+0xde>
    528e:	21 50       	subi	r18, 0x01	; 1
    5290:	30 40       	sbci	r19, 0x00	; 0
    5292:	40 40       	sbci	r20, 0x00	; 0
    5294:	50 40       	sbci	r21, 0x00	; 0
    5296:	2e 21       	and	r18, r14
    5298:	3f 21       	and	r19, r15
    529a:	40 23       	and	r20, r16
    529c:	51 23       	and	r21, r17
    529e:	21 15       	cp	r18, r1
    52a0:	31 05       	cpc	r19, r1
    52a2:	41 05       	cpc	r20, r1
    52a4:	51 05       	cpc	r21, r1
    52a6:	21 f0       	breq	.+8      	; 0x52b0 <_fpadd_parts+0x10c>
    52a8:	21 e0       	ldi	r18, 0x01	; 1
    52aa:	30 e0       	ldi	r19, 0x00	; 0
    52ac:	40 e0       	ldi	r20, 0x00	; 0
    52ae:	50 e0       	ldi	r21, 0x00	; 0
    52b0:	79 01       	movw	r14, r18
    52b2:	8a 01       	movw	r16, r20
    52b4:	e6 28       	or	r14, r6
    52b6:	f7 28       	or	r15, r7
    52b8:	08 29       	or	r16, r8
    52ba:	19 29       	or	r17, r9
    52bc:	3c c0       	rjmp	.+120    	; 0x5336 <_fpadd_parts+0x192>
    52be:	23 2b       	or	r18, r19
    52c0:	d1 f1       	breq	.+116    	; 0x5336 <_fpadd_parts+0x192>
    52c2:	26 0e       	add	r2, r22
    52c4:	37 1e       	adc	r3, r23
    52c6:	35 01       	movw	r6, r10
    52c8:	46 01       	movw	r8, r12
    52ca:	06 2e       	mov	r0, r22
    52cc:	04 c0       	rjmp	.+8      	; 0x52d6 <_fpadd_parts+0x132>
    52ce:	96 94       	lsr	r9
    52d0:	87 94       	ror	r8
    52d2:	77 94       	ror	r7
    52d4:	67 94       	ror	r6
    52d6:	0a 94       	dec	r0
    52d8:	d2 f7       	brpl	.-12     	; 0x52ce <_fpadd_parts+0x12a>
    52da:	21 e0       	ldi	r18, 0x01	; 1
    52dc:	30 e0       	ldi	r19, 0x00	; 0
    52de:	40 e0       	ldi	r20, 0x00	; 0
    52e0:	50 e0       	ldi	r21, 0x00	; 0
    52e2:	04 c0       	rjmp	.+8      	; 0x52ec <_fpadd_parts+0x148>
    52e4:	22 0f       	add	r18, r18
    52e6:	33 1f       	adc	r19, r19
    52e8:	44 1f       	adc	r20, r20
    52ea:	55 1f       	adc	r21, r21
    52ec:	6a 95       	dec	r22
    52ee:	d2 f7       	brpl	.-12     	; 0x52e4 <_fpadd_parts+0x140>
    52f0:	21 50       	subi	r18, 0x01	; 1
    52f2:	30 40       	sbci	r19, 0x00	; 0
    52f4:	40 40       	sbci	r20, 0x00	; 0
    52f6:	50 40       	sbci	r21, 0x00	; 0
    52f8:	2a 21       	and	r18, r10
    52fa:	3b 21       	and	r19, r11
    52fc:	4c 21       	and	r20, r12
    52fe:	5d 21       	and	r21, r13
    5300:	21 15       	cp	r18, r1
    5302:	31 05       	cpc	r19, r1
    5304:	41 05       	cpc	r20, r1
    5306:	51 05       	cpc	r21, r1
    5308:	21 f0       	breq	.+8      	; 0x5312 <_fpadd_parts+0x16e>
    530a:	21 e0       	ldi	r18, 0x01	; 1
    530c:	30 e0       	ldi	r19, 0x00	; 0
    530e:	40 e0       	ldi	r20, 0x00	; 0
    5310:	50 e0       	ldi	r21, 0x00	; 0
    5312:	59 01       	movw	r10, r18
    5314:	6a 01       	movw	r12, r20
    5316:	a6 28       	or	r10, r6
    5318:	b7 28       	or	r11, r7
    531a:	c8 28       	or	r12, r8
    531c:	d9 28       	or	r13, r9
    531e:	0b c0       	rjmp	.+22     	; 0x5336 <_fpadd_parts+0x192>
    5320:	82 15       	cp	r24, r2
    5322:	93 05       	cpc	r25, r3
    5324:	2c f0       	brlt	.+10     	; 0x5330 <_fpadd_parts+0x18c>
    5326:	1c 01       	movw	r2, r24
    5328:	aa 24       	eor	r10, r10
    532a:	bb 24       	eor	r11, r11
    532c:	65 01       	movw	r12, r10
    532e:	03 c0       	rjmp	.+6      	; 0x5336 <_fpadd_parts+0x192>
    5330:	ee 24       	eor	r14, r14
    5332:	ff 24       	eor	r15, r15
    5334:	87 01       	movw	r16, r14
    5336:	11 96       	adiw	r26, 0x01	; 1
    5338:	9c 91       	ld	r25, X
    533a:	d2 01       	movw	r26, r4
    533c:	11 96       	adiw	r26, 0x01	; 1
    533e:	8c 91       	ld	r24, X
    5340:	98 17       	cp	r25, r24
    5342:	09 f4       	brne	.+2      	; 0x5346 <_fpadd_parts+0x1a2>
    5344:	45 c0       	rjmp	.+138    	; 0x53d0 <_fpadd_parts+0x22c>
    5346:	99 23       	and	r25, r25
    5348:	39 f0       	breq	.+14     	; 0x5358 <_fpadd_parts+0x1b4>
    534a:	a8 01       	movw	r20, r16
    534c:	97 01       	movw	r18, r14
    534e:	2a 19       	sub	r18, r10
    5350:	3b 09       	sbc	r19, r11
    5352:	4c 09       	sbc	r20, r12
    5354:	5d 09       	sbc	r21, r13
    5356:	06 c0       	rjmp	.+12     	; 0x5364 <_fpadd_parts+0x1c0>
    5358:	a6 01       	movw	r20, r12
    535a:	95 01       	movw	r18, r10
    535c:	2e 19       	sub	r18, r14
    535e:	3f 09       	sbc	r19, r15
    5360:	40 0b       	sbc	r20, r16
    5362:	51 0b       	sbc	r21, r17
    5364:	57 fd       	sbrc	r21, 7
    5366:	08 c0       	rjmp	.+16     	; 0x5378 <_fpadd_parts+0x1d4>
    5368:	11 82       	std	Z+1, r1	; 0x01
    536a:	33 82       	std	Z+3, r3	; 0x03
    536c:	22 82       	std	Z+2, r2	; 0x02
    536e:	24 83       	std	Z+4, r18	; 0x04
    5370:	35 83       	std	Z+5, r19	; 0x05
    5372:	46 83       	std	Z+6, r20	; 0x06
    5374:	57 83       	std	Z+7, r21	; 0x07
    5376:	1d c0       	rjmp	.+58     	; 0x53b2 <_fpadd_parts+0x20e>
    5378:	81 e0       	ldi	r24, 0x01	; 1
    537a:	81 83       	std	Z+1, r24	; 0x01
    537c:	33 82       	std	Z+3, r3	; 0x03
    537e:	22 82       	std	Z+2, r2	; 0x02
    5380:	88 27       	eor	r24, r24
    5382:	99 27       	eor	r25, r25
    5384:	dc 01       	movw	r26, r24
    5386:	82 1b       	sub	r24, r18
    5388:	93 0b       	sbc	r25, r19
    538a:	a4 0b       	sbc	r26, r20
    538c:	b5 0b       	sbc	r27, r21
    538e:	84 83       	std	Z+4, r24	; 0x04
    5390:	95 83       	std	Z+5, r25	; 0x05
    5392:	a6 83       	std	Z+6, r26	; 0x06
    5394:	b7 83       	std	Z+7, r27	; 0x07
    5396:	0d c0       	rjmp	.+26     	; 0x53b2 <_fpadd_parts+0x20e>
    5398:	22 0f       	add	r18, r18
    539a:	33 1f       	adc	r19, r19
    539c:	44 1f       	adc	r20, r20
    539e:	55 1f       	adc	r21, r21
    53a0:	24 83       	std	Z+4, r18	; 0x04
    53a2:	35 83       	std	Z+5, r19	; 0x05
    53a4:	46 83       	std	Z+6, r20	; 0x06
    53a6:	57 83       	std	Z+7, r21	; 0x07
    53a8:	82 81       	ldd	r24, Z+2	; 0x02
    53aa:	93 81       	ldd	r25, Z+3	; 0x03
    53ac:	01 97       	sbiw	r24, 0x01	; 1
    53ae:	93 83       	std	Z+3, r25	; 0x03
    53b0:	82 83       	std	Z+2, r24	; 0x02
    53b2:	24 81       	ldd	r18, Z+4	; 0x04
    53b4:	35 81       	ldd	r19, Z+5	; 0x05
    53b6:	46 81       	ldd	r20, Z+6	; 0x06
    53b8:	57 81       	ldd	r21, Z+7	; 0x07
    53ba:	da 01       	movw	r26, r20
    53bc:	c9 01       	movw	r24, r18
    53be:	01 97       	sbiw	r24, 0x01	; 1
    53c0:	a1 09       	sbc	r26, r1
    53c2:	b1 09       	sbc	r27, r1
    53c4:	8f 5f       	subi	r24, 0xFF	; 255
    53c6:	9f 4f       	sbci	r25, 0xFF	; 255
    53c8:	af 4f       	sbci	r26, 0xFF	; 255
    53ca:	bf 43       	sbci	r27, 0x3F	; 63
    53cc:	28 f3       	brcs	.-54     	; 0x5398 <_fpadd_parts+0x1f4>
    53ce:	0b c0       	rjmp	.+22     	; 0x53e6 <_fpadd_parts+0x242>
    53d0:	91 83       	std	Z+1, r25	; 0x01
    53d2:	33 82       	std	Z+3, r3	; 0x03
    53d4:	22 82       	std	Z+2, r2	; 0x02
    53d6:	ea 0c       	add	r14, r10
    53d8:	fb 1c       	adc	r15, r11
    53da:	0c 1d       	adc	r16, r12
    53dc:	1d 1d       	adc	r17, r13
    53de:	e4 82       	std	Z+4, r14	; 0x04
    53e0:	f5 82       	std	Z+5, r15	; 0x05
    53e2:	06 83       	std	Z+6, r16	; 0x06
    53e4:	17 83       	std	Z+7, r17	; 0x07
    53e6:	83 e0       	ldi	r24, 0x03	; 3
    53e8:	80 83       	st	Z, r24
    53ea:	24 81       	ldd	r18, Z+4	; 0x04
    53ec:	35 81       	ldd	r19, Z+5	; 0x05
    53ee:	46 81       	ldd	r20, Z+6	; 0x06
    53f0:	57 81       	ldd	r21, Z+7	; 0x07
    53f2:	57 ff       	sbrs	r21, 7
    53f4:	1a c0       	rjmp	.+52     	; 0x542a <_fpadd_parts+0x286>
    53f6:	c9 01       	movw	r24, r18
    53f8:	aa 27       	eor	r26, r26
    53fa:	97 fd       	sbrc	r25, 7
    53fc:	a0 95       	com	r26
    53fe:	ba 2f       	mov	r27, r26
    5400:	81 70       	andi	r24, 0x01	; 1
    5402:	90 70       	andi	r25, 0x00	; 0
    5404:	a0 70       	andi	r26, 0x00	; 0
    5406:	b0 70       	andi	r27, 0x00	; 0
    5408:	56 95       	lsr	r21
    540a:	47 95       	ror	r20
    540c:	37 95       	ror	r19
    540e:	27 95       	ror	r18
    5410:	82 2b       	or	r24, r18
    5412:	93 2b       	or	r25, r19
    5414:	a4 2b       	or	r26, r20
    5416:	b5 2b       	or	r27, r21
    5418:	84 83       	std	Z+4, r24	; 0x04
    541a:	95 83       	std	Z+5, r25	; 0x05
    541c:	a6 83       	std	Z+6, r26	; 0x06
    541e:	b7 83       	std	Z+7, r27	; 0x07
    5420:	82 81       	ldd	r24, Z+2	; 0x02
    5422:	93 81       	ldd	r25, Z+3	; 0x03
    5424:	01 96       	adiw	r24, 0x01	; 1
    5426:	93 83       	std	Z+3, r25	; 0x03
    5428:	82 83       	std	Z+2, r24	; 0x02
    542a:	df 01       	movw	r26, r30
    542c:	01 c0       	rjmp	.+2      	; 0x5430 <_fpadd_parts+0x28c>
    542e:	d2 01       	movw	r26, r4
    5430:	cd 01       	movw	r24, r26
    5432:	cd b7       	in	r28, 0x3d	; 61
    5434:	de b7       	in	r29, 0x3e	; 62
    5436:	e2 e1       	ldi	r30, 0x12	; 18
    5438:	0c 94 ec 2f 	jmp	0x5fd8	; 0x5fd8 <__epilogue_restores__>

0000543c <__subsf3>:
    543c:	a0 e2       	ldi	r26, 0x20	; 32
    543e:	b0 e0       	ldi	r27, 0x00	; 0
    5440:	e4 e2       	ldi	r30, 0x24	; 36
    5442:	fa e2       	ldi	r31, 0x2A	; 42
    5444:	0c 94 dc 2f 	jmp	0x5fb8	; 0x5fb8 <__prologue_saves__+0x18>
    5448:	69 83       	std	Y+1, r22	; 0x01
    544a:	7a 83       	std	Y+2, r23	; 0x02
    544c:	8b 83       	std	Y+3, r24	; 0x03
    544e:	9c 83       	std	Y+4, r25	; 0x04
    5450:	2d 83       	std	Y+5, r18	; 0x05
    5452:	3e 83       	std	Y+6, r19	; 0x06
    5454:	4f 83       	std	Y+7, r20	; 0x07
    5456:	58 87       	std	Y+8, r21	; 0x08
    5458:	e9 e0       	ldi	r30, 0x09	; 9
    545a:	ee 2e       	mov	r14, r30
    545c:	f1 2c       	mov	r15, r1
    545e:	ec 0e       	add	r14, r28
    5460:	fd 1e       	adc	r15, r29
    5462:	b7 01       	movw	r22, r14
    5464:	ce 01       	movw	r24, r28
    5466:	01 96       	adiw	r24, 0x01	; 1
    5468:	0e 94 ff 2e 	call	0x5dfe	; 0x5dfe <__unpack_f>
    546c:	8e 01       	movw	r16, r28
    546e:	0f 5e       	subi	r16, 0xEF	; 239
    5470:	1f 4f       	sbci	r17, 0xFF	; 255
    5472:	b8 01       	movw	r22, r16
    5474:	ce 01       	movw	r24, r28
    5476:	05 96       	adiw	r24, 0x05	; 5
    5478:	0e 94 ff 2e 	call	0x5dfe	; 0x5dfe <__unpack_f>
    547c:	8a 89       	ldd	r24, Y+18	; 0x12
    547e:	91 e0       	ldi	r25, 0x01	; 1
    5480:	89 27       	eor	r24, r25
    5482:	8a 8b       	std	Y+18, r24	; 0x12
    5484:	ae 01       	movw	r20, r28
    5486:	47 5e       	subi	r20, 0xE7	; 231
    5488:	5f 4f       	sbci	r21, 0xFF	; 255
    548a:	b8 01       	movw	r22, r16
    548c:	c7 01       	movw	r24, r14
    548e:	0e 94 d2 28 	call	0x51a4	; 0x51a4 <_fpadd_parts>
    5492:	0e 94 2a 2e 	call	0x5c54	; 0x5c54 <__pack_f>
    5496:	a0 96       	adiw	r28, 0x20	; 32
    5498:	e6 e0       	ldi	r30, 0x06	; 6
    549a:	0c 94 f8 2f 	jmp	0x5ff0	; 0x5ff0 <__epilogue_restores__+0x18>

0000549e <__addsf3>:
    549e:	a0 e2       	ldi	r26, 0x20	; 32
    54a0:	b0 e0       	ldi	r27, 0x00	; 0
    54a2:	e5 e5       	ldi	r30, 0x55	; 85
    54a4:	fa e2       	ldi	r31, 0x2A	; 42
    54a6:	0c 94 dc 2f 	jmp	0x5fb8	; 0x5fb8 <__prologue_saves__+0x18>
    54aa:	69 83       	std	Y+1, r22	; 0x01
    54ac:	7a 83       	std	Y+2, r23	; 0x02
    54ae:	8b 83       	std	Y+3, r24	; 0x03
    54b0:	9c 83       	std	Y+4, r25	; 0x04
    54b2:	2d 83       	std	Y+5, r18	; 0x05
    54b4:	3e 83       	std	Y+6, r19	; 0x06
    54b6:	4f 83       	std	Y+7, r20	; 0x07
    54b8:	58 87       	std	Y+8, r21	; 0x08
    54ba:	f9 e0       	ldi	r31, 0x09	; 9
    54bc:	ef 2e       	mov	r14, r31
    54be:	f1 2c       	mov	r15, r1
    54c0:	ec 0e       	add	r14, r28
    54c2:	fd 1e       	adc	r15, r29
    54c4:	b7 01       	movw	r22, r14
    54c6:	ce 01       	movw	r24, r28
    54c8:	01 96       	adiw	r24, 0x01	; 1
    54ca:	0e 94 ff 2e 	call	0x5dfe	; 0x5dfe <__unpack_f>
    54ce:	8e 01       	movw	r16, r28
    54d0:	0f 5e       	subi	r16, 0xEF	; 239
    54d2:	1f 4f       	sbci	r17, 0xFF	; 255
    54d4:	b8 01       	movw	r22, r16
    54d6:	ce 01       	movw	r24, r28
    54d8:	05 96       	adiw	r24, 0x05	; 5
    54da:	0e 94 ff 2e 	call	0x5dfe	; 0x5dfe <__unpack_f>
    54de:	ae 01       	movw	r20, r28
    54e0:	47 5e       	subi	r20, 0xE7	; 231
    54e2:	5f 4f       	sbci	r21, 0xFF	; 255
    54e4:	b8 01       	movw	r22, r16
    54e6:	c7 01       	movw	r24, r14
    54e8:	0e 94 d2 28 	call	0x51a4	; 0x51a4 <_fpadd_parts>
    54ec:	0e 94 2a 2e 	call	0x5c54	; 0x5c54 <__pack_f>
    54f0:	a0 96       	adiw	r28, 0x20	; 32
    54f2:	e6 e0       	ldi	r30, 0x06	; 6
    54f4:	0c 94 f8 2f 	jmp	0x5ff0	; 0x5ff0 <__epilogue_restores__+0x18>

000054f8 <__mulsf3>:
    54f8:	a0 e2       	ldi	r26, 0x20	; 32
    54fa:	b0 e0       	ldi	r27, 0x00	; 0
    54fc:	e2 e8       	ldi	r30, 0x82	; 130
    54fe:	fa e2       	ldi	r31, 0x2A	; 42
    5500:	0c 94 d0 2f 	jmp	0x5fa0	; 0x5fa0 <__prologue_saves__>
    5504:	69 83       	std	Y+1, r22	; 0x01
    5506:	7a 83       	std	Y+2, r23	; 0x02
    5508:	8b 83       	std	Y+3, r24	; 0x03
    550a:	9c 83       	std	Y+4, r25	; 0x04
    550c:	2d 83       	std	Y+5, r18	; 0x05
    550e:	3e 83       	std	Y+6, r19	; 0x06
    5510:	4f 83       	std	Y+7, r20	; 0x07
    5512:	58 87       	std	Y+8, r21	; 0x08
    5514:	be 01       	movw	r22, r28
    5516:	67 5f       	subi	r22, 0xF7	; 247
    5518:	7f 4f       	sbci	r23, 0xFF	; 255
    551a:	ce 01       	movw	r24, r28
    551c:	01 96       	adiw	r24, 0x01	; 1
    551e:	0e 94 ff 2e 	call	0x5dfe	; 0x5dfe <__unpack_f>
    5522:	be 01       	movw	r22, r28
    5524:	6f 5e       	subi	r22, 0xEF	; 239
    5526:	7f 4f       	sbci	r23, 0xFF	; 255
    5528:	ce 01       	movw	r24, r28
    552a:	05 96       	adiw	r24, 0x05	; 5
    552c:	0e 94 ff 2e 	call	0x5dfe	; 0x5dfe <__unpack_f>
    5530:	99 85       	ldd	r25, Y+9	; 0x09
    5532:	92 30       	cpi	r25, 0x02	; 2
    5534:	88 f0       	brcs	.+34     	; 0x5558 <__mulsf3+0x60>
    5536:	89 89       	ldd	r24, Y+17	; 0x11
    5538:	82 30       	cpi	r24, 0x02	; 2
    553a:	c8 f0       	brcs	.+50     	; 0x556e <__mulsf3+0x76>
    553c:	94 30       	cpi	r25, 0x04	; 4
    553e:	19 f4       	brne	.+6      	; 0x5546 <__mulsf3+0x4e>
    5540:	82 30       	cpi	r24, 0x02	; 2
    5542:	51 f4       	brne	.+20     	; 0x5558 <__mulsf3+0x60>
    5544:	04 c0       	rjmp	.+8      	; 0x554e <__mulsf3+0x56>
    5546:	84 30       	cpi	r24, 0x04	; 4
    5548:	29 f4       	brne	.+10     	; 0x5554 <__mulsf3+0x5c>
    554a:	92 30       	cpi	r25, 0x02	; 2
    554c:	81 f4       	brne	.+32     	; 0x556e <__mulsf3+0x76>
    554e:	8f eb       	ldi	r24, 0xBF	; 191
    5550:	90 e0       	ldi	r25, 0x00	; 0
    5552:	c6 c0       	rjmp	.+396    	; 0x56e0 <__mulsf3+0x1e8>
    5554:	92 30       	cpi	r25, 0x02	; 2
    5556:	49 f4       	brne	.+18     	; 0x556a <__mulsf3+0x72>
    5558:	20 e0       	ldi	r18, 0x00	; 0
    555a:	9a 85       	ldd	r25, Y+10	; 0x0a
    555c:	8a 89       	ldd	r24, Y+18	; 0x12
    555e:	98 13       	cpse	r25, r24
    5560:	21 e0       	ldi	r18, 0x01	; 1
    5562:	2a 87       	std	Y+10, r18	; 0x0a
    5564:	ce 01       	movw	r24, r28
    5566:	09 96       	adiw	r24, 0x09	; 9
    5568:	bb c0       	rjmp	.+374    	; 0x56e0 <__mulsf3+0x1e8>
    556a:	82 30       	cpi	r24, 0x02	; 2
    556c:	49 f4       	brne	.+18     	; 0x5580 <__mulsf3+0x88>
    556e:	20 e0       	ldi	r18, 0x00	; 0
    5570:	9a 85       	ldd	r25, Y+10	; 0x0a
    5572:	8a 89       	ldd	r24, Y+18	; 0x12
    5574:	98 13       	cpse	r25, r24
    5576:	21 e0       	ldi	r18, 0x01	; 1
    5578:	2a 8b       	std	Y+18, r18	; 0x12
    557a:	ce 01       	movw	r24, r28
    557c:	41 96       	adiw	r24, 0x11	; 17
    557e:	b0 c0       	rjmp	.+352    	; 0x56e0 <__mulsf3+0x1e8>
    5580:	2d 84       	ldd	r2, Y+13	; 0x0d
    5582:	3e 84       	ldd	r3, Y+14	; 0x0e
    5584:	4f 84       	ldd	r4, Y+15	; 0x0f
    5586:	58 88       	ldd	r5, Y+16	; 0x10
    5588:	6d 88       	ldd	r6, Y+21	; 0x15
    558a:	7e 88       	ldd	r7, Y+22	; 0x16
    558c:	8f 88       	ldd	r8, Y+23	; 0x17
    558e:	98 8c       	ldd	r9, Y+24	; 0x18
    5590:	ee 24       	eor	r14, r14
    5592:	ff 24       	eor	r15, r15
    5594:	87 01       	movw	r16, r14
    5596:	aa 24       	eor	r10, r10
    5598:	bb 24       	eor	r11, r11
    559a:	65 01       	movw	r12, r10
    559c:	40 e0       	ldi	r20, 0x00	; 0
    559e:	50 e0       	ldi	r21, 0x00	; 0
    55a0:	60 e0       	ldi	r22, 0x00	; 0
    55a2:	70 e0       	ldi	r23, 0x00	; 0
    55a4:	e0 e0       	ldi	r30, 0x00	; 0
    55a6:	f0 e0       	ldi	r31, 0x00	; 0
    55a8:	c1 01       	movw	r24, r2
    55aa:	81 70       	andi	r24, 0x01	; 1
    55ac:	90 70       	andi	r25, 0x00	; 0
    55ae:	89 2b       	or	r24, r25
    55b0:	e9 f0       	breq	.+58     	; 0x55ec <__mulsf3+0xf4>
    55b2:	e6 0c       	add	r14, r6
    55b4:	f7 1c       	adc	r15, r7
    55b6:	08 1d       	adc	r16, r8
    55b8:	19 1d       	adc	r17, r9
    55ba:	9a 01       	movw	r18, r20
    55bc:	ab 01       	movw	r20, r22
    55be:	2a 0d       	add	r18, r10
    55c0:	3b 1d       	adc	r19, r11
    55c2:	4c 1d       	adc	r20, r12
    55c4:	5d 1d       	adc	r21, r13
    55c6:	80 e0       	ldi	r24, 0x00	; 0
    55c8:	90 e0       	ldi	r25, 0x00	; 0
    55ca:	a0 e0       	ldi	r26, 0x00	; 0
    55cc:	b0 e0       	ldi	r27, 0x00	; 0
    55ce:	e6 14       	cp	r14, r6
    55d0:	f7 04       	cpc	r15, r7
    55d2:	08 05       	cpc	r16, r8
    55d4:	19 05       	cpc	r17, r9
    55d6:	20 f4       	brcc	.+8      	; 0x55e0 <__mulsf3+0xe8>
    55d8:	81 e0       	ldi	r24, 0x01	; 1
    55da:	90 e0       	ldi	r25, 0x00	; 0
    55dc:	a0 e0       	ldi	r26, 0x00	; 0
    55de:	b0 e0       	ldi	r27, 0x00	; 0
    55e0:	ba 01       	movw	r22, r20
    55e2:	a9 01       	movw	r20, r18
    55e4:	48 0f       	add	r20, r24
    55e6:	59 1f       	adc	r21, r25
    55e8:	6a 1f       	adc	r22, r26
    55ea:	7b 1f       	adc	r23, r27
    55ec:	aa 0c       	add	r10, r10
    55ee:	bb 1c       	adc	r11, r11
    55f0:	cc 1c       	adc	r12, r12
    55f2:	dd 1c       	adc	r13, r13
    55f4:	97 fe       	sbrs	r9, 7
    55f6:	08 c0       	rjmp	.+16     	; 0x5608 <__mulsf3+0x110>
    55f8:	81 e0       	ldi	r24, 0x01	; 1
    55fa:	90 e0       	ldi	r25, 0x00	; 0
    55fc:	a0 e0       	ldi	r26, 0x00	; 0
    55fe:	b0 e0       	ldi	r27, 0x00	; 0
    5600:	a8 2a       	or	r10, r24
    5602:	b9 2a       	or	r11, r25
    5604:	ca 2a       	or	r12, r26
    5606:	db 2a       	or	r13, r27
    5608:	31 96       	adiw	r30, 0x01	; 1
    560a:	e0 32       	cpi	r30, 0x20	; 32
    560c:	f1 05       	cpc	r31, r1
    560e:	49 f0       	breq	.+18     	; 0x5622 <__mulsf3+0x12a>
    5610:	66 0c       	add	r6, r6
    5612:	77 1c       	adc	r7, r7
    5614:	88 1c       	adc	r8, r8
    5616:	99 1c       	adc	r9, r9
    5618:	56 94       	lsr	r5
    561a:	47 94       	ror	r4
    561c:	37 94       	ror	r3
    561e:	27 94       	ror	r2
    5620:	c3 cf       	rjmp	.-122    	; 0x55a8 <__mulsf3+0xb0>
    5622:	fa 85       	ldd	r31, Y+10	; 0x0a
    5624:	ea 89       	ldd	r30, Y+18	; 0x12
    5626:	2b 89       	ldd	r18, Y+19	; 0x13
    5628:	3c 89       	ldd	r19, Y+20	; 0x14
    562a:	8b 85       	ldd	r24, Y+11	; 0x0b
    562c:	9c 85       	ldd	r25, Y+12	; 0x0c
    562e:	28 0f       	add	r18, r24
    5630:	39 1f       	adc	r19, r25
    5632:	2e 5f       	subi	r18, 0xFE	; 254
    5634:	3f 4f       	sbci	r19, 0xFF	; 255
    5636:	17 c0       	rjmp	.+46     	; 0x5666 <__mulsf3+0x16e>
    5638:	ca 01       	movw	r24, r20
    563a:	81 70       	andi	r24, 0x01	; 1
    563c:	90 70       	andi	r25, 0x00	; 0
    563e:	89 2b       	or	r24, r25
    5640:	61 f0       	breq	.+24     	; 0x565a <__mulsf3+0x162>
    5642:	16 95       	lsr	r17
    5644:	07 95       	ror	r16
    5646:	f7 94       	ror	r15
    5648:	e7 94       	ror	r14
    564a:	80 e0       	ldi	r24, 0x00	; 0
    564c:	90 e0       	ldi	r25, 0x00	; 0
    564e:	a0 e0       	ldi	r26, 0x00	; 0
    5650:	b0 e8       	ldi	r27, 0x80	; 128
    5652:	e8 2a       	or	r14, r24
    5654:	f9 2a       	or	r15, r25
    5656:	0a 2b       	or	r16, r26
    5658:	1b 2b       	or	r17, r27
    565a:	76 95       	lsr	r23
    565c:	67 95       	ror	r22
    565e:	57 95       	ror	r21
    5660:	47 95       	ror	r20
    5662:	2f 5f       	subi	r18, 0xFF	; 255
    5664:	3f 4f       	sbci	r19, 0xFF	; 255
    5666:	77 fd       	sbrc	r23, 7
    5668:	e7 cf       	rjmp	.-50     	; 0x5638 <__mulsf3+0x140>
    566a:	0c c0       	rjmp	.+24     	; 0x5684 <__mulsf3+0x18c>
    566c:	44 0f       	add	r20, r20
    566e:	55 1f       	adc	r21, r21
    5670:	66 1f       	adc	r22, r22
    5672:	77 1f       	adc	r23, r23
    5674:	17 fd       	sbrc	r17, 7
    5676:	41 60       	ori	r20, 0x01	; 1
    5678:	ee 0c       	add	r14, r14
    567a:	ff 1c       	adc	r15, r15
    567c:	00 1f       	adc	r16, r16
    567e:	11 1f       	adc	r17, r17
    5680:	21 50       	subi	r18, 0x01	; 1
    5682:	30 40       	sbci	r19, 0x00	; 0
    5684:	40 30       	cpi	r20, 0x00	; 0
    5686:	90 e0       	ldi	r25, 0x00	; 0
    5688:	59 07       	cpc	r21, r25
    568a:	90 e0       	ldi	r25, 0x00	; 0
    568c:	69 07       	cpc	r22, r25
    568e:	90 e4       	ldi	r25, 0x40	; 64
    5690:	79 07       	cpc	r23, r25
    5692:	60 f3       	brcs	.-40     	; 0x566c <__mulsf3+0x174>
    5694:	2b 8f       	std	Y+27, r18	; 0x1b
    5696:	3c 8f       	std	Y+28, r19	; 0x1c
    5698:	db 01       	movw	r26, r22
    569a:	ca 01       	movw	r24, r20
    569c:	8f 77       	andi	r24, 0x7F	; 127
    569e:	90 70       	andi	r25, 0x00	; 0
    56a0:	a0 70       	andi	r26, 0x00	; 0
    56a2:	b0 70       	andi	r27, 0x00	; 0
    56a4:	80 34       	cpi	r24, 0x40	; 64
    56a6:	91 05       	cpc	r25, r1
    56a8:	a1 05       	cpc	r26, r1
    56aa:	b1 05       	cpc	r27, r1
    56ac:	61 f4       	brne	.+24     	; 0x56c6 <__mulsf3+0x1ce>
    56ae:	47 fd       	sbrc	r20, 7
    56b0:	0a c0       	rjmp	.+20     	; 0x56c6 <__mulsf3+0x1ce>
    56b2:	e1 14       	cp	r14, r1
    56b4:	f1 04       	cpc	r15, r1
    56b6:	01 05       	cpc	r16, r1
    56b8:	11 05       	cpc	r17, r1
    56ba:	29 f0       	breq	.+10     	; 0x56c6 <__mulsf3+0x1ce>
    56bc:	40 5c       	subi	r20, 0xC0	; 192
    56be:	5f 4f       	sbci	r21, 0xFF	; 255
    56c0:	6f 4f       	sbci	r22, 0xFF	; 255
    56c2:	7f 4f       	sbci	r23, 0xFF	; 255
    56c4:	40 78       	andi	r20, 0x80	; 128
    56c6:	1a 8e       	std	Y+26, r1	; 0x1a
    56c8:	fe 17       	cp	r31, r30
    56ca:	11 f0       	breq	.+4      	; 0x56d0 <__mulsf3+0x1d8>
    56cc:	81 e0       	ldi	r24, 0x01	; 1
    56ce:	8a 8f       	std	Y+26, r24	; 0x1a
    56d0:	4d 8f       	std	Y+29, r20	; 0x1d
    56d2:	5e 8f       	std	Y+30, r21	; 0x1e
    56d4:	6f 8f       	std	Y+31, r22	; 0x1f
    56d6:	78 a3       	std	Y+32, r23	; 0x20
    56d8:	83 e0       	ldi	r24, 0x03	; 3
    56da:	89 8f       	std	Y+25, r24	; 0x19
    56dc:	ce 01       	movw	r24, r28
    56de:	49 96       	adiw	r24, 0x19	; 25
    56e0:	0e 94 2a 2e 	call	0x5c54	; 0x5c54 <__pack_f>
    56e4:	a0 96       	adiw	r28, 0x20	; 32
    56e6:	e2 e1       	ldi	r30, 0x12	; 18
    56e8:	0c 94 ec 2f 	jmp	0x5fd8	; 0x5fd8 <__epilogue_restores__>

000056ec <__divsf3>:
    56ec:	a8 e1       	ldi	r26, 0x18	; 24
    56ee:	b0 e0       	ldi	r27, 0x00	; 0
    56f0:	ec e7       	ldi	r30, 0x7C	; 124
    56f2:	fb e2       	ldi	r31, 0x2B	; 43
    56f4:	0c 94 d8 2f 	jmp	0x5fb0	; 0x5fb0 <__prologue_saves__+0x10>
    56f8:	69 83       	std	Y+1, r22	; 0x01
    56fa:	7a 83       	std	Y+2, r23	; 0x02
    56fc:	8b 83       	std	Y+3, r24	; 0x03
    56fe:	9c 83       	std	Y+4, r25	; 0x04
    5700:	2d 83       	std	Y+5, r18	; 0x05
    5702:	3e 83       	std	Y+6, r19	; 0x06
    5704:	4f 83       	std	Y+7, r20	; 0x07
    5706:	58 87       	std	Y+8, r21	; 0x08
    5708:	b9 e0       	ldi	r27, 0x09	; 9
    570a:	eb 2e       	mov	r14, r27
    570c:	f1 2c       	mov	r15, r1
    570e:	ec 0e       	add	r14, r28
    5710:	fd 1e       	adc	r15, r29
    5712:	b7 01       	movw	r22, r14
    5714:	ce 01       	movw	r24, r28
    5716:	01 96       	adiw	r24, 0x01	; 1
    5718:	0e 94 ff 2e 	call	0x5dfe	; 0x5dfe <__unpack_f>
    571c:	8e 01       	movw	r16, r28
    571e:	0f 5e       	subi	r16, 0xEF	; 239
    5720:	1f 4f       	sbci	r17, 0xFF	; 255
    5722:	b8 01       	movw	r22, r16
    5724:	ce 01       	movw	r24, r28
    5726:	05 96       	adiw	r24, 0x05	; 5
    5728:	0e 94 ff 2e 	call	0x5dfe	; 0x5dfe <__unpack_f>
    572c:	29 85       	ldd	r18, Y+9	; 0x09
    572e:	22 30       	cpi	r18, 0x02	; 2
    5730:	08 f4       	brcc	.+2      	; 0x5734 <__divsf3+0x48>
    5732:	7c c0       	rjmp	.+248    	; 0x582c <__divsf3+0x140>
    5734:	39 89       	ldd	r19, Y+17	; 0x11
    5736:	32 30       	cpi	r19, 0x02	; 2
    5738:	10 f4       	brcc	.+4      	; 0x573e <__divsf3+0x52>
    573a:	b8 01       	movw	r22, r16
    573c:	7a c0       	rjmp	.+244    	; 0x5832 <__divsf3+0x146>
    573e:	8a 85       	ldd	r24, Y+10	; 0x0a
    5740:	9a 89       	ldd	r25, Y+18	; 0x12
    5742:	89 27       	eor	r24, r25
    5744:	8a 87       	std	Y+10, r24	; 0x0a
    5746:	24 30       	cpi	r18, 0x04	; 4
    5748:	11 f0       	breq	.+4      	; 0x574e <__divsf3+0x62>
    574a:	22 30       	cpi	r18, 0x02	; 2
    574c:	31 f4       	brne	.+12     	; 0x575a <__divsf3+0x6e>
    574e:	23 17       	cp	r18, r19
    5750:	09 f0       	breq	.+2      	; 0x5754 <__divsf3+0x68>
    5752:	6c c0       	rjmp	.+216    	; 0x582c <__divsf3+0x140>
    5754:	6f eb       	ldi	r22, 0xBF	; 191
    5756:	70 e0       	ldi	r23, 0x00	; 0
    5758:	6c c0       	rjmp	.+216    	; 0x5832 <__divsf3+0x146>
    575a:	34 30       	cpi	r19, 0x04	; 4
    575c:	39 f4       	brne	.+14     	; 0x576c <__divsf3+0x80>
    575e:	1d 86       	std	Y+13, r1	; 0x0d
    5760:	1e 86       	std	Y+14, r1	; 0x0e
    5762:	1f 86       	std	Y+15, r1	; 0x0f
    5764:	18 8a       	std	Y+16, r1	; 0x10
    5766:	1c 86       	std	Y+12, r1	; 0x0c
    5768:	1b 86       	std	Y+11, r1	; 0x0b
    576a:	04 c0       	rjmp	.+8      	; 0x5774 <__divsf3+0x88>
    576c:	32 30       	cpi	r19, 0x02	; 2
    576e:	21 f4       	brne	.+8      	; 0x5778 <__divsf3+0x8c>
    5770:	84 e0       	ldi	r24, 0x04	; 4
    5772:	89 87       	std	Y+9, r24	; 0x09
    5774:	b7 01       	movw	r22, r14
    5776:	5d c0       	rjmp	.+186    	; 0x5832 <__divsf3+0x146>
    5778:	2b 85       	ldd	r18, Y+11	; 0x0b
    577a:	3c 85       	ldd	r19, Y+12	; 0x0c
    577c:	8b 89       	ldd	r24, Y+19	; 0x13
    577e:	9c 89       	ldd	r25, Y+20	; 0x14
    5780:	28 1b       	sub	r18, r24
    5782:	39 0b       	sbc	r19, r25
    5784:	3c 87       	std	Y+12, r19	; 0x0c
    5786:	2b 87       	std	Y+11, r18	; 0x0b
    5788:	ed 84       	ldd	r14, Y+13	; 0x0d
    578a:	fe 84       	ldd	r15, Y+14	; 0x0e
    578c:	0f 85       	ldd	r16, Y+15	; 0x0f
    578e:	18 89       	ldd	r17, Y+16	; 0x10
    5790:	ad 88       	ldd	r10, Y+21	; 0x15
    5792:	be 88       	ldd	r11, Y+22	; 0x16
    5794:	cf 88       	ldd	r12, Y+23	; 0x17
    5796:	d8 8c       	ldd	r13, Y+24	; 0x18
    5798:	ea 14       	cp	r14, r10
    579a:	fb 04       	cpc	r15, r11
    579c:	0c 05       	cpc	r16, r12
    579e:	1d 05       	cpc	r17, r13
    57a0:	40 f4       	brcc	.+16     	; 0x57b2 <__divsf3+0xc6>
    57a2:	ee 0c       	add	r14, r14
    57a4:	ff 1c       	adc	r15, r15
    57a6:	00 1f       	adc	r16, r16
    57a8:	11 1f       	adc	r17, r17
    57aa:	21 50       	subi	r18, 0x01	; 1
    57ac:	30 40       	sbci	r19, 0x00	; 0
    57ae:	3c 87       	std	Y+12, r19	; 0x0c
    57b0:	2b 87       	std	Y+11, r18	; 0x0b
    57b2:	20 e0       	ldi	r18, 0x00	; 0
    57b4:	30 e0       	ldi	r19, 0x00	; 0
    57b6:	40 e0       	ldi	r20, 0x00	; 0
    57b8:	50 e0       	ldi	r21, 0x00	; 0
    57ba:	80 e0       	ldi	r24, 0x00	; 0
    57bc:	90 e0       	ldi	r25, 0x00	; 0
    57be:	a0 e0       	ldi	r26, 0x00	; 0
    57c0:	b0 e4       	ldi	r27, 0x40	; 64
    57c2:	6f e1       	ldi	r22, 0x1F	; 31
    57c4:	70 e0       	ldi	r23, 0x00	; 0
    57c6:	ea 14       	cp	r14, r10
    57c8:	fb 04       	cpc	r15, r11
    57ca:	0c 05       	cpc	r16, r12
    57cc:	1d 05       	cpc	r17, r13
    57ce:	40 f0       	brcs	.+16     	; 0x57e0 <__divsf3+0xf4>
    57d0:	28 2b       	or	r18, r24
    57d2:	39 2b       	or	r19, r25
    57d4:	4a 2b       	or	r20, r26
    57d6:	5b 2b       	or	r21, r27
    57d8:	ea 18       	sub	r14, r10
    57da:	fb 08       	sbc	r15, r11
    57dc:	0c 09       	sbc	r16, r12
    57de:	1d 09       	sbc	r17, r13
    57e0:	b6 95       	lsr	r27
    57e2:	a7 95       	ror	r26
    57e4:	97 95       	ror	r25
    57e6:	87 95       	ror	r24
    57e8:	ee 0c       	add	r14, r14
    57ea:	ff 1c       	adc	r15, r15
    57ec:	00 1f       	adc	r16, r16
    57ee:	11 1f       	adc	r17, r17
    57f0:	61 50       	subi	r22, 0x01	; 1
    57f2:	70 40       	sbci	r23, 0x00	; 0
    57f4:	41 f7       	brne	.-48     	; 0x57c6 <__divsf3+0xda>
    57f6:	da 01       	movw	r26, r20
    57f8:	c9 01       	movw	r24, r18
    57fa:	8f 77       	andi	r24, 0x7F	; 127
    57fc:	90 70       	andi	r25, 0x00	; 0
    57fe:	a0 70       	andi	r26, 0x00	; 0
    5800:	b0 70       	andi	r27, 0x00	; 0
    5802:	80 34       	cpi	r24, 0x40	; 64
    5804:	91 05       	cpc	r25, r1
    5806:	a1 05       	cpc	r26, r1
    5808:	b1 05       	cpc	r27, r1
    580a:	61 f4       	brne	.+24     	; 0x5824 <__divsf3+0x138>
    580c:	27 fd       	sbrc	r18, 7
    580e:	0a c0       	rjmp	.+20     	; 0x5824 <__divsf3+0x138>
    5810:	e1 14       	cp	r14, r1
    5812:	f1 04       	cpc	r15, r1
    5814:	01 05       	cpc	r16, r1
    5816:	11 05       	cpc	r17, r1
    5818:	29 f0       	breq	.+10     	; 0x5824 <__divsf3+0x138>
    581a:	20 5c       	subi	r18, 0xC0	; 192
    581c:	3f 4f       	sbci	r19, 0xFF	; 255
    581e:	4f 4f       	sbci	r20, 0xFF	; 255
    5820:	5f 4f       	sbci	r21, 0xFF	; 255
    5822:	20 78       	andi	r18, 0x80	; 128
    5824:	2d 87       	std	Y+13, r18	; 0x0d
    5826:	3e 87       	std	Y+14, r19	; 0x0e
    5828:	4f 87       	std	Y+15, r20	; 0x0f
    582a:	58 8b       	std	Y+16, r21	; 0x10
    582c:	be 01       	movw	r22, r28
    582e:	67 5f       	subi	r22, 0xF7	; 247
    5830:	7f 4f       	sbci	r23, 0xFF	; 255
    5832:	cb 01       	movw	r24, r22
    5834:	0e 94 2a 2e 	call	0x5c54	; 0x5c54 <__pack_f>
    5838:	68 96       	adiw	r28, 0x18	; 24
    583a:	ea e0       	ldi	r30, 0x0A	; 10
    583c:	0c 94 f4 2f 	jmp	0x5fe8	; 0x5fe8 <__epilogue_restores__+0x10>

00005840 <__gtsf2>:
    5840:	a8 e1       	ldi	r26, 0x18	; 24
    5842:	b0 e0       	ldi	r27, 0x00	; 0
    5844:	e6 e2       	ldi	r30, 0x26	; 38
    5846:	fc e2       	ldi	r31, 0x2C	; 44
    5848:	0c 94 dc 2f 	jmp	0x5fb8	; 0x5fb8 <__prologue_saves__+0x18>
    584c:	69 83       	std	Y+1, r22	; 0x01
    584e:	7a 83       	std	Y+2, r23	; 0x02
    5850:	8b 83       	std	Y+3, r24	; 0x03
    5852:	9c 83       	std	Y+4, r25	; 0x04
    5854:	2d 83       	std	Y+5, r18	; 0x05
    5856:	3e 83       	std	Y+6, r19	; 0x06
    5858:	4f 83       	std	Y+7, r20	; 0x07
    585a:	58 87       	std	Y+8, r21	; 0x08
    585c:	89 e0       	ldi	r24, 0x09	; 9
    585e:	e8 2e       	mov	r14, r24
    5860:	f1 2c       	mov	r15, r1
    5862:	ec 0e       	add	r14, r28
    5864:	fd 1e       	adc	r15, r29
    5866:	b7 01       	movw	r22, r14
    5868:	ce 01       	movw	r24, r28
    586a:	01 96       	adiw	r24, 0x01	; 1
    586c:	0e 94 ff 2e 	call	0x5dfe	; 0x5dfe <__unpack_f>
    5870:	8e 01       	movw	r16, r28
    5872:	0f 5e       	subi	r16, 0xEF	; 239
    5874:	1f 4f       	sbci	r17, 0xFF	; 255
    5876:	b8 01       	movw	r22, r16
    5878:	ce 01       	movw	r24, r28
    587a:	05 96       	adiw	r24, 0x05	; 5
    587c:	0e 94 ff 2e 	call	0x5dfe	; 0x5dfe <__unpack_f>
    5880:	89 85       	ldd	r24, Y+9	; 0x09
    5882:	82 30       	cpi	r24, 0x02	; 2
    5884:	40 f0       	brcs	.+16     	; 0x5896 <__gtsf2+0x56>
    5886:	89 89       	ldd	r24, Y+17	; 0x11
    5888:	82 30       	cpi	r24, 0x02	; 2
    588a:	28 f0       	brcs	.+10     	; 0x5896 <__gtsf2+0x56>
    588c:	b8 01       	movw	r22, r16
    588e:	c7 01       	movw	r24, r14
    5890:	0e 94 77 2f 	call	0x5eee	; 0x5eee <__fpcmp_parts_f>
    5894:	01 c0       	rjmp	.+2      	; 0x5898 <__gtsf2+0x58>
    5896:	8f ef       	ldi	r24, 0xFF	; 255
    5898:	68 96       	adiw	r28, 0x18	; 24
    589a:	e6 e0       	ldi	r30, 0x06	; 6
    589c:	0c 94 f8 2f 	jmp	0x5ff0	; 0x5ff0 <__epilogue_restores__+0x18>

000058a0 <__gesf2>:
    58a0:	a8 e1       	ldi	r26, 0x18	; 24
    58a2:	b0 e0       	ldi	r27, 0x00	; 0
    58a4:	e6 e5       	ldi	r30, 0x56	; 86
    58a6:	fc e2       	ldi	r31, 0x2C	; 44
    58a8:	0c 94 dc 2f 	jmp	0x5fb8	; 0x5fb8 <__prologue_saves__+0x18>
    58ac:	69 83       	std	Y+1, r22	; 0x01
    58ae:	7a 83       	std	Y+2, r23	; 0x02
    58b0:	8b 83       	std	Y+3, r24	; 0x03
    58b2:	9c 83       	std	Y+4, r25	; 0x04
    58b4:	2d 83       	std	Y+5, r18	; 0x05
    58b6:	3e 83       	std	Y+6, r19	; 0x06
    58b8:	4f 83       	std	Y+7, r20	; 0x07
    58ba:	58 87       	std	Y+8, r21	; 0x08
    58bc:	89 e0       	ldi	r24, 0x09	; 9
    58be:	e8 2e       	mov	r14, r24
    58c0:	f1 2c       	mov	r15, r1
    58c2:	ec 0e       	add	r14, r28
    58c4:	fd 1e       	adc	r15, r29
    58c6:	b7 01       	movw	r22, r14
    58c8:	ce 01       	movw	r24, r28
    58ca:	01 96       	adiw	r24, 0x01	; 1
    58cc:	0e 94 ff 2e 	call	0x5dfe	; 0x5dfe <__unpack_f>
    58d0:	8e 01       	movw	r16, r28
    58d2:	0f 5e       	subi	r16, 0xEF	; 239
    58d4:	1f 4f       	sbci	r17, 0xFF	; 255
    58d6:	b8 01       	movw	r22, r16
    58d8:	ce 01       	movw	r24, r28
    58da:	05 96       	adiw	r24, 0x05	; 5
    58dc:	0e 94 ff 2e 	call	0x5dfe	; 0x5dfe <__unpack_f>
    58e0:	89 85       	ldd	r24, Y+9	; 0x09
    58e2:	82 30       	cpi	r24, 0x02	; 2
    58e4:	40 f0       	brcs	.+16     	; 0x58f6 <__gesf2+0x56>
    58e6:	89 89       	ldd	r24, Y+17	; 0x11
    58e8:	82 30       	cpi	r24, 0x02	; 2
    58ea:	28 f0       	brcs	.+10     	; 0x58f6 <__gesf2+0x56>
    58ec:	b8 01       	movw	r22, r16
    58ee:	c7 01       	movw	r24, r14
    58f0:	0e 94 77 2f 	call	0x5eee	; 0x5eee <__fpcmp_parts_f>
    58f4:	01 c0       	rjmp	.+2      	; 0x58f8 <__gesf2+0x58>
    58f6:	8f ef       	ldi	r24, 0xFF	; 255
    58f8:	68 96       	adiw	r28, 0x18	; 24
    58fa:	e6 e0       	ldi	r30, 0x06	; 6
    58fc:	0c 94 f8 2f 	jmp	0x5ff0	; 0x5ff0 <__epilogue_restores__+0x18>

00005900 <__ltsf2>:
    5900:	a8 e1       	ldi	r26, 0x18	; 24
    5902:	b0 e0       	ldi	r27, 0x00	; 0
    5904:	e6 e8       	ldi	r30, 0x86	; 134
    5906:	fc e2       	ldi	r31, 0x2C	; 44
    5908:	0c 94 dc 2f 	jmp	0x5fb8	; 0x5fb8 <__prologue_saves__+0x18>
    590c:	69 83       	std	Y+1, r22	; 0x01
    590e:	7a 83       	std	Y+2, r23	; 0x02
    5910:	8b 83       	std	Y+3, r24	; 0x03
    5912:	9c 83       	std	Y+4, r25	; 0x04
    5914:	2d 83       	std	Y+5, r18	; 0x05
    5916:	3e 83       	std	Y+6, r19	; 0x06
    5918:	4f 83       	std	Y+7, r20	; 0x07
    591a:	58 87       	std	Y+8, r21	; 0x08
    591c:	89 e0       	ldi	r24, 0x09	; 9
    591e:	e8 2e       	mov	r14, r24
    5920:	f1 2c       	mov	r15, r1
    5922:	ec 0e       	add	r14, r28
    5924:	fd 1e       	adc	r15, r29
    5926:	b7 01       	movw	r22, r14
    5928:	ce 01       	movw	r24, r28
    592a:	01 96       	adiw	r24, 0x01	; 1
    592c:	0e 94 ff 2e 	call	0x5dfe	; 0x5dfe <__unpack_f>
    5930:	8e 01       	movw	r16, r28
    5932:	0f 5e       	subi	r16, 0xEF	; 239
    5934:	1f 4f       	sbci	r17, 0xFF	; 255
    5936:	b8 01       	movw	r22, r16
    5938:	ce 01       	movw	r24, r28
    593a:	05 96       	adiw	r24, 0x05	; 5
    593c:	0e 94 ff 2e 	call	0x5dfe	; 0x5dfe <__unpack_f>
    5940:	89 85       	ldd	r24, Y+9	; 0x09
    5942:	82 30       	cpi	r24, 0x02	; 2
    5944:	40 f0       	brcs	.+16     	; 0x5956 <__ltsf2+0x56>
    5946:	89 89       	ldd	r24, Y+17	; 0x11
    5948:	82 30       	cpi	r24, 0x02	; 2
    594a:	28 f0       	brcs	.+10     	; 0x5956 <__ltsf2+0x56>
    594c:	b8 01       	movw	r22, r16
    594e:	c7 01       	movw	r24, r14
    5950:	0e 94 77 2f 	call	0x5eee	; 0x5eee <__fpcmp_parts_f>
    5954:	01 c0       	rjmp	.+2      	; 0x5958 <__ltsf2+0x58>
    5956:	81 e0       	ldi	r24, 0x01	; 1
    5958:	68 96       	adiw	r28, 0x18	; 24
    595a:	e6 e0       	ldi	r30, 0x06	; 6
    595c:	0c 94 f8 2f 	jmp	0x5ff0	; 0x5ff0 <__epilogue_restores__+0x18>

00005960 <__floatsisf>:
    5960:	a8 e0       	ldi	r26, 0x08	; 8
    5962:	b0 e0       	ldi	r27, 0x00	; 0
    5964:	e6 eb       	ldi	r30, 0xB6	; 182
    5966:	fc e2       	ldi	r31, 0x2C	; 44
    5968:	0c 94 d9 2f 	jmp	0x5fb2	; 0x5fb2 <__prologue_saves__+0x12>
    596c:	9b 01       	movw	r18, r22
    596e:	ac 01       	movw	r20, r24
    5970:	83 e0       	ldi	r24, 0x03	; 3
    5972:	89 83       	std	Y+1, r24	; 0x01
    5974:	da 01       	movw	r26, r20
    5976:	c9 01       	movw	r24, r18
    5978:	88 27       	eor	r24, r24
    597a:	b7 fd       	sbrc	r27, 7
    597c:	83 95       	inc	r24
    597e:	99 27       	eor	r25, r25
    5980:	aa 27       	eor	r26, r26
    5982:	bb 27       	eor	r27, r27
    5984:	b8 2e       	mov	r11, r24
    5986:	21 15       	cp	r18, r1
    5988:	31 05       	cpc	r19, r1
    598a:	41 05       	cpc	r20, r1
    598c:	51 05       	cpc	r21, r1
    598e:	19 f4       	brne	.+6      	; 0x5996 <__floatsisf+0x36>
    5990:	82 e0       	ldi	r24, 0x02	; 2
    5992:	89 83       	std	Y+1, r24	; 0x01
    5994:	3a c0       	rjmp	.+116    	; 0x5a0a <__floatsisf+0xaa>
    5996:	88 23       	and	r24, r24
    5998:	a9 f0       	breq	.+42     	; 0x59c4 <__floatsisf+0x64>
    599a:	20 30       	cpi	r18, 0x00	; 0
    599c:	80 e0       	ldi	r24, 0x00	; 0
    599e:	38 07       	cpc	r19, r24
    59a0:	80 e0       	ldi	r24, 0x00	; 0
    59a2:	48 07       	cpc	r20, r24
    59a4:	80 e8       	ldi	r24, 0x80	; 128
    59a6:	58 07       	cpc	r21, r24
    59a8:	29 f4       	brne	.+10     	; 0x59b4 <__floatsisf+0x54>
    59aa:	60 e0       	ldi	r22, 0x00	; 0
    59ac:	70 e0       	ldi	r23, 0x00	; 0
    59ae:	80 e0       	ldi	r24, 0x00	; 0
    59b0:	9f ec       	ldi	r25, 0xCF	; 207
    59b2:	30 c0       	rjmp	.+96     	; 0x5a14 <__floatsisf+0xb4>
    59b4:	ee 24       	eor	r14, r14
    59b6:	ff 24       	eor	r15, r15
    59b8:	87 01       	movw	r16, r14
    59ba:	e2 1a       	sub	r14, r18
    59bc:	f3 0a       	sbc	r15, r19
    59be:	04 0b       	sbc	r16, r20
    59c0:	15 0b       	sbc	r17, r21
    59c2:	02 c0       	rjmp	.+4      	; 0x59c8 <__floatsisf+0x68>
    59c4:	79 01       	movw	r14, r18
    59c6:	8a 01       	movw	r16, r20
    59c8:	8e e1       	ldi	r24, 0x1E	; 30
    59ca:	c8 2e       	mov	r12, r24
    59cc:	d1 2c       	mov	r13, r1
    59ce:	dc 82       	std	Y+4, r13	; 0x04
    59d0:	cb 82       	std	Y+3, r12	; 0x03
    59d2:	ed 82       	std	Y+5, r14	; 0x05
    59d4:	fe 82       	std	Y+6, r15	; 0x06
    59d6:	0f 83       	std	Y+7, r16	; 0x07
    59d8:	18 87       	std	Y+8, r17	; 0x08
    59da:	c8 01       	movw	r24, r16
    59dc:	b7 01       	movw	r22, r14
    59de:	0e 94 db 2d 	call	0x5bb6	; 0x5bb6 <__clzsi2>
    59e2:	01 97       	sbiw	r24, 0x01	; 1
    59e4:	18 16       	cp	r1, r24
    59e6:	19 06       	cpc	r1, r25
    59e8:	84 f4       	brge	.+32     	; 0x5a0a <__floatsisf+0xaa>
    59ea:	08 2e       	mov	r0, r24
    59ec:	04 c0       	rjmp	.+8      	; 0x59f6 <__floatsisf+0x96>
    59ee:	ee 0c       	add	r14, r14
    59f0:	ff 1c       	adc	r15, r15
    59f2:	00 1f       	adc	r16, r16
    59f4:	11 1f       	adc	r17, r17
    59f6:	0a 94       	dec	r0
    59f8:	d2 f7       	brpl	.-12     	; 0x59ee <__floatsisf+0x8e>
    59fa:	ed 82       	std	Y+5, r14	; 0x05
    59fc:	fe 82       	std	Y+6, r15	; 0x06
    59fe:	0f 83       	std	Y+7, r16	; 0x07
    5a00:	18 87       	std	Y+8, r17	; 0x08
    5a02:	c8 1a       	sub	r12, r24
    5a04:	d9 0a       	sbc	r13, r25
    5a06:	dc 82       	std	Y+4, r13	; 0x04
    5a08:	cb 82       	std	Y+3, r12	; 0x03
    5a0a:	ba 82       	std	Y+2, r11	; 0x02
    5a0c:	ce 01       	movw	r24, r28
    5a0e:	01 96       	adiw	r24, 0x01	; 1
    5a10:	0e 94 2a 2e 	call	0x5c54	; 0x5c54 <__pack_f>
    5a14:	28 96       	adiw	r28, 0x08	; 8
    5a16:	e9 e0       	ldi	r30, 0x09	; 9
    5a18:	0c 94 f5 2f 	jmp	0x5fea	; 0x5fea <__epilogue_restores__+0x12>

00005a1c <__fixsfsi>:
    5a1c:	ac e0       	ldi	r26, 0x0C	; 12
    5a1e:	b0 e0       	ldi	r27, 0x00	; 0
    5a20:	e4 e1       	ldi	r30, 0x14	; 20
    5a22:	fd e2       	ldi	r31, 0x2D	; 45
    5a24:	0c 94 e0 2f 	jmp	0x5fc0	; 0x5fc0 <__prologue_saves__+0x20>
    5a28:	69 83       	std	Y+1, r22	; 0x01
    5a2a:	7a 83       	std	Y+2, r23	; 0x02
    5a2c:	8b 83       	std	Y+3, r24	; 0x03
    5a2e:	9c 83       	std	Y+4, r25	; 0x04
    5a30:	be 01       	movw	r22, r28
    5a32:	6b 5f       	subi	r22, 0xFB	; 251
    5a34:	7f 4f       	sbci	r23, 0xFF	; 255
    5a36:	ce 01       	movw	r24, r28
    5a38:	01 96       	adiw	r24, 0x01	; 1
    5a3a:	0e 94 ff 2e 	call	0x5dfe	; 0x5dfe <__unpack_f>
    5a3e:	8d 81       	ldd	r24, Y+5	; 0x05
    5a40:	82 30       	cpi	r24, 0x02	; 2
    5a42:	61 f1       	breq	.+88     	; 0x5a9c <__fixsfsi+0x80>
    5a44:	82 30       	cpi	r24, 0x02	; 2
    5a46:	50 f1       	brcs	.+84     	; 0x5a9c <__fixsfsi+0x80>
    5a48:	84 30       	cpi	r24, 0x04	; 4
    5a4a:	21 f4       	brne	.+8      	; 0x5a54 <__fixsfsi+0x38>
    5a4c:	8e 81       	ldd	r24, Y+6	; 0x06
    5a4e:	88 23       	and	r24, r24
    5a50:	51 f1       	breq	.+84     	; 0x5aa6 <__fixsfsi+0x8a>
    5a52:	2e c0       	rjmp	.+92     	; 0x5ab0 <__fixsfsi+0x94>
    5a54:	2f 81       	ldd	r18, Y+7	; 0x07
    5a56:	38 85       	ldd	r19, Y+8	; 0x08
    5a58:	37 fd       	sbrc	r19, 7
    5a5a:	20 c0       	rjmp	.+64     	; 0x5a9c <__fixsfsi+0x80>
    5a5c:	6e 81       	ldd	r22, Y+6	; 0x06
    5a5e:	2f 31       	cpi	r18, 0x1F	; 31
    5a60:	31 05       	cpc	r19, r1
    5a62:	1c f0       	brlt	.+6      	; 0x5a6a <__fixsfsi+0x4e>
    5a64:	66 23       	and	r22, r22
    5a66:	f9 f0       	breq	.+62     	; 0x5aa6 <__fixsfsi+0x8a>
    5a68:	23 c0       	rjmp	.+70     	; 0x5ab0 <__fixsfsi+0x94>
    5a6a:	8e e1       	ldi	r24, 0x1E	; 30
    5a6c:	90 e0       	ldi	r25, 0x00	; 0
    5a6e:	82 1b       	sub	r24, r18
    5a70:	93 0b       	sbc	r25, r19
    5a72:	29 85       	ldd	r18, Y+9	; 0x09
    5a74:	3a 85       	ldd	r19, Y+10	; 0x0a
    5a76:	4b 85       	ldd	r20, Y+11	; 0x0b
    5a78:	5c 85       	ldd	r21, Y+12	; 0x0c
    5a7a:	04 c0       	rjmp	.+8      	; 0x5a84 <__fixsfsi+0x68>
    5a7c:	56 95       	lsr	r21
    5a7e:	47 95       	ror	r20
    5a80:	37 95       	ror	r19
    5a82:	27 95       	ror	r18
    5a84:	8a 95       	dec	r24
    5a86:	d2 f7       	brpl	.-12     	; 0x5a7c <__fixsfsi+0x60>
    5a88:	66 23       	and	r22, r22
    5a8a:	b1 f0       	breq	.+44     	; 0x5ab8 <__fixsfsi+0x9c>
    5a8c:	50 95       	com	r21
    5a8e:	40 95       	com	r20
    5a90:	30 95       	com	r19
    5a92:	21 95       	neg	r18
    5a94:	3f 4f       	sbci	r19, 0xFF	; 255
    5a96:	4f 4f       	sbci	r20, 0xFF	; 255
    5a98:	5f 4f       	sbci	r21, 0xFF	; 255
    5a9a:	0e c0       	rjmp	.+28     	; 0x5ab8 <__fixsfsi+0x9c>
    5a9c:	20 e0       	ldi	r18, 0x00	; 0
    5a9e:	30 e0       	ldi	r19, 0x00	; 0
    5aa0:	40 e0       	ldi	r20, 0x00	; 0
    5aa2:	50 e0       	ldi	r21, 0x00	; 0
    5aa4:	09 c0       	rjmp	.+18     	; 0x5ab8 <__fixsfsi+0x9c>
    5aa6:	2f ef       	ldi	r18, 0xFF	; 255
    5aa8:	3f ef       	ldi	r19, 0xFF	; 255
    5aaa:	4f ef       	ldi	r20, 0xFF	; 255
    5aac:	5f e7       	ldi	r21, 0x7F	; 127
    5aae:	04 c0       	rjmp	.+8      	; 0x5ab8 <__fixsfsi+0x9c>
    5ab0:	20 e0       	ldi	r18, 0x00	; 0
    5ab2:	30 e0       	ldi	r19, 0x00	; 0
    5ab4:	40 e0       	ldi	r20, 0x00	; 0
    5ab6:	50 e8       	ldi	r21, 0x80	; 128
    5ab8:	b9 01       	movw	r22, r18
    5aba:	ca 01       	movw	r24, r20
    5abc:	2c 96       	adiw	r28, 0x0c	; 12
    5abe:	e2 e0       	ldi	r30, 0x02	; 2
    5ac0:	0c 94 fc 2f 	jmp	0x5ff8	; 0x5ff8 <__epilogue_restores__+0x20>

00005ac4 <__floatunsisf>:
    5ac4:	a8 e0       	ldi	r26, 0x08	; 8
    5ac6:	b0 e0       	ldi	r27, 0x00	; 0
    5ac8:	e8 e6       	ldi	r30, 0x68	; 104
    5aca:	fd e2       	ldi	r31, 0x2D	; 45
    5acc:	0c 94 da 2f 	jmp	0x5fb4	; 0x5fb4 <__prologue_saves__+0x14>
    5ad0:	7b 01       	movw	r14, r22
    5ad2:	8c 01       	movw	r16, r24
    5ad4:	61 15       	cp	r22, r1
    5ad6:	71 05       	cpc	r23, r1
    5ad8:	81 05       	cpc	r24, r1
    5ada:	91 05       	cpc	r25, r1
    5adc:	19 f4       	brne	.+6      	; 0x5ae4 <__floatunsisf+0x20>
    5ade:	82 e0       	ldi	r24, 0x02	; 2
    5ae0:	89 83       	std	Y+1, r24	; 0x01
    5ae2:	60 c0       	rjmp	.+192    	; 0x5ba4 <__floatunsisf+0xe0>
    5ae4:	83 e0       	ldi	r24, 0x03	; 3
    5ae6:	89 83       	std	Y+1, r24	; 0x01
    5ae8:	8e e1       	ldi	r24, 0x1E	; 30
    5aea:	c8 2e       	mov	r12, r24
    5aec:	d1 2c       	mov	r13, r1
    5aee:	dc 82       	std	Y+4, r13	; 0x04
    5af0:	cb 82       	std	Y+3, r12	; 0x03
    5af2:	ed 82       	std	Y+5, r14	; 0x05
    5af4:	fe 82       	std	Y+6, r15	; 0x06
    5af6:	0f 83       	std	Y+7, r16	; 0x07
    5af8:	18 87       	std	Y+8, r17	; 0x08
    5afa:	c8 01       	movw	r24, r16
    5afc:	b7 01       	movw	r22, r14
    5afe:	0e 94 db 2d 	call	0x5bb6	; 0x5bb6 <__clzsi2>
    5b02:	bc 01       	movw	r22, r24
    5b04:	61 50       	subi	r22, 0x01	; 1
    5b06:	70 40       	sbci	r23, 0x00	; 0
    5b08:	77 ff       	sbrs	r23, 7
    5b0a:	39 c0       	rjmp	.+114    	; 0x5b7e <__floatunsisf+0xba>
    5b0c:	ee 27       	eor	r30, r30
    5b0e:	ff 27       	eor	r31, r31
    5b10:	e6 1b       	sub	r30, r22
    5b12:	f7 0b       	sbc	r31, r23
    5b14:	20 e0       	ldi	r18, 0x00	; 0
    5b16:	30 e0       	ldi	r19, 0x00	; 0
    5b18:	40 e0       	ldi	r20, 0x00	; 0
    5b1a:	50 e0       	ldi	r21, 0x00	; 0
    5b1c:	81 e0       	ldi	r24, 0x01	; 1
    5b1e:	90 e0       	ldi	r25, 0x00	; 0
    5b20:	a0 e0       	ldi	r26, 0x00	; 0
    5b22:	b0 e0       	ldi	r27, 0x00	; 0
    5b24:	0e 2e       	mov	r0, r30
    5b26:	04 c0       	rjmp	.+8      	; 0x5b30 <__floatunsisf+0x6c>
    5b28:	88 0f       	add	r24, r24
    5b2a:	99 1f       	adc	r25, r25
    5b2c:	aa 1f       	adc	r26, r26
    5b2e:	bb 1f       	adc	r27, r27
    5b30:	0a 94       	dec	r0
    5b32:	d2 f7       	brpl	.-12     	; 0x5b28 <__floatunsisf+0x64>
    5b34:	01 97       	sbiw	r24, 0x01	; 1
    5b36:	a1 09       	sbc	r26, r1
    5b38:	b1 09       	sbc	r27, r1
    5b3a:	8e 21       	and	r24, r14
    5b3c:	9f 21       	and	r25, r15
    5b3e:	a0 23       	and	r26, r16
    5b40:	b1 23       	and	r27, r17
    5b42:	00 97       	sbiw	r24, 0x00	; 0
    5b44:	a1 05       	cpc	r26, r1
    5b46:	b1 05       	cpc	r27, r1
    5b48:	21 f0       	breq	.+8      	; 0x5b52 <__floatunsisf+0x8e>
    5b4a:	21 e0       	ldi	r18, 0x01	; 1
    5b4c:	30 e0       	ldi	r19, 0x00	; 0
    5b4e:	40 e0       	ldi	r20, 0x00	; 0
    5b50:	50 e0       	ldi	r21, 0x00	; 0
    5b52:	04 c0       	rjmp	.+8      	; 0x5b5c <__floatunsisf+0x98>
    5b54:	16 95       	lsr	r17
    5b56:	07 95       	ror	r16
    5b58:	f7 94       	ror	r15
    5b5a:	e7 94       	ror	r14
    5b5c:	ea 95       	dec	r30
    5b5e:	d2 f7       	brpl	.-12     	; 0x5b54 <__floatunsisf+0x90>
    5b60:	2e 29       	or	r18, r14
    5b62:	3f 29       	or	r19, r15
    5b64:	40 2b       	or	r20, r16
    5b66:	51 2b       	or	r21, r17
    5b68:	2d 83       	std	Y+5, r18	; 0x05
    5b6a:	3e 83       	std	Y+6, r19	; 0x06
    5b6c:	4f 83       	std	Y+7, r20	; 0x07
    5b6e:	58 87       	std	Y+8, r21	; 0x08
    5b70:	8e e1       	ldi	r24, 0x1E	; 30
    5b72:	90 e0       	ldi	r25, 0x00	; 0
    5b74:	86 1b       	sub	r24, r22
    5b76:	97 0b       	sbc	r25, r23
    5b78:	9c 83       	std	Y+4, r25	; 0x04
    5b7a:	8b 83       	std	Y+3, r24	; 0x03
    5b7c:	13 c0       	rjmp	.+38     	; 0x5ba4 <__floatunsisf+0xe0>
    5b7e:	61 15       	cp	r22, r1
    5b80:	71 05       	cpc	r23, r1
    5b82:	81 f0       	breq	.+32     	; 0x5ba4 <__floatunsisf+0xe0>
    5b84:	06 2e       	mov	r0, r22
    5b86:	04 c0       	rjmp	.+8      	; 0x5b90 <__floatunsisf+0xcc>
    5b88:	ee 0c       	add	r14, r14
    5b8a:	ff 1c       	adc	r15, r15
    5b8c:	00 1f       	adc	r16, r16
    5b8e:	11 1f       	adc	r17, r17
    5b90:	0a 94       	dec	r0
    5b92:	d2 f7       	brpl	.-12     	; 0x5b88 <__floatunsisf+0xc4>
    5b94:	ed 82       	std	Y+5, r14	; 0x05
    5b96:	fe 82       	std	Y+6, r15	; 0x06
    5b98:	0f 83       	std	Y+7, r16	; 0x07
    5b9a:	18 87       	std	Y+8, r17	; 0x08
    5b9c:	c6 1a       	sub	r12, r22
    5b9e:	d7 0a       	sbc	r13, r23
    5ba0:	dc 82       	std	Y+4, r13	; 0x04
    5ba2:	cb 82       	std	Y+3, r12	; 0x03
    5ba4:	1a 82       	std	Y+2, r1	; 0x02
    5ba6:	ce 01       	movw	r24, r28
    5ba8:	01 96       	adiw	r24, 0x01	; 1
    5baa:	0e 94 2a 2e 	call	0x5c54	; 0x5c54 <__pack_f>
    5bae:	28 96       	adiw	r28, 0x08	; 8
    5bb0:	e8 e0       	ldi	r30, 0x08	; 8
    5bb2:	0c 94 f6 2f 	jmp	0x5fec	; 0x5fec <__epilogue_restores__+0x14>

00005bb6 <__clzsi2>:
    5bb6:	ef 92       	push	r14
    5bb8:	ff 92       	push	r15
    5bba:	0f 93       	push	r16
    5bbc:	1f 93       	push	r17
    5bbe:	7b 01       	movw	r14, r22
    5bc0:	8c 01       	movw	r16, r24
    5bc2:	80 e0       	ldi	r24, 0x00	; 0
    5bc4:	e8 16       	cp	r14, r24
    5bc6:	80 e0       	ldi	r24, 0x00	; 0
    5bc8:	f8 06       	cpc	r15, r24
    5bca:	81 e0       	ldi	r24, 0x01	; 1
    5bcc:	08 07       	cpc	r16, r24
    5bce:	80 e0       	ldi	r24, 0x00	; 0
    5bd0:	18 07       	cpc	r17, r24
    5bd2:	88 f4       	brcc	.+34     	; 0x5bf6 <__clzsi2+0x40>
    5bd4:	8f ef       	ldi	r24, 0xFF	; 255
    5bd6:	e8 16       	cp	r14, r24
    5bd8:	f1 04       	cpc	r15, r1
    5bda:	01 05       	cpc	r16, r1
    5bdc:	11 05       	cpc	r17, r1
    5bde:	31 f0       	breq	.+12     	; 0x5bec <__clzsi2+0x36>
    5be0:	28 f0       	brcs	.+10     	; 0x5bec <__clzsi2+0x36>
    5be2:	88 e0       	ldi	r24, 0x08	; 8
    5be4:	90 e0       	ldi	r25, 0x00	; 0
    5be6:	a0 e0       	ldi	r26, 0x00	; 0
    5be8:	b0 e0       	ldi	r27, 0x00	; 0
    5bea:	17 c0       	rjmp	.+46     	; 0x5c1a <__clzsi2+0x64>
    5bec:	80 e0       	ldi	r24, 0x00	; 0
    5bee:	90 e0       	ldi	r25, 0x00	; 0
    5bf0:	a0 e0       	ldi	r26, 0x00	; 0
    5bf2:	b0 e0       	ldi	r27, 0x00	; 0
    5bf4:	12 c0       	rjmp	.+36     	; 0x5c1a <__clzsi2+0x64>
    5bf6:	80 e0       	ldi	r24, 0x00	; 0
    5bf8:	e8 16       	cp	r14, r24
    5bfa:	80 e0       	ldi	r24, 0x00	; 0
    5bfc:	f8 06       	cpc	r15, r24
    5bfe:	80 e0       	ldi	r24, 0x00	; 0
    5c00:	08 07       	cpc	r16, r24
    5c02:	81 e0       	ldi	r24, 0x01	; 1
    5c04:	18 07       	cpc	r17, r24
    5c06:	28 f0       	brcs	.+10     	; 0x5c12 <__clzsi2+0x5c>
    5c08:	88 e1       	ldi	r24, 0x18	; 24
    5c0a:	90 e0       	ldi	r25, 0x00	; 0
    5c0c:	a0 e0       	ldi	r26, 0x00	; 0
    5c0e:	b0 e0       	ldi	r27, 0x00	; 0
    5c10:	04 c0       	rjmp	.+8      	; 0x5c1a <__clzsi2+0x64>
    5c12:	80 e1       	ldi	r24, 0x10	; 16
    5c14:	90 e0       	ldi	r25, 0x00	; 0
    5c16:	a0 e0       	ldi	r26, 0x00	; 0
    5c18:	b0 e0       	ldi	r27, 0x00	; 0
    5c1a:	20 e2       	ldi	r18, 0x20	; 32
    5c1c:	30 e0       	ldi	r19, 0x00	; 0
    5c1e:	40 e0       	ldi	r20, 0x00	; 0
    5c20:	50 e0       	ldi	r21, 0x00	; 0
    5c22:	28 1b       	sub	r18, r24
    5c24:	39 0b       	sbc	r19, r25
    5c26:	4a 0b       	sbc	r20, r26
    5c28:	5b 0b       	sbc	r21, r27
    5c2a:	04 c0       	rjmp	.+8      	; 0x5c34 <__clzsi2+0x7e>
    5c2c:	16 95       	lsr	r17
    5c2e:	07 95       	ror	r16
    5c30:	f7 94       	ror	r15
    5c32:	e7 94       	ror	r14
    5c34:	8a 95       	dec	r24
    5c36:	d2 f7       	brpl	.-12     	; 0x5c2c <__clzsi2+0x76>
    5c38:	f7 01       	movw	r30, r14
    5c3a:	e9 53       	subi	r30, 0x39	; 57
    5c3c:	ff 4f       	sbci	r31, 0xFF	; 255
    5c3e:	80 81       	ld	r24, Z
    5c40:	28 1b       	sub	r18, r24
    5c42:	31 09       	sbc	r19, r1
    5c44:	41 09       	sbc	r20, r1
    5c46:	51 09       	sbc	r21, r1
    5c48:	c9 01       	movw	r24, r18
    5c4a:	1f 91       	pop	r17
    5c4c:	0f 91       	pop	r16
    5c4e:	ff 90       	pop	r15
    5c50:	ef 90       	pop	r14
    5c52:	08 95       	ret

00005c54 <__pack_f>:
    5c54:	df 92       	push	r13
    5c56:	ef 92       	push	r14
    5c58:	ff 92       	push	r15
    5c5a:	0f 93       	push	r16
    5c5c:	1f 93       	push	r17
    5c5e:	fc 01       	movw	r30, r24
    5c60:	e4 80       	ldd	r14, Z+4	; 0x04
    5c62:	f5 80       	ldd	r15, Z+5	; 0x05
    5c64:	06 81       	ldd	r16, Z+6	; 0x06
    5c66:	17 81       	ldd	r17, Z+7	; 0x07
    5c68:	d1 80       	ldd	r13, Z+1	; 0x01
    5c6a:	80 81       	ld	r24, Z
    5c6c:	82 30       	cpi	r24, 0x02	; 2
    5c6e:	48 f4       	brcc	.+18     	; 0x5c82 <__pack_f+0x2e>
    5c70:	80 e0       	ldi	r24, 0x00	; 0
    5c72:	90 e0       	ldi	r25, 0x00	; 0
    5c74:	a0 e1       	ldi	r26, 0x10	; 16
    5c76:	b0 e0       	ldi	r27, 0x00	; 0
    5c78:	e8 2a       	or	r14, r24
    5c7a:	f9 2a       	or	r15, r25
    5c7c:	0a 2b       	or	r16, r26
    5c7e:	1b 2b       	or	r17, r27
    5c80:	a5 c0       	rjmp	.+330    	; 0x5dcc <__pack_f+0x178>
    5c82:	84 30       	cpi	r24, 0x04	; 4
    5c84:	09 f4       	brne	.+2      	; 0x5c88 <__pack_f+0x34>
    5c86:	9f c0       	rjmp	.+318    	; 0x5dc6 <__pack_f+0x172>
    5c88:	82 30       	cpi	r24, 0x02	; 2
    5c8a:	21 f4       	brne	.+8      	; 0x5c94 <__pack_f+0x40>
    5c8c:	ee 24       	eor	r14, r14
    5c8e:	ff 24       	eor	r15, r15
    5c90:	87 01       	movw	r16, r14
    5c92:	05 c0       	rjmp	.+10     	; 0x5c9e <__pack_f+0x4a>
    5c94:	e1 14       	cp	r14, r1
    5c96:	f1 04       	cpc	r15, r1
    5c98:	01 05       	cpc	r16, r1
    5c9a:	11 05       	cpc	r17, r1
    5c9c:	19 f4       	brne	.+6      	; 0x5ca4 <__pack_f+0x50>
    5c9e:	e0 e0       	ldi	r30, 0x00	; 0
    5ca0:	f0 e0       	ldi	r31, 0x00	; 0
    5ca2:	96 c0       	rjmp	.+300    	; 0x5dd0 <__pack_f+0x17c>
    5ca4:	62 81       	ldd	r22, Z+2	; 0x02
    5ca6:	73 81       	ldd	r23, Z+3	; 0x03
    5ca8:	9f ef       	ldi	r25, 0xFF	; 255
    5caa:	62 38       	cpi	r22, 0x82	; 130
    5cac:	79 07       	cpc	r23, r25
    5cae:	0c f0       	brlt	.+2      	; 0x5cb2 <__pack_f+0x5e>
    5cb0:	5b c0       	rjmp	.+182    	; 0x5d68 <__pack_f+0x114>
    5cb2:	22 e8       	ldi	r18, 0x82	; 130
    5cb4:	3f ef       	ldi	r19, 0xFF	; 255
    5cb6:	26 1b       	sub	r18, r22
    5cb8:	37 0b       	sbc	r19, r23
    5cba:	2a 31       	cpi	r18, 0x1A	; 26
    5cbc:	31 05       	cpc	r19, r1
    5cbe:	2c f0       	brlt	.+10     	; 0x5cca <__pack_f+0x76>
    5cc0:	20 e0       	ldi	r18, 0x00	; 0
    5cc2:	30 e0       	ldi	r19, 0x00	; 0
    5cc4:	40 e0       	ldi	r20, 0x00	; 0
    5cc6:	50 e0       	ldi	r21, 0x00	; 0
    5cc8:	2a c0       	rjmp	.+84     	; 0x5d1e <__pack_f+0xca>
    5cca:	b8 01       	movw	r22, r16
    5ccc:	a7 01       	movw	r20, r14
    5cce:	02 2e       	mov	r0, r18
    5cd0:	04 c0       	rjmp	.+8      	; 0x5cda <__pack_f+0x86>
    5cd2:	76 95       	lsr	r23
    5cd4:	67 95       	ror	r22
    5cd6:	57 95       	ror	r21
    5cd8:	47 95       	ror	r20
    5cda:	0a 94       	dec	r0
    5cdc:	d2 f7       	brpl	.-12     	; 0x5cd2 <__pack_f+0x7e>
    5cde:	81 e0       	ldi	r24, 0x01	; 1
    5ce0:	90 e0       	ldi	r25, 0x00	; 0
    5ce2:	a0 e0       	ldi	r26, 0x00	; 0
    5ce4:	b0 e0       	ldi	r27, 0x00	; 0
    5ce6:	04 c0       	rjmp	.+8      	; 0x5cf0 <__pack_f+0x9c>
    5ce8:	88 0f       	add	r24, r24
    5cea:	99 1f       	adc	r25, r25
    5cec:	aa 1f       	adc	r26, r26
    5cee:	bb 1f       	adc	r27, r27
    5cf0:	2a 95       	dec	r18
    5cf2:	d2 f7       	brpl	.-12     	; 0x5ce8 <__pack_f+0x94>
    5cf4:	01 97       	sbiw	r24, 0x01	; 1
    5cf6:	a1 09       	sbc	r26, r1
    5cf8:	b1 09       	sbc	r27, r1
    5cfa:	8e 21       	and	r24, r14
    5cfc:	9f 21       	and	r25, r15
    5cfe:	a0 23       	and	r26, r16
    5d00:	b1 23       	and	r27, r17
    5d02:	00 97       	sbiw	r24, 0x00	; 0
    5d04:	a1 05       	cpc	r26, r1
    5d06:	b1 05       	cpc	r27, r1
    5d08:	21 f0       	breq	.+8      	; 0x5d12 <__pack_f+0xbe>
    5d0a:	81 e0       	ldi	r24, 0x01	; 1
    5d0c:	90 e0       	ldi	r25, 0x00	; 0
    5d0e:	a0 e0       	ldi	r26, 0x00	; 0
    5d10:	b0 e0       	ldi	r27, 0x00	; 0
    5d12:	9a 01       	movw	r18, r20
    5d14:	ab 01       	movw	r20, r22
    5d16:	28 2b       	or	r18, r24
    5d18:	39 2b       	or	r19, r25
    5d1a:	4a 2b       	or	r20, r26
    5d1c:	5b 2b       	or	r21, r27
    5d1e:	da 01       	movw	r26, r20
    5d20:	c9 01       	movw	r24, r18
    5d22:	8f 77       	andi	r24, 0x7F	; 127
    5d24:	90 70       	andi	r25, 0x00	; 0
    5d26:	a0 70       	andi	r26, 0x00	; 0
    5d28:	b0 70       	andi	r27, 0x00	; 0
    5d2a:	80 34       	cpi	r24, 0x40	; 64
    5d2c:	91 05       	cpc	r25, r1
    5d2e:	a1 05       	cpc	r26, r1
    5d30:	b1 05       	cpc	r27, r1
    5d32:	39 f4       	brne	.+14     	; 0x5d42 <__pack_f+0xee>
    5d34:	27 ff       	sbrs	r18, 7
    5d36:	09 c0       	rjmp	.+18     	; 0x5d4a <__pack_f+0xf6>
    5d38:	20 5c       	subi	r18, 0xC0	; 192
    5d3a:	3f 4f       	sbci	r19, 0xFF	; 255
    5d3c:	4f 4f       	sbci	r20, 0xFF	; 255
    5d3e:	5f 4f       	sbci	r21, 0xFF	; 255
    5d40:	04 c0       	rjmp	.+8      	; 0x5d4a <__pack_f+0xf6>
    5d42:	21 5c       	subi	r18, 0xC1	; 193
    5d44:	3f 4f       	sbci	r19, 0xFF	; 255
    5d46:	4f 4f       	sbci	r20, 0xFF	; 255
    5d48:	5f 4f       	sbci	r21, 0xFF	; 255
    5d4a:	e0 e0       	ldi	r30, 0x00	; 0
    5d4c:	f0 e0       	ldi	r31, 0x00	; 0
    5d4e:	20 30       	cpi	r18, 0x00	; 0
    5d50:	a0 e0       	ldi	r26, 0x00	; 0
    5d52:	3a 07       	cpc	r19, r26
    5d54:	a0 e0       	ldi	r26, 0x00	; 0
    5d56:	4a 07       	cpc	r20, r26
    5d58:	a0 e4       	ldi	r26, 0x40	; 64
    5d5a:	5a 07       	cpc	r21, r26
    5d5c:	10 f0       	brcs	.+4      	; 0x5d62 <__pack_f+0x10e>
    5d5e:	e1 e0       	ldi	r30, 0x01	; 1
    5d60:	f0 e0       	ldi	r31, 0x00	; 0
    5d62:	79 01       	movw	r14, r18
    5d64:	8a 01       	movw	r16, r20
    5d66:	27 c0       	rjmp	.+78     	; 0x5db6 <__pack_f+0x162>
    5d68:	60 38       	cpi	r22, 0x80	; 128
    5d6a:	71 05       	cpc	r23, r1
    5d6c:	64 f5       	brge	.+88     	; 0x5dc6 <__pack_f+0x172>
    5d6e:	fb 01       	movw	r30, r22
    5d70:	e1 58       	subi	r30, 0x81	; 129
    5d72:	ff 4f       	sbci	r31, 0xFF	; 255
    5d74:	d8 01       	movw	r26, r16
    5d76:	c7 01       	movw	r24, r14
    5d78:	8f 77       	andi	r24, 0x7F	; 127
    5d7a:	90 70       	andi	r25, 0x00	; 0
    5d7c:	a0 70       	andi	r26, 0x00	; 0
    5d7e:	b0 70       	andi	r27, 0x00	; 0
    5d80:	80 34       	cpi	r24, 0x40	; 64
    5d82:	91 05       	cpc	r25, r1
    5d84:	a1 05       	cpc	r26, r1
    5d86:	b1 05       	cpc	r27, r1
    5d88:	39 f4       	brne	.+14     	; 0x5d98 <__pack_f+0x144>
    5d8a:	e7 fe       	sbrs	r14, 7
    5d8c:	0d c0       	rjmp	.+26     	; 0x5da8 <__pack_f+0x154>
    5d8e:	80 e4       	ldi	r24, 0x40	; 64
    5d90:	90 e0       	ldi	r25, 0x00	; 0
    5d92:	a0 e0       	ldi	r26, 0x00	; 0
    5d94:	b0 e0       	ldi	r27, 0x00	; 0
    5d96:	04 c0       	rjmp	.+8      	; 0x5da0 <__pack_f+0x14c>
    5d98:	8f e3       	ldi	r24, 0x3F	; 63
    5d9a:	90 e0       	ldi	r25, 0x00	; 0
    5d9c:	a0 e0       	ldi	r26, 0x00	; 0
    5d9e:	b0 e0       	ldi	r27, 0x00	; 0
    5da0:	e8 0e       	add	r14, r24
    5da2:	f9 1e       	adc	r15, r25
    5da4:	0a 1f       	adc	r16, r26
    5da6:	1b 1f       	adc	r17, r27
    5da8:	17 ff       	sbrs	r17, 7
    5daa:	05 c0       	rjmp	.+10     	; 0x5db6 <__pack_f+0x162>
    5dac:	16 95       	lsr	r17
    5dae:	07 95       	ror	r16
    5db0:	f7 94       	ror	r15
    5db2:	e7 94       	ror	r14
    5db4:	31 96       	adiw	r30, 0x01	; 1
    5db6:	87 e0       	ldi	r24, 0x07	; 7
    5db8:	16 95       	lsr	r17
    5dba:	07 95       	ror	r16
    5dbc:	f7 94       	ror	r15
    5dbe:	e7 94       	ror	r14
    5dc0:	8a 95       	dec	r24
    5dc2:	d1 f7       	brne	.-12     	; 0x5db8 <__pack_f+0x164>
    5dc4:	05 c0       	rjmp	.+10     	; 0x5dd0 <__pack_f+0x17c>
    5dc6:	ee 24       	eor	r14, r14
    5dc8:	ff 24       	eor	r15, r15
    5dca:	87 01       	movw	r16, r14
    5dcc:	ef ef       	ldi	r30, 0xFF	; 255
    5dce:	f0 e0       	ldi	r31, 0x00	; 0
    5dd0:	6e 2f       	mov	r22, r30
    5dd2:	67 95       	ror	r22
    5dd4:	66 27       	eor	r22, r22
    5dd6:	67 95       	ror	r22
    5dd8:	90 2f       	mov	r25, r16
    5dda:	9f 77       	andi	r25, 0x7F	; 127
    5ddc:	d7 94       	ror	r13
    5dde:	dd 24       	eor	r13, r13
    5de0:	d7 94       	ror	r13
    5de2:	8e 2f       	mov	r24, r30
    5de4:	86 95       	lsr	r24
    5de6:	49 2f       	mov	r20, r25
    5de8:	46 2b       	or	r20, r22
    5dea:	58 2f       	mov	r21, r24
    5dec:	5d 29       	or	r21, r13
    5dee:	b7 01       	movw	r22, r14
    5df0:	ca 01       	movw	r24, r20
    5df2:	1f 91       	pop	r17
    5df4:	0f 91       	pop	r16
    5df6:	ff 90       	pop	r15
    5df8:	ef 90       	pop	r14
    5dfa:	df 90       	pop	r13
    5dfc:	08 95       	ret

00005dfe <__unpack_f>:
    5dfe:	fc 01       	movw	r30, r24
    5e00:	db 01       	movw	r26, r22
    5e02:	40 81       	ld	r20, Z
    5e04:	51 81       	ldd	r21, Z+1	; 0x01
    5e06:	22 81       	ldd	r18, Z+2	; 0x02
    5e08:	62 2f       	mov	r22, r18
    5e0a:	6f 77       	andi	r22, 0x7F	; 127
    5e0c:	70 e0       	ldi	r23, 0x00	; 0
    5e0e:	22 1f       	adc	r18, r18
    5e10:	22 27       	eor	r18, r18
    5e12:	22 1f       	adc	r18, r18
    5e14:	93 81       	ldd	r25, Z+3	; 0x03
    5e16:	89 2f       	mov	r24, r25
    5e18:	88 0f       	add	r24, r24
    5e1a:	82 2b       	or	r24, r18
    5e1c:	28 2f       	mov	r18, r24
    5e1e:	30 e0       	ldi	r19, 0x00	; 0
    5e20:	99 1f       	adc	r25, r25
    5e22:	99 27       	eor	r25, r25
    5e24:	99 1f       	adc	r25, r25
    5e26:	11 96       	adiw	r26, 0x01	; 1
    5e28:	9c 93       	st	X, r25
    5e2a:	11 97       	sbiw	r26, 0x01	; 1
    5e2c:	21 15       	cp	r18, r1
    5e2e:	31 05       	cpc	r19, r1
    5e30:	a9 f5       	brne	.+106    	; 0x5e9c <__unpack_f+0x9e>
    5e32:	41 15       	cp	r20, r1
    5e34:	51 05       	cpc	r21, r1
    5e36:	61 05       	cpc	r22, r1
    5e38:	71 05       	cpc	r23, r1
    5e3a:	11 f4       	brne	.+4      	; 0x5e40 <__unpack_f+0x42>
    5e3c:	82 e0       	ldi	r24, 0x02	; 2
    5e3e:	37 c0       	rjmp	.+110    	; 0x5eae <__unpack_f+0xb0>
    5e40:	82 e8       	ldi	r24, 0x82	; 130
    5e42:	9f ef       	ldi	r25, 0xFF	; 255
    5e44:	13 96       	adiw	r26, 0x03	; 3
    5e46:	9c 93       	st	X, r25
    5e48:	8e 93       	st	-X, r24
    5e4a:	12 97       	sbiw	r26, 0x02	; 2
    5e4c:	9a 01       	movw	r18, r20
    5e4e:	ab 01       	movw	r20, r22
    5e50:	67 e0       	ldi	r22, 0x07	; 7
    5e52:	22 0f       	add	r18, r18
    5e54:	33 1f       	adc	r19, r19
    5e56:	44 1f       	adc	r20, r20
    5e58:	55 1f       	adc	r21, r21
    5e5a:	6a 95       	dec	r22
    5e5c:	d1 f7       	brne	.-12     	; 0x5e52 <__unpack_f+0x54>
    5e5e:	83 e0       	ldi	r24, 0x03	; 3
    5e60:	8c 93       	st	X, r24
    5e62:	0d c0       	rjmp	.+26     	; 0x5e7e <__unpack_f+0x80>
    5e64:	22 0f       	add	r18, r18
    5e66:	33 1f       	adc	r19, r19
    5e68:	44 1f       	adc	r20, r20
    5e6a:	55 1f       	adc	r21, r21
    5e6c:	12 96       	adiw	r26, 0x02	; 2
    5e6e:	8d 91       	ld	r24, X+
    5e70:	9c 91       	ld	r25, X
    5e72:	13 97       	sbiw	r26, 0x03	; 3
    5e74:	01 97       	sbiw	r24, 0x01	; 1
    5e76:	13 96       	adiw	r26, 0x03	; 3
    5e78:	9c 93       	st	X, r25
    5e7a:	8e 93       	st	-X, r24
    5e7c:	12 97       	sbiw	r26, 0x02	; 2
    5e7e:	20 30       	cpi	r18, 0x00	; 0
    5e80:	80 e0       	ldi	r24, 0x00	; 0
    5e82:	38 07       	cpc	r19, r24
    5e84:	80 e0       	ldi	r24, 0x00	; 0
    5e86:	48 07       	cpc	r20, r24
    5e88:	80 e4       	ldi	r24, 0x40	; 64
    5e8a:	58 07       	cpc	r21, r24
    5e8c:	58 f3       	brcs	.-42     	; 0x5e64 <__unpack_f+0x66>
    5e8e:	14 96       	adiw	r26, 0x04	; 4
    5e90:	2d 93       	st	X+, r18
    5e92:	3d 93       	st	X+, r19
    5e94:	4d 93       	st	X+, r20
    5e96:	5c 93       	st	X, r21
    5e98:	17 97       	sbiw	r26, 0x07	; 7
    5e9a:	08 95       	ret
    5e9c:	2f 3f       	cpi	r18, 0xFF	; 255
    5e9e:	31 05       	cpc	r19, r1
    5ea0:	79 f4       	brne	.+30     	; 0x5ec0 <__unpack_f+0xc2>
    5ea2:	41 15       	cp	r20, r1
    5ea4:	51 05       	cpc	r21, r1
    5ea6:	61 05       	cpc	r22, r1
    5ea8:	71 05       	cpc	r23, r1
    5eaa:	19 f4       	brne	.+6      	; 0x5eb2 <__unpack_f+0xb4>
    5eac:	84 e0       	ldi	r24, 0x04	; 4
    5eae:	8c 93       	st	X, r24
    5eb0:	08 95       	ret
    5eb2:	64 ff       	sbrs	r22, 4
    5eb4:	03 c0       	rjmp	.+6      	; 0x5ebc <__unpack_f+0xbe>
    5eb6:	81 e0       	ldi	r24, 0x01	; 1
    5eb8:	8c 93       	st	X, r24
    5eba:	12 c0       	rjmp	.+36     	; 0x5ee0 <__unpack_f+0xe2>
    5ebc:	1c 92       	st	X, r1
    5ebe:	10 c0       	rjmp	.+32     	; 0x5ee0 <__unpack_f+0xe2>
    5ec0:	2f 57       	subi	r18, 0x7F	; 127
    5ec2:	30 40       	sbci	r19, 0x00	; 0
    5ec4:	13 96       	adiw	r26, 0x03	; 3
    5ec6:	3c 93       	st	X, r19
    5ec8:	2e 93       	st	-X, r18
    5eca:	12 97       	sbiw	r26, 0x02	; 2
    5ecc:	83 e0       	ldi	r24, 0x03	; 3
    5ece:	8c 93       	st	X, r24
    5ed0:	87 e0       	ldi	r24, 0x07	; 7
    5ed2:	44 0f       	add	r20, r20
    5ed4:	55 1f       	adc	r21, r21
    5ed6:	66 1f       	adc	r22, r22
    5ed8:	77 1f       	adc	r23, r23
    5eda:	8a 95       	dec	r24
    5edc:	d1 f7       	brne	.-12     	; 0x5ed2 <__unpack_f+0xd4>
    5ede:	70 64       	ori	r23, 0x40	; 64
    5ee0:	14 96       	adiw	r26, 0x04	; 4
    5ee2:	4d 93       	st	X+, r20
    5ee4:	5d 93       	st	X+, r21
    5ee6:	6d 93       	st	X+, r22
    5ee8:	7c 93       	st	X, r23
    5eea:	17 97       	sbiw	r26, 0x07	; 7
    5eec:	08 95       	ret

00005eee <__fpcmp_parts_f>:
    5eee:	1f 93       	push	r17
    5ef0:	dc 01       	movw	r26, r24
    5ef2:	fb 01       	movw	r30, r22
    5ef4:	9c 91       	ld	r25, X
    5ef6:	92 30       	cpi	r25, 0x02	; 2
    5ef8:	08 f4       	brcc	.+2      	; 0x5efc <__fpcmp_parts_f+0xe>
    5efa:	47 c0       	rjmp	.+142    	; 0x5f8a <__fpcmp_parts_f+0x9c>
    5efc:	80 81       	ld	r24, Z
    5efe:	82 30       	cpi	r24, 0x02	; 2
    5f00:	08 f4       	brcc	.+2      	; 0x5f04 <__fpcmp_parts_f+0x16>
    5f02:	43 c0       	rjmp	.+134    	; 0x5f8a <__fpcmp_parts_f+0x9c>
    5f04:	94 30       	cpi	r25, 0x04	; 4
    5f06:	51 f4       	brne	.+20     	; 0x5f1c <__fpcmp_parts_f+0x2e>
    5f08:	11 96       	adiw	r26, 0x01	; 1
    5f0a:	1c 91       	ld	r17, X
    5f0c:	84 30       	cpi	r24, 0x04	; 4
    5f0e:	99 f5       	brne	.+102    	; 0x5f76 <__fpcmp_parts_f+0x88>
    5f10:	81 81       	ldd	r24, Z+1	; 0x01
    5f12:	68 2f       	mov	r22, r24
    5f14:	70 e0       	ldi	r23, 0x00	; 0
    5f16:	61 1b       	sub	r22, r17
    5f18:	71 09       	sbc	r23, r1
    5f1a:	3f c0       	rjmp	.+126    	; 0x5f9a <__fpcmp_parts_f+0xac>
    5f1c:	84 30       	cpi	r24, 0x04	; 4
    5f1e:	21 f0       	breq	.+8      	; 0x5f28 <__fpcmp_parts_f+0x3a>
    5f20:	92 30       	cpi	r25, 0x02	; 2
    5f22:	31 f4       	brne	.+12     	; 0x5f30 <__fpcmp_parts_f+0x42>
    5f24:	82 30       	cpi	r24, 0x02	; 2
    5f26:	b9 f1       	breq	.+110    	; 0x5f96 <__fpcmp_parts_f+0xa8>
    5f28:	81 81       	ldd	r24, Z+1	; 0x01
    5f2a:	88 23       	and	r24, r24
    5f2c:	89 f1       	breq	.+98     	; 0x5f90 <__fpcmp_parts_f+0xa2>
    5f2e:	2d c0       	rjmp	.+90     	; 0x5f8a <__fpcmp_parts_f+0x9c>
    5f30:	11 96       	adiw	r26, 0x01	; 1
    5f32:	1c 91       	ld	r17, X
    5f34:	11 97       	sbiw	r26, 0x01	; 1
    5f36:	82 30       	cpi	r24, 0x02	; 2
    5f38:	f1 f0       	breq	.+60     	; 0x5f76 <__fpcmp_parts_f+0x88>
    5f3a:	81 81       	ldd	r24, Z+1	; 0x01
    5f3c:	18 17       	cp	r17, r24
    5f3e:	d9 f4       	brne	.+54     	; 0x5f76 <__fpcmp_parts_f+0x88>
    5f40:	12 96       	adiw	r26, 0x02	; 2
    5f42:	2d 91       	ld	r18, X+
    5f44:	3c 91       	ld	r19, X
    5f46:	13 97       	sbiw	r26, 0x03	; 3
    5f48:	82 81       	ldd	r24, Z+2	; 0x02
    5f4a:	93 81       	ldd	r25, Z+3	; 0x03
    5f4c:	82 17       	cp	r24, r18
    5f4e:	93 07       	cpc	r25, r19
    5f50:	94 f0       	brlt	.+36     	; 0x5f76 <__fpcmp_parts_f+0x88>
    5f52:	28 17       	cp	r18, r24
    5f54:	39 07       	cpc	r19, r25
    5f56:	bc f0       	brlt	.+46     	; 0x5f86 <__fpcmp_parts_f+0x98>
    5f58:	14 96       	adiw	r26, 0x04	; 4
    5f5a:	8d 91       	ld	r24, X+
    5f5c:	9d 91       	ld	r25, X+
    5f5e:	0d 90       	ld	r0, X+
    5f60:	bc 91       	ld	r27, X
    5f62:	a0 2d       	mov	r26, r0
    5f64:	24 81       	ldd	r18, Z+4	; 0x04
    5f66:	35 81       	ldd	r19, Z+5	; 0x05
    5f68:	46 81       	ldd	r20, Z+6	; 0x06
    5f6a:	57 81       	ldd	r21, Z+7	; 0x07
    5f6c:	28 17       	cp	r18, r24
    5f6e:	39 07       	cpc	r19, r25
    5f70:	4a 07       	cpc	r20, r26
    5f72:	5b 07       	cpc	r21, r27
    5f74:	18 f4       	brcc	.+6      	; 0x5f7c <__fpcmp_parts_f+0x8e>
    5f76:	11 23       	and	r17, r17
    5f78:	41 f0       	breq	.+16     	; 0x5f8a <__fpcmp_parts_f+0x9c>
    5f7a:	0a c0       	rjmp	.+20     	; 0x5f90 <__fpcmp_parts_f+0xa2>
    5f7c:	82 17       	cp	r24, r18
    5f7e:	93 07       	cpc	r25, r19
    5f80:	a4 07       	cpc	r26, r20
    5f82:	b5 07       	cpc	r27, r21
    5f84:	40 f4       	brcc	.+16     	; 0x5f96 <__fpcmp_parts_f+0xa8>
    5f86:	11 23       	and	r17, r17
    5f88:	19 f0       	breq	.+6      	; 0x5f90 <__fpcmp_parts_f+0xa2>
    5f8a:	61 e0       	ldi	r22, 0x01	; 1
    5f8c:	70 e0       	ldi	r23, 0x00	; 0
    5f8e:	05 c0       	rjmp	.+10     	; 0x5f9a <__fpcmp_parts_f+0xac>
    5f90:	6f ef       	ldi	r22, 0xFF	; 255
    5f92:	7f ef       	ldi	r23, 0xFF	; 255
    5f94:	02 c0       	rjmp	.+4      	; 0x5f9a <__fpcmp_parts_f+0xac>
    5f96:	60 e0       	ldi	r22, 0x00	; 0
    5f98:	70 e0       	ldi	r23, 0x00	; 0
    5f9a:	cb 01       	movw	r24, r22
    5f9c:	1f 91       	pop	r17
    5f9e:	08 95       	ret

00005fa0 <__prologue_saves__>:
    5fa0:	2f 92       	push	r2
    5fa2:	3f 92       	push	r3
    5fa4:	4f 92       	push	r4
    5fa6:	5f 92       	push	r5
    5fa8:	6f 92       	push	r6
    5faa:	7f 92       	push	r7
    5fac:	8f 92       	push	r8
    5fae:	9f 92       	push	r9
    5fb0:	af 92       	push	r10
    5fb2:	bf 92       	push	r11
    5fb4:	cf 92       	push	r12
    5fb6:	df 92       	push	r13
    5fb8:	ef 92       	push	r14
    5fba:	ff 92       	push	r15
    5fbc:	0f 93       	push	r16
    5fbe:	1f 93       	push	r17
    5fc0:	cf 93       	push	r28
    5fc2:	df 93       	push	r29
    5fc4:	cd b7       	in	r28, 0x3d	; 61
    5fc6:	de b7       	in	r29, 0x3e	; 62
    5fc8:	ca 1b       	sub	r28, r26
    5fca:	db 0b       	sbc	r29, r27
    5fcc:	0f b6       	in	r0, 0x3f	; 63
    5fce:	f8 94       	cli
    5fd0:	de bf       	out	0x3e, r29	; 62
    5fd2:	0f be       	out	0x3f, r0	; 63
    5fd4:	cd bf       	out	0x3d, r28	; 61
    5fd6:	09 94       	ijmp

00005fd8 <__epilogue_restores__>:
    5fd8:	2a 88       	ldd	r2, Y+18	; 0x12
    5fda:	39 88       	ldd	r3, Y+17	; 0x11
    5fdc:	48 88       	ldd	r4, Y+16	; 0x10
    5fde:	5f 84       	ldd	r5, Y+15	; 0x0f
    5fe0:	6e 84       	ldd	r6, Y+14	; 0x0e
    5fe2:	7d 84       	ldd	r7, Y+13	; 0x0d
    5fe4:	8c 84       	ldd	r8, Y+12	; 0x0c
    5fe6:	9b 84       	ldd	r9, Y+11	; 0x0b
    5fe8:	aa 84       	ldd	r10, Y+10	; 0x0a
    5fea:	b9 84       	ldd	r11, Y+9	; 0x09
    5fec:	c8 84       	ldd	r12, Y+8	; 0x08
    5fee:	df 80       	ldd	r13, Y+7	; 0x07
    5ff0:	ee 80       	ldd	r14, Y+6	; 0x06
    5ff2:	fd 80       	ldd	r15, Y+5	; 0x05
    5ff4:	0c 81       	ldd	r16, Y+4	; 0x04
    5ff6:	1b 81       	ldd	r17, Y+3	; 0x03
    5ff8:	aa 81       	ldd	r26, Y+2	; 0x02
    5ffa:	b9 81       	ldd	r27, Y+1	; 0x01
    5ffc:	ce 0f       	add	r28, r30
    5ffe:	d1 1d       	adc	r29, r1
    6000:	0f b6       	in	r0, 0x3f	; 63
    6002:	f8 94       	cli
    6004:	de bf       	out	0x3e, r29	; 62
    6006:	0f be       	out	0x3f, r0	; 63
    6008:	cd bf       	out	0x3d, r28	; 61
    600a:	ed 01       	movw	r28, r26
    600c:	08 95       	ret

0000600e <_exit>:
    600e:	f8 94       	cli

00006010 <__stop_program>:
    6010:	ff cf       	rjmp	.-2      	; 0x6010 <__stop_program>
